---
triple:          'arm64-apple-darwin'
binary-path:     main
relocations:
  - { offsetInCU: 0x49, offset: 0x49, size: 0x8, addend: 0x0, symName: __ZNSt3__119piecewise_constructE, symObjAddr: 0x2FE8, symBinAddr: 0x1000363C8, symSize: 0x0 }
  - { offsetInCU: 0x430F, offset: 0x430F, size: 0x8, addend: 0x0, symName: __ZNSt3__116forward_as_tupleB8ue170006IJRKiEEENS_5tupleIJDpOT_EEES6_, symObjAddr: 0xE74, symBinAddr: 0x100006020, symSize: 0x2C }
  - { offsetInCU: 0x4348, offset: 0x4348, size: 0x8, addend: 0x0, symName: __ZNSt3__116forward_as_tupleB8ue170006IJEEENS_5tupleIJDpOT_EEES4_, symObjAddr: 0xEA0, symBinAddr: 0x10000604C, symSize: 0x4 }
  - { offsetInCU: 0x436C, offset: 0x436C, size: 0x8, addend: 0x0, symName: __ZNSt3__116__constrain_hashB8ue170006Emm, symObjAddr: 0xF78, symBinAddr: 0x100006124, symSize: 0x98 }
  - { offsetInCU: 0x43A6, offset: 0x43A6, size: 0x8, addend: 0x0, symName: __ZNSt3__13maxB8ue170006ImEERKT_S3_S3_, symObjAddr: 0x12BC, symBinAddr: 0x100006468, symSize: 0x2C }
  - { offsetInCU: 0x43E9, offset: 0x43E9, size: 0x8, addend: 0x0, symName: __ZNSt3__116__is_hash_power2B8ue170006Em, symObjAddr: 0x12E8, symBinAddr: 0x100006494, symSize: 0x50 }
  - { offsetInCU: 0x4415, offset: 0x4415, size: 0x8, addend: 0x0, symName: __ZNSt3__17launderB8ue170006IKNS_4pairIKibEEEEPT_S6_, symObjAddr: 0x16A0, symBinAddr: 0x10000684C, symSize: 0x24 }
  - { offsetInCU: 0x444C, offset: 0x444C, size: 0x8, addend: 0x0, symName: __ZNSt3__19__launderB8ue170006IKNS_4pairIKibEEEEPT_S6_, symObjAddr: 0x16C4, symBinAddr: 0x100006870, symSize: 0x14 }
  - { offsetInCU: 0x44D4, offset: 0x44D4, size: 0x8, addend: 0x0, symName: __ZNSt3__117__libcpp_allocateB8ue170006Emm, symObjAddr: 0x193C, symBinAddr: 0x100006AE8, symSize: 0x60 }
  - { offsetInCU: 0x452E, offset: 0x452E, size: 0x8, addend: 0x0, symName: __ZNSt3__124__is_overaligned_for_newB8ue170006Em, symObjAddr: 0x19B4, symBinAddr: 0x100006B60, symSize: 0x20 }
  - { offsetInCU: 0x455C, offset: 0x455C, size: 0x8, addend: 0x0, symName: __ZNSt3__121__libcpp_operator_newB8ue170006IJmSt11align_val_tEEEPvDpT_, symObjAddr: 0x19D4, symBinAddr: 0x100006B80, symSize: 0x2C }
  - { offsetInCU: 0x45A9, offset: 0x45A9, size: 0x8, addend: 0x0, symName: __ZNSt3__121__libcpp_operator_newB8ue170006IJmEEEPvDpT_, symObjAddr: 0x1A00, symBinAddr: 0x100006BAC, symSize: 0x24 }
  - { offsetInCU: 0x45ED, offset: 0x45ED, size: 0x8, addend: 0x0, symName: __ZNSt3__13getB8ue170006ILm0EJRKiEEERNS_13tuple_elementIXT_ENS_5tupleIJDpT0_EEEE4typeERS7_, symObjAddr: 0x1C7C, symBinAddr: 0x100006E28, symSize: 0x24 }
  - { offsetInCU: 0x4630, offset: 0x4630, size: 0x8, addend: 0x0, symName: __ZNSt3__116__next_hash_pow2B8ue170006Em, symObjAddr: 0x2194, symBinAddr: 0x100007340, symSize: 0x6C }
  - { offsetInCU: 0x4678, offset: 0x4678, size: 0x8, addend: 0x0, symName: __ZNSt3__119__libcpp_deallocateB8ue170006EPvmm, symObjAddr: 0x2488, symBinAddr: 0x100007634, symSize: 0x60 }
  - { offsetInCU: 0x46DD, offset: 0x46DD, size: 0x8, addend: 0x0, symName: __ZNSt3__127__do_deallocate_handle_sizeB8ue170006IJSt11align_val_tEEEvPvmDpT_, symObjAddr: 0x24E8, symBinAddr: 0x100007694, symSize: 0x30 }
  - { offsetInCU: 0x4730, offset: 0x4730, size: 0x8, addend: 0x0, symName: __ZNSt3__127__do_deallocate_handle_sizeB8ue170006IJEEEvPvmDpT_, symObjAddr: 0x2518, symBinAddr: 0x1000076C4, symSize: 0x28 }
  - { offsetInCU: 0x476E, offset: 0x476E, size: 0x8, addend: 0x0, symName: __ZNSt3__124__libcpp_operator_deleteB8ue170006IJPvSt11align_val_tEEEvDpT_, symObjAddr: 0x2540, symBinAddr: 0x1000076EC, symSize: 0x2C }
  - { offsetInCU: 0x47B7, offset: 0x47B7, size: 0x8, addend: 0x0, symName: __ZNSt3__124__libcpp_operator_deleteB8ue170006IJPvEEEvDpT_, symObjAddr: 0x256C, symBinAddr: 0x100007718, symSize: 0x24 }
  - { offsetInCU: 0x47EC, offset: 0x47EC, size: 0x8, addend: 0x0, symName: __ZNSt3__112__libcpp_clzB8ue170006Em, symObjAddr: 0x2644, symBinAddr: 0x1000077F0, symSize: 0x1C }
  - { offsetInCU: 0x4818, offset: 0x4818, size: 0x8, addend: 0x0, symName: __ZNSt3__13maxB8ue170006ImNS_6__lessIvvEEEERKT_S5_S5_T0_, symObjAddr: 0x2660, symBinAddr: 0x10000780C, symSize: 0x54 }
  - { offsetInCU: 0x490E, offset: 0x490E, size: 0x8, addend: 0x0, symName: __ZNSt3__17launderB8ue170006INS_4pairIKibEEEEPT_S5_, symObjAddr: 0x2A94, symBinAddr: 0x100007C40, symSize: 0x24 }
  - { offsetInCU: 0x4945, offset: 0x4945, size: 0x8, addend: 0x0, symName: __ZNSt3__19__launderB8ue170006INS_4pairIKibEEEEPT_S5_, symObjAddr: 0x2AB8, symBinAddr: 0x100007C64, symSize: 0x14 }
  - { offsetInCU: 0x497C, offset: 0x497C, size: 0x8, addend: 0x0, symName: __ZNSt3__1neB8ue170006ERKNS_21__hash_const_iteratorIPNS_11__hash_nodeINS_17__hash_value_typeIibEEPvEEEES9_, symObjAddr: 0x2B30, symBinAddr: 0x100007CDC, symSize: 0x34 }
  - { offsetInCU: 0x49B9, offset: 0x49B9, size: 0x8, addend: 0x0, symName: __ZNSt3__1eqB8ue170006ERKNS_21__hash_const_iteratorIPNS_11__hash_nodeINS_17__hash_value_typeIibEEPvEEEES9_, symObjAddr: 0x2D48, symBinAddr: 0x100007EF4, symSize: 0x30 }
  - { offsetInCU: 0x4A79, offset: 0x4A79, size: 0x8, addend: 0x0, symName: __ZSt28__throw_bad_array_new_lengthB8ue170006v, symObjAddr: 0x1908, symBinAddr: 0x100006AB4, symSize: 0x34 }
  - { offsetInCU: 0x84B0, offset: 0x84B0, size: 0x8, addend: 0x0, symName: __ZN8KeyboardC2Eb, symObjAddr: 0x0, symBinAddr: 0x1000051AC, symSize: 0x44 }
  - { offsetInCU: 0x84E8, offset: 0x84E8, size: 0x8, addend: 0x0, symName: __ZNSt3__113unordered_mapIibNS_4hashIiEENS_8equal_toIiEENS_9allocatorINS_4pairIKibEEEEEC1B8ue170006Ev, symObjAddr: 0x44, symBinAddr: 0x1000051F0, symSize: 0x2C }
  - { offsetInCU: 0x8510, offset: 0x8510, size: 0x8, addend: 0x0, symName: __ZN8KeyboardC1Eb, symObjAddr: 0x70, symBinAddr: 0x10000521C, symSize: 0x40 }
  - { offsetInCU: 0x8548, offset: 0x8548, size: 0x8, addend: 0x0, symName: __ZN8Keyboard6updateERK9SDL_Event, symObjAddr: 0xB0, symBinAddr: 0x10000525C, symSize: 0xEC }
  - { offsetInCU: 0x857C, offset: 0x857C, size: 0x8, addend: 0x0, symName: __ZNSt3__113unordered_mapIibNS_4hashIiEENS_8equal_toIiEENS_9allocatorINS_4pairIKibEEEEEixERS7_, symObjAddr: 0x19C, symBinAddr: 0x100005348, symSize: 0x80 }
  - { offsetInCU: 0x85B1, offset: 0x85B1, size: 0x8, addend: 0x0, symName: __ZNK8Keyboard5queryEi, symObjAddr: 0x21C, symBinAddr: 0x1000053C8, symSize: 0x80 }
  - { offsetInCU: 0x85E5, offset: 0x85E5, size: 0x8, addend: 0x0, symName: __ZNKSt3__113unordered_mapIibNS_4hashIiEENS_8equal_toIiEENS_9allocatorINS_4pairIKibEEEEE5countB8ue170006ERS7_, symObjAddr: 0x29C, symBinAddr: 0x100005448, symSize: 0x2C }
  - { offsetInCU: 0x8618, offset: 0x8618, size: 0x8, addend: 0x0, symName: __ZNKSt3__113unordered_mapIibNS_4hashIiEENS_8equal_toIiEENS_9allocatorINS_4pairIKibEEEEE4findB8ue170006ERS7_, symObjAddr: 0x2C8, symBinAddr: 0x100005474, symSize: 0x40 }
  - { offsetInCU: 0x864B, offset: 0x864B, size: 0x8, addend: 0x0, symName: __ZNKSt3__125__hash_map_const_iteratorINS_21__hash_const_iteratorIPNS_11__hash_nodeINS_17__hash_value_typeIibEEPvEEEEEptB8ue170006Ev, symObjAddr: 0x308, symBinAddr: 0x1000054B4, symSize: 0x2C }
  - { offsetInCU: 0x866F, offset: 0x866F, size: 0x8, addend: 0x0, symName: __ZNSt3__113unordered_mapIibNS_4hashIiEENS_8equal_toIiEENS_9allocatorINS_4pairIKibEEEEEC2B8ue170006Ev, symObjAddr: 0x334, symBinAddr: 0x1000054E0, symSize: 0x2C }
  - { offsetInCU: 0x8697, offset: 0x8697, size: 0x8, addend: 0x0, symName: __ZNSt3__112__hash_tableINS_17__hash_value_typeIibEENS_22__unordered_map_hasherIiS2_NS_4hashIiEENS_8equal_toIiEELb1EEENS_21__unordered_map_equalIiS2_S7_S5_Lb1EEENS_9allocatorIS2_EEEC1Ev, symObjAddr: 0x360, symBinAddr: 0x10000550C, symSize: 0x2C }
  - { offsetInCU: 0x86C1, offset: 0x86C1, size: 0x8, addend: 0x0, symName: __ZNSt3__112__hash_tableINS_17__hash_value_typeIibEENS_22__unordered_map_hasherIiS2_NS_4hashIiEENS_8equal_toIiEELb1EEENS_21__unordered_map_equalIiS2_S7_S5_Lb1EEENS_9allocatorIS2_EEEC2Ev, symObjAddr: 0x38C, symBinAddr: 0x100005538, symSize: 0x7C }
  - { offsetInCU: 0x86EB, offset: 0x86EB, size: 0x8, addend: 0x0, symName: __ZNSt3__110unique_ptrIA_PNS_16__hash_node_baseIPNS_11__hash_nodeINS_17__hash_value_typeIibEEPvEEEENS_25__bucket_list_deallocatorINS_9allocatorIS9_EEEEEC1B8ue170006ILb1EvEEv, symObjAddr: 0x408, symBinAddr: 0x1000055B4, symSize: 0x2C }
  - { offsetInCU: 0x871E, offset: 0x871E, size: 0x8, addend: 0x0, symName: __ZNSt3__117__compressed_pairINS_16__hash_node_baseIPNS_11__hash_nodeINS_17__hash_value_typeIibEEPvEEEENS_9allocatorIS6_EEEC1B8ue170006ILb1EvEEv, symObjAddr: 0x434, symBinAddr: 0x1000055E0, symSize: 0x2C }
  - { offsetInCU: 0x875B, offset: 0x875B, size: 0x8, addend: 0x0, symName: __ZNSt3__117__compressed_pairImNS_22__unordered_map_hasherIiNS_17__hash_value_typeIibEENS_4hashIiEENS_8equal_toIiEELb1EEEEC1B8ue170006IiNS_18__default_init_tagEEEOT_OT0_, symObjAddr: 0x46C, symBinAddr: 0x100005618, symSize: 0x3C }
  - { offsetInCU: 0x87B6, offset: 0x87B6, size: 0x8, addend: 0x0, symName: __ZNSt3__117__compressed_pairIfNS_21__unordered_map_equalIiNS_17__hash_value_typeIibEENS_8equal_toIiEENS_4hashIiEELb1EEEEC1B8ue170006IfNS_18__default_init_tagEEEOT_OT0_, symObjAddr: 0x4A8, symBinAddr: 0x100005654, symSize: 0x3C }
  - { offsetInCU: 0x880C, offset: 0x880C, size: 0x8, addend: 0x0, symName: __ZNSt3__110unique_ptrIA_PNS_16__hash_node_baseIPNS_11__hash_nodeINS_17__hash_value_typeIibEEPvEEEENS_25__bucket_list_deallocatorINS_9allocatorIS9_EEEEEC2B8ue170006ILb1EvEEv, symObjAddr: 0x4E4, symBinAddr: 0x100005690, symSize: 0x3C }
  - { offsetInCU: 0x8844, offset: 0x8844, size: 0x8, addend: 0x0, symName: __ZNSt3__117__compressed_pairIPPNS_16__hash_node_baseIPNS_11__hash_nodeINS_17__hash_value_typeIibEEPvEEEENS_25__bucket_list_deallocatorINS_9allocatorIS9_EEEEEC1B8ue170006INS_16__value_init_tagESH_EEOT_OT0_, symObjAddr: 0x520, symBinAddr: 0x1000056CC, symSize: 0x3C }
  - { offsetInCU: 0x889A, offset: 0x889A, size: 0x8, addend: 0x0, symName: __ZNSt3__117__compressed_pairIPPNS_16__hash_node_baseIPNS_11__hash_nodeINS_17__hash_value_typeIibEEPvEEEENS_25__bucket_list_deallocatorINS_9allocatorIS9_EEEEEC2B8ue170006INS_16__value_init_tagESH_EEOT_OT0_, symObjAddr: 0x55C, symBinAddr: 0x100005708, symSize: 0x40 }
  - { offsetInCU: 0x88F0, offset: 0x88F0, size: 0x8, addend: 0x0, symName: __ZNSt3__122__compressed_pair_elemIPPNS_16__hash_node_baseIPNS_11__hash_nodeINS_17__hash_value_typeIibEEPvEEEELi0ELb0EEC2B8ue170006ENS_16__value_init_tagE, symObjAddr: 0x59C, symBinAddr: 0x100005748, symSize: 0x18 }
  - { offsetInCU: 0x8922, offset: 0x8922, size: 0x8, addend: 0x0, symName: __ZNSt3__122__compressed_pair_elemINS_25__bucket_list_deallocatorINS_9allocatorIPNS_16__hash_node_baseIPNS_11__hash_nodeINS_17__hash_value_typeIibEEPvEEEEEEEELi1ELb0EEC2B8ue170006ENS_16__value_init_tagE, symObjAddr: 0x5B4, symBinAddr: 0x100005760, symSize: 0x2C }
  - { offsetInCU: 0x8954, offset: 0x8954, size: 0x8, addend: 0x0, symName: __ZNSt3__125__bucket_list_deallocatorINS_9allocatorIPNS_16__hash_node_baseIPNS_11__hash_nodeINS_17__hash_value_typeIibEEPvEEEEEEEC1B8ue170006Ev, symObjAddr: 0x5E0, symBinAddr: 0x10000578C, symSize: 0x2C }
  - { offsetInCU: 0x897C, offset: 0x897C, size: 0x8, addend: 0x0, symName: __ZNSt3__125__bucket_list_deallocatorINS_9allocatorIPNS_16__hash_node_baseIPNS_11__hash_nodeINS_17__hash_value_typeIibEEPvEEEEEEEC2B8ue170006Ev, symObjAddr: 0x60C, symBinAddr: 0x1000057B8, symSize: 0x40 }
  - { offsetInCU: 0x89A4, offset: 0x89A4, size: 0x8, addend: 0x0, symName: __ZNSt3__117__compressed_pairImNS_9allocatorIPNS_16__hash_node_baseIPNS_11__hash_nodeINS_17__hash_value_typeIibEEPvEEEEEEEC1B8ue170006IiNS_18__default_init_tagEEEOT_OT0_, symObjAddr: 0x64C, symBinAddr: 0x1000057F8, symSize: 0x3C }
  - { offsetInCU: 0x89FA, offset: 0x89FA, size: 0x8, addend: 0x0, symName: __ZNSt3__117__compressed_pairImNS_9allocatorIPNS_16__hash_node_baseIPNS_11__hash_nodeINS_17__hash_value_typeIibEEPvEEEEEEEC2B8ue170006IiNS_18__default_init_tagEEEOT_OT0_, symObjAddr: 0x688, symBinAddr: 0x100005834, symSize: 0x40 }
  - { offsetInCU: 0x8A50, offset: 0x8A50, size: 0x8, addend: 0x0, symName: __ZNSt3__122__compressed_pair_elemImLi0ELb0EEC2B8ue170006IivEEOT_, symObjAddr: 0x6C8, symBinAddr: 0x100005874, symSize: 0x24 }
  - { offsetInCU: 0x8A90, offset: 0x8A90, size: 0x8, addend: 0x0, symName: __ZNSt3__122__compressed_pair_elemINS_9allocatorIPNS_16__hash_node_baseIPNS_11__hash_nodeINS_17__hash_value_typeIibEEPvEEEEEELi1ELb1EEC2B8ue170006ENS_18__default_init_tagE, symObjAddr: 0x6EC, symBinAddr: 0x100005898, symSize: 0x2C }
  - { offsetInCU: 0x8AC2, offset: 0x8AC2, size: 0x8, addend: 0x0, symName: __ZNSt3__19allocatorIPNS_16__hash_node_baseIPNS_11__hash_nodeINS_17__hash_value_typeIibEEPvEEEEEC2B8ue170006Ev, symObjAddr: 0x718, symBinAddr: 0x1000058C4, symSize: 0x2C }
  - { offsetInCU: 0x8AEA, offset: 0x8AEA, size: 0x8, addend: 0x0, symName: __ZNSt3__116__non_trivial_ifILb1ENS_9allocatorIPNS_16__hash_node_baseIPNS_11__hash_nodeINS_17__hash_value_typeIibEEPvEEEEEEEC2B8ue170006Ev, symObjAddr: 0x744, symBinAddr: 0x1000058F0, symSize: 0x14 }
  - { offsetInCU: 0x8B12, offset: 0x8B12, size: 0x8, addend: 0x0, symName: __ZNSt3__117__compressed_pairINS_16__hash_node_baseIPNS_11__hash_nodeINS_17__hash_value_typeIibEEPvEEEENS_9allocatorIS6_EEEC2B8ue170006ILb1EvEEv, symObjAddr: 0x758, symBinAddr: 0x100005904, symSize: 0x34 }
  - { offsetInCU: 0x8B45, offset: 0x8B45, size: 0x8, addend: 0x0, symName: __ZNSt3__122__compressed_pair_elemINS_16__hash_node_baseIPNS_11__hash_nodeINS_17__hash_value_typeIibEEPvEEEELi0ELb0EEC2B8ue170006ENS_16__value_init_tagE, symObjAddr: 0x78C, symBinAddr: 0x100005938, symSize: 0x2C }
  - { offsetInCU: 0x8B77, offset: 0x8B77, size: 0x8, addend: 0x0, symName: __ZNSt3__122__compressed_pair_elemINS_9allocatorINS_11__hash_nodeINS_17__hash_value_typeIibEEPvEEEELi1ELb1EEC2B8ue170006ENS_16__value_init_tagE, symObjAddr: 0x7B8, symBinAddr: 0x100005964, symSize: 0x2C }
  - { offsetInCU: 0x8BA9, offset: 0x8BA9, size: 0x8, addend: 0x0, symName: __ZNSt3__116__hash_node_baseIPNS_11__hash_nodeINS_17__hash_value_typeIibEEPvEEEC1B8ue170006Ev, symObjAddr: 0x7E4, symBinAddr: 0x100005990, symSize: 0x2C }
  - { offsetInCU: 0x8BD1, offset: 0x8BD1, size: 0x8, addend: 0x0, symName: __ZNSt3__116__hash_node_baseIPNS_11__hash_nodeINS_17__hash_value_typeIibEEPvEEEC2B8ue170006Ev, symObjAddr: 0x810, symBinAddr: 0x1000059BC, symSize: 0x18 }
  - { offsetInCU: 0x8BF9, offset: 0x8BF9, size: 0x8, addend: 0x0, symName: __ZNSt3__19allocatorINS_11__hash_nodeINS_17__hash_value_typeIibEEPvEEEC2B8ue170006Ev, symObjAddr: 0x828, symBinAddr: 0x1000059D4, symSize: 0x2C }
  - { offsetInCU: 0x8C21, offset: 0x8C21, size: 0x8, addend: 0x0, symName: __ZNSt3__116__non_trivial_ifILb1ENS_9allocatorINS_11__hash_nodeINS_17__hash_value_typeIibEEPvEEEEEC2B8ue170006Ev, symObjAddr: 0x854, symBinAddr: 0x100005A00, symSize: 0x14 }
  - { offsetInCU: 0x8C49, offset: 0x8C49, size: 0x8, addend: 0x0, symName: __ZNSt3__117__compressed_pairImNS_22__unordered_map_hasherIiNS_17__hash_value_typeIibEENS_4hashIiEENS_8equal_toIiEELb1EEEEC2B8ue170006IiNS_18__default_init_tagEEEOT_OT0_, symObjAddr: 0x868, symBinAddr: 0x100005A14, symSize: 0x40 }
  - { offsetInCU: 0x8C9F, offset: 0x8C9F, size: 0x8, addend: 0x0, symName: __ZNSt3__122__compressed_pair_elemINS_22__unordered_map_hasherIiNS_17__hash_value_typeIibEENS_4hashIiEENS_8equal_toIiEELb1EEELi1ELb1EEC2B8ue170006ENS_18__default_init_tagE, symObjAddr: 0x8A8, symBinAddr: 0x100005A54, symSize: 0x2C }
  - { offsetInCU: 0x8CD1, offset: 0x8CD1, size: 0x8, addend: 0x0, symName: __ZNSt3__122__unordered_map_hasherIiNS_17__hash_value_typeIibEENS_4hashIiEENS_8equal_toIiEELb1EEC2B8ue170006Ev, symObjAddr: 0x8D4, symBinAddr: 0x100005A80, symSize: 0x14 }
  - { offsetInCU: 0x8CF9, offset: 0x8CF9, size: 0x8, addend: 0x0, symName: __ZNSt3__117__compressed_pairIfNS_21__unordered_map_equalIiNS_17__hash_value_typeIibEENS_8equal_toIiEENS_4hashIiEELb1EEEEC2B8ue170006IfNS_18__default_init_tagEEEOT_OT0_, symObjAddr: 0x8E8, symBinAddr: 0x100005A94, symSize: 0x40 }
  - { offsetInCU: 0x8D4F, offset: 0x8D4F, size: 0x8, addend: 0x0, symName: __ZNSt3__122__compressed_pair_elemIfLi0ELb0EEC2B8ue170006IfvEEOT_, symObjAddr: 0x928, symBinAddr: 0x100005AD4, symSize: 0x24 }
  - { offsetInCU: 0x8D8F, offset: 0x8D8F, size: 0x8, addend: 0x0, symName: __ZNSt3__122__compressed_pair_elemINS_21__unordered_map_equalIiNS_17__hash_value_typeIibEENS_8equal_toIiEENS_4hashIiEELb1EEELi1ELb1EEC2B8ue170006ENS_18__default_init_tagE, symObjAddr: 0x94C, symBinAddr: 0x100005AF8, symSize: 0x2C }
  - { offsetInCU: 0x8DC1, offset: 0x8DC1, size: 0x8, addend: 0x0, symName: __ZNSt3__121__unordered_map_equalIiNS_17__hash_value_typeIibEENS_8equal_toIiEENS_4hashIiEELb1EEC2B8ue170006Ev, symObjAddr: 0x978, symBinAddr: 0x100005B24, symSize: 0x14 }
  - { offsetInCU: 0x8DFD, offset: 0x8DFD, size: 0x8, addend: 0x0, symName: __ZNSt3__112__hash_tableINS_17__hash_value_typeIibEENS_22__unordered_map_hasherIiS2_NS_4hashIiEENS_8equal_toIiEELb1EEENS_21__unordered_map_equalIiS2_S7_S5_Lb1EEENS_9allocatorIS2_EEE25__emplace_unique_key_argsIiJRKNS_21piecewise_construct_tENS_5tupleIJRKiEEENSI_IJEEEEEENS_4pairINS_15__hash_iteratorIPNS_11__hash_nodeIS2_PvEEEEbEERKT_DpOT0_, symObjAddr: 0x98C, symBinAddr: 0x100005B38, symSize: 0x4E8 }
  - { offsetInCU: 0x8F04, offset: 0x8F04, size: 0x8, addend: 0x0, symName: __ZNKSt3__115__hash_iteratorIPNS_11__hash_nodeINS_17__hash_value_typeIibEEPvEEEptB8ue170006Ev, symObjAddr: 0xEA4, symBinAddr: 0x100006050, symSize: 0x30 }
  - { offsetInCU: 0x8F28, offset: 0x8F28, size: 0x8, addend: 0x0, symName: __ZNSt3__117__hash_value_typeIibE11__get_valueB8ue170006Ev, symObjAddr: 0xED4, symBinAddr: 0x100006080, symSize: 0x24 }
  - { offsetInCU: 0x8F4C, offset: 0x8F4C, size: 0x8, addend: 0x0, symName: __ZNSt3__112__hash_tableINS_17__hash_value_typeIibEENS_22__unordered_map_hasherIiS2_NS_4hashIiEENS_8equal_toIiEELb1EEENS_21__unordered_map_equalIiS2_S7_S5_Lb1EEENS_9allocatorIS2_EEE13hash_functionB8ue170006Ev, symObjAddr: 0xEF8, symBinAddr: 0x1000060A4, symSize: 0x28 }
  - { offsetInCU: 0x8F70, offset: 0x8F70, size: 0x8, addend: 0x0, symName: __ZNKSt3__122__unordered_map_hasherIiNS_17__hash_value_typeIibEENS_4hashIiEENS_8equal_toIiEELb1EEclB8ue170006ERKi, symObjAddr: 0xF20, symBinAddr: 0x1000060CC, symSize: 0x30 }
  - { offsetInCU: 0x8FA3, offset: 0x8FA3, size: 0x8, addend: 0x0, symName: __ZNKSt3__112__hash_tableINS_17__hash_value_typeIibEENS_22__unordered_map_hasherIiS2_NS_4hashIiEENS_8equal_toIiEELb1EEENS_21__unordered_map_equalIiS2_S7_S5_Lb1EEENS_9allocatorIS2_EEE12bucket_countB8ue170006Ev, symObjAddr: 0xF50, symBinAddr: 0x1000060FC, symSize: 0x28 }
  - { offsetInCU: 0x8FC7, offset: 0x8FC7, size: 0x8, addend: 0x0, symName: __ZNKSt3__110unique_ptrIA_PNS_16__hash_node_baseIPNS_11__hash_nodeINS_17__hash_value_typeIibEEPvEEEENS_25__bucket_list_deallocatorINS_9allocatorIS9_EEEEEixB8ue170006Em, symObjAddr: 0x1010, symBinAddr: 0x1000061BC, symSize: 0x34 }
  - { offsetInCU: 0x8FFA, offset: 0x8FFA, size: 0x8, addend: 0x0, symName: __ZNKSt3__116__hash_node_baseIPNS_11__hash_nodeINS_17__hash_value_typeIibEEPvEEE6__hashB8ue170006Ev, symObjAddr: 0x1044, symBinAddr: 0x1000061F0, symSize: 0x18 }
  - { offsetInCU: 0x901E, offset: 0x901E, size: 0x8, addend: 0x0, symName: __ZNSt3__112__hash_tableINS_17__hash_value_typeIibEENS_22__unordered_map_hasherIiS2_NS_4hashIiEENS_8equal_toIiEELb1EEENS_21__unordered_map_equalIiS2_S7_S5_Lb1EEENS_9allocatorIS2_EEE6key_eqB8ue170006Ev, symObjAddr: 0x105C, symBinAddr: 0x100006208, symSize: 0x28 }
  - { offsetInCU: 0x9042, offset: 0x9042, size: 0x8, addend: 0x0, symName: __ZNKSt3__121__unordered_map_equalIiNS_17__hash_value_typeIibEENS_8equal_toIiEENS_4hashIiEELb1EEclB8ue170006ERKS2_RKi, symObjAddr: 0x1084, symBinAddr: 0x100006230, symSize: 0x48 }
  - { offsetInCU: 0x9084, offset: 0x9084, size: 0x8, addend: 0x0, symName: __ZNSt3__116__hash_node_baseIPNS_11__hash_nodeINS_17__hash_value_typeIibEEPvEEE8__upcastB8ue170006Ev, symObjAddr: 0x10CC, symBinAddr: 0x100006278, symSize: 0x24 }
  - { offsetInCU: 0x90A8, offset: 0x90A8, size: 0x8, addend: 0x0, symName: __ZNSt3__112__hash_tableINS_17__hash_value_typeIibEENS_22__unordered_map_hasherIiS2_NS_4hashIiEENS_8equal_toIiEELb1EEENS_21__unordered_map_equalIiS2_S7_S5_Lb1EEENS_9allocatorIS2_EEE21__construct_node_hashIRKNS_21piecewise_construct_tEJNS_5tupleIJRKiEEENSI_IJEEEEEENS_10unique_ptrINS_11__hash_nodeIS2_PvEENS_22__hash_node_destructorINSB_ISQ_EEEEEEmOT_DpOT0_, symObjAddr: 0x10F0, symBinAddr: 0x10000629C, symSize: 0x150 }
  - { offsetInCU: 0x9142, offset: 0x9142, size: 0x8, addend: 0x0, symName: __ZNSt3__112__hash_tableINS_17__hash_value_typeIibEENS_22__unordered_map_hasherIiS2_NS_4hashIiEENS_8equal_toIiEELb1EEENS_21__unordered_map_equalIiS2_S7_S5_Lb1EEENS_9allocatorIS2_EEE4sizeB8ue170006Ev, symObjAddr: 0x1240, symBinAddr: 0x1000063EC, symSize: 0x28 }
  - { offsetInCU: 0x9166, offset: 0x9166, size: 0x8, addend: 0x0, symName: __ZNSt3__112__hash_tableINS_17__hash_value_typeIibEENS_22__unordered_map_hasherIiS2_NS_4hashIiEENS_8equal_toIiEELb1EEENS_21__unordered_map_equalIiS2_S7_S5_Lb1EEENS_9allocatorIS2_EEE15max_load_factorB8ue170006Ev, symObjAddr: 0x1268, symBinAddr: 0x100006414, symSize: 0x28 }
  - { offsetInCU: 0x918A, offset: 0x918A, size: 0x8, addend: 0x0, symName: __ZNSt3__112__hash_tableINS_17__hash_value_typeIibEENS_22__unordered_map_hasherIiS2_NS_4hashIiEENS_8equal_toIiEELb1EEENS_21__unordered_map_equalIiS2_S7_S5_Lb1EEENS_9allocatorIS2_EEE15__rehash_uniqueB8ue170006Em, symObjAddr: 0x1290, symBinAddr: 0x10000643C, symSize: 0x2C }
  - { offsetInCU: 0x91BD, offset: 0x91BD, size: 0x8, addend: 0x0, symName: __Z4ceilB8ue170006f, symObjAddr: 0x1338, symBinAddr: 0x1000064E4, symSize: 0x18 }
  - { offsetInCU: 0x91EB, offset: 0x91EB, size: 0x8, addend: 0x0, symName: __ZNSt3__117__compressed_pairINS_16__hash_node_baseIPNS_11__hash_nodeINS_17__hash_value_typeIibEEPvEEEENS_9allocatorIS6_EEE5firstB8ue170006Ev, symObjAddr: 0x1350, symBinAddr: 0x1000064FC, symSize: 0x24 }
  - { offsetInCU: 0x920F, offset: 0x920F, size: 0x8, addend: 0x0, symName: __ZNSt3__116__hash_node_baseIPNS_11__hash_nodeINS_17__hash_value_typeIibEEPvEEE5__ptrB8ue170006Ev, symObjAddr: 0x1374, symBinAddr: 0x100006520, symSize: 0x24 }
  - { offsetInCU: 0x9233, offset: 0x9233, size: 0x8, addend: 0x0, symName: __ZNKSt3__110unique_ptrINS_11__hash_nodeINS_17__hash_value_typeIibEEPvEENS_22__hash_node_destructorINS_9allocatorIS5_EEEEEptB8ue170006Ev, symObjAddr: 0x1398, symBinAddr: 0x100006544, symSize: 0x28 }
  - { offsetInCU: 0x9257, offset: 0x9257, size: 0x8, addend: 0x0, symName: __ZNKSt3__110unique_ptrINS_11__hash_nodeINS_17__hash_value_typeIibEEPvEENS_22__hash_node_destructorINS_9allocatorIS5_EEEEE3getB8ue170006Ev, symObjAddr: 0x13C0, symBinAddr: 0x10000656C, symSize: 0x28 }
  - { offsetInCU: 0x927B, offset: 0x927B, size: 0x8, addend: 0x0, symName: __ZNSt3__110unique_ptrINS_11__hash_nodeINS_17__hash_value_typeIibEEPvEENS_22__hash_node_destructorINS_9allocatorIS5_EEEEE7releaseB8ue170006Ev, symObjAddr: 0x13E8, symBinAddr: 0x100006594, symSize: 0x44 }
  - { offsetInCU: 0x92AE, offset: 0x92AE, size: 0x8, addend: 0x0, symName: __ZNSt3__110unique_ptrINS_11__hash_nodeINS_17__hash_value_typeIibEEPvEENS_22__hash_node_destructorINS_9allocatorIS5_EEEEED1B8ue170006Ev, symObjAddr: 0x142C, symBinAddr: 0x1000065D8, symSize: 0x2C }
  - { offsetInCU: 0x92D6, offset: 0x92D6, size: 0x8, addend: 0x0, symName: __ZNSt3__115__hash_iteratorIPNS_11__hash_nodeINS_17__hash_value_typeIibEEPvEEEC1B8ue170006EPNS_16__hash_node_baseIS6_EE, symObjAddr: 0x1458, symBinAddr: 0x100006604, symSize: 0x34 }
  - { offsetInCU: 0x9317, offset: 0x9317, size: 0x8, addend: 0x0, symName: __ZNSt3__14pairINS_15__hash_iteratorIPNS_11__hash_nodeINS_17__hash_value_typeIibEEPvEEEEbEC1B8ue170006IS8_RbLS5_0EEEOT_OT0_, symObjAddr: 0x148C, symBinAddr: 0x100006638, symSize: 0x3C }
  - { offsetInCU: 0x9373, offset: 0x9373, size: 0x8, addend: 0x0, symName: __ZNSt3__117__compressed_pairImNS_22__unordered_map_hasherIiNS_17__hash_value_typeIibEENS_4hashIiEENS_8equal_toIiEELb1EEEE6secondB8ue170006Ev, symObjAddr: 0x14C8, symBinAddr: 0x100006674, symSize: 0x24 }
  - { offsetInCU: 0x9397, offset: 0x9397, size: 0x8, addend: 0x0, symName: __ZNSt3__122__compressed_pair_elemINS_22__unordered_map_hasherIiNS_17__hash_value_typeIibEENS_4hashIiEENS_8equal_toIiEELb1EEELi1ELb1EE5__getB8ue170006Ev, symObjAddr: 0x14EC, symBinAddr: 0x100006698, symSize: 0x14 }
  - { offsetInCU: 0x93BB, offset: 0x93BB, size: 0x8, addend: 0x0, symName: __ZNKSt3__14hashIiEclB8ue170006Ei, symObjAddr: 0x1500, symBinAddr: 0x1000066AC, symSize: 0x18 }
  - { offsetInCU: 0x93EE, offset: 0x93EE, size: 0x8, addend: 0x0, symName: __ZNKSt3__110unique_ptrIA_PNS_16__hash_node_baseIPNS_11__hash_nodeINS_17__hash_value_typeIibEEPvEEEENS_25__bucket_list_deallocatorINS_9allocatorIS9_EEEEE11get_deleterB8ue170006Ev, symObjAddr: 0x1518, symBinAddr: 0x1000066C4, symSize: 0x24 }
  - { offsetInCU: 0x9412, offset: 0x9412, size: 0x8, addend: 0x0, symName: __ZNKSt3__125__bucket_list_deallocatorINS_9allocatorIPNS_16__hash_node_baseIPNS_11__hash_nodeINS_17__hash_value_typeIibEEPvEEEEEEE4sizeB8ue170006Ev, symObjAddr: 0x153C, symBinAddr: 0x1000066E8, symSize: 0x28 }
  - { offsetInCU: 0x9436, offset: 0x9436, size: 0x8, addend: 0x0, symName: __ZNKSt3__117__compressed_pairIPPNS_16__hash_node_baseIPNS_11__hash_nodeINS_17__hash_value_typeIibEEPvEEEENS_25__bucket_list_deallocatorINS_9allocatorIS9_EEEEE6secondB8ue170006Ev, symObjAddr: 0x1564, symBinAddr: 0x100006710, symSize: 0x28 }
  - { offsetInCU: 0x945A, offset: 0x945A, size: 0x8, addend: 0x0, symName: __ZNKSt3__122__compressed_pair_elemINS_25__bucket_list_deallocatorINS_9allocatorIPNS_16__hash_node_baseIPNS_11__hash_nodeINS_17__hash_value_typeIibEEPvEEEEEEEELi1ELb0EE5__getB8ue170006Ev, symObjAddr: 0x158C, symBinAddr: 0x100006738, symSize: 0x14 }
  - { offsetInCU: 0x947E, offset: 0x947E, size: 0x8, addend: 0x0, symName: __ZNKSt3__117__compressed_pairImNS_9allocatorIPNS_16__hash_node_baseIPNS_11__hash_nodeINS_17__hash_value_typeIibEEPvEEEEEEE5firstB8ue170006Ev, symObjAddr: 0x15A0, symBinAddr: 0x10000674C, symSize: 0x24 }
  - { offsetInCU: 0x94A2, offset: 0x94A2, size: 0x8, addend: 0x0, symName: __ZNKSt3__122__compressed_pair_elemImLi0ELb0EE5__getB8ue170006Ev, symObjAddr: 0x15C4, symBinAddr: 0x100006770, symSize: 0x14 }
  - { offsetInCU: 0x94C6, offset: 0x94C6, size: 0x8, addend: 0x0, symName: __ZNKSt3__117__compressed_pairIPPNS_16__hash_node_baseIPNS_11__hash_nodeINS_17__hash_value_typeIibEEPvEEEENS_25__bucket_list_deallocatorINS_9allocatorIS9_EEEEE5firstB8ue170006Ev, symObjAddr: 0x15D8, symBinAddr: 0x100006784, symSize: 0x24 }
  - { offsetInCU: 0x94EA, offset: 0x94EA, size: 0x8, addend: 0x0, symName: __ZNKSt3__122__compressed_pair_elemIPPNS_16__hash_node_baseIPNS_11__hash_nodeINS_17__hash_value_typeIibEEPvEEEELi0ELb0EE5__getB8ue170006Ev, symObjAddr: 0x15FC, symBinAddr: 0x1000067A8, symSize: 0x14 }
  - { offsetInCU: 0x950E, offset: 0x950E, size: 0x8, addend: 0x0, symName: __ZNSt3__117__compressed_pairIfNS_21__unordered_map_equalIiNS_17__hash_value_typeIibEENS_8equal_toIiEENS_4hashIiEELb1EEEE6secondB8ue170006Ev, symObjAddr: 0x1610, symBinAddr: 0x1000067BC, symSize: 0x24 }
  - { offsetInCU: 0x9532, offset: 0x9532, size: 0x8, addend: 0x0, symName: __ZNSt3__122__compressed_pair_elemINS_21__unordered_map_equalIiNS_17__hash_value_typeIibEENS_8equal_toIiEENS_4hashIiEELb1EEELi1ELb1EE5__getB8ue170006Ev, symObjAddr: 0x1634, symBinAddr: 0x1000067E0, symSize: 0x14 }
  - { offsetInCU: 0x9556, offset: 0x9556, size: 0x8, addend: 0x0, symName: __ZNKSt3__18equal_toIiEclB8ue170006ERKiS3_, symObjAddr: 0x1648, symBinAddr: 0x1000067F4, symSize: 0x34 }
  - { offsetInCU: 0x9598, offset: 0x9598, size: 0x8, addend: 0x0, symName: __ZNKSt3__117__hash_value_typeIibE11__get_valueB8ue170006Ev, symObjAddr: 0x167C, symBinAddr: 0x100006828, symSize: 0x24 }
  - { offsetInCU: 0x95BC, offset: 0x95BC, size: 0x8, addend: 0x0, symName: __ZNSt3__114pointer_traitsIPNS_16__hash_node_baseIPNS_11__hash_nodeINS_17__hash_value_typeIibEEPvEEEEE10pointer_toB8ue170006ERS8_, symObjAddr: 0x16D8, symBinAddr: 0x100006884, symSize: 0x14 }
  - { offsetInCU: 0x95DE, offset: 0x95DE, size: 0x8, addend: 0x0, symName: __ZNSt3__112__hash_tableINS_17__hash_value_typeIibEENS_22__unordered_map_hasherIiS2_NS_4hashIiEENS_8equal_toIiEELb1EEENS_21__unordered_map_equalIiS2_S7_S5_Lb1EEENS_9allocatorIS2_EEE12__node_allocB8ue170006Ev, symObjAddr: 0x16EC, symBinAddr: 0x100006898, symSize: 0x28 }
  - { offsetInCU: 0x9602, offset: 0x9602, size: 0x8, addend: 0x0, symName: __ZNSt3__116allocator_traitsINS_9allocatorINS_11__hash_nodeINS_17__hash_value_typeIibEEPvEEEEE8allocateB8ue170006ERS7_m, symObjAddr: 0x1714, symBinAddr: 0x1000068C0, symSize: 0x2C }
  - { offsetInCU: 0x9634, offset: 0x9634, size: 0x8, addend: 0x0, symName: __ZNSt3__122__hash_node_destructorINS_9allocatorINS_11__hash_nodeINS_17__hash_value_typeIibEEPvEEEEEC1B8ue170006ERS7_b, symObjAddr: 0x1740, symBinAddr: 0x1000068EC, symSize: 0x48 }
  - { offsetInCU: 0x967F, offset: 0x967F, size: 0x8, addend: 0x0, symName: __ZNSt3__110unique_ptrINS_11__hash_nodeINS_17__hash_value_typeIibEEPvEENS_22__hash_node_destructorINS_9allocatorIS5_EEEEEC1B8ue170006ILb1EvEEPS5_NS_16__dependent_typeINS_27__unique_ptr_deleter_sfinaeIS9_EEXT_EE20__good_rval_ref_typeE, symObjAddr: 0x1788, symBinAddr: 0x100006934, symSize: 0x3C }
  - { offsetInCU: 0x96CE, offset: 0x96CE, size: 0x8, addend: 0x0, symName: __ZNSt3__116allocator_traitsINS_9allocatorINS_11__hash_nodeINS_17__hash_value_typeIibEEPvEEEEE9constructB8ue170006INS_4pairIKibEEJRKNS_21piecewise_construct_tENS_5tupleIJRSB_EEENSG_IJEEEEvEEvRS7_PT_DpOT0_, symObjAddr: 0x17C4, symBinAddr: 0x100006970, symSize: 0x44 }
  - { offsetInCU: 0x974C, offset: 0x974C, size: 0x8, addend: 0x0, symName: __ZNSt3__122__hash_key_value_typesINS_17__hash_value_typeIibEEE9__get_ptrB8ue170006ERS2_, symObjAddr: 0x1808, symBinAddr: 0x1000069B4, symSize: 0x24 }
  - { offsetInCU: 0x976E, offset: 0x976E, size: 0x8, addend: 0x0, symName: __ZNSt3__110unique_ptrINS_11__hash_nodeINS_17__hash_value_typeIibEEPvEENS_22__hash_node_destructorINS_9allocatorIS5_EEEEE11get_deleterB8ue170006Ev, symObjAddr: 0x182C, symBinAddr: 0x1000069D8, symSize: 0x24 }
  - { offsetInCU: 0x9792, offset: 0x9792, size: 0x8, addend: 0x0, symName: __ZNSt3__117__compressed_pairINS_16__hash_node_baseIPNS_11__hash_nodeINS_17__hash_value_typeIibEEPvEEEENS_9allocatorIS6_EEE6secondB8ue170006Ev, symObjAddr: 0x1850, symBinAddr: 0x1000069FC, symSize: 0x24 }
  - { offsetInCU: 0x97B6, offset: 0x97B6, size: 0x8, addend: 0x0, symName: __ZNSt3__122__compressed_pair_elemINS_9allocatorINS_11__hash_nodeINS_17__hash_value_typeIibEEPvEEEELi1ELb1EE5__getB8ue170006Ev, symObjAddr: 0x1874, symBinAddr: 0x100006A20, symSize: 0x14 }
  - { offsetInCU: 0x97DA, offset: 0x97DA, size: 0x8, addend: 0x0, symName: __ZNSt3__19allocatorINS_11__hash_nodeINS_17__hash_value_typeIibEEPvEEE8allocateB8ue170006Em, symObjAddr: 0x1888, symBinAddr: 0x100006A34, symSize: 0x5C }
  - { offsetInCU: 0x9816, offset: 0x9816, size: 0x8, addend: 0x0, symName: __ZNSt3__116allocator_traitsINS_9allocatorINS_11__hash_nodeINS_17__hash_value_typeIibEEPvEEEEE8max_sizeB8ue170006IS7_vEEmRKS7_, symObjAddr: 0x18E4, symBinAddr: 0x100006A90, symSize: 0x24 }
  - { offsetInCU: 0x9843, offset: 0x9843, size: 0x8, addend: 0x0, symName: __ZNKSt3__19allocatorINS_11__hash_nodeINS_17__hash_value_typeIibEEPvEEE8max_sizeB8ue170006Ev, symObjAddr: 0x199C, symBinAddr: 0x100006B48, symSize: 0x18 }
  - { offsetInCU: 0x9867, offset: 0x9867, size: 0x8, addend: 0x0, symName: __ZNSt3__122__hash_node_destructorINS_9allocatorINS_11__hash_nodeINS_17__hash_value_typeIibEEPvEEEEEC2B8ue170006ERS7_b, symObjAddr: 0x1A24, symBinAddr: 0x100006BD0, symSize: 0x38 }
  - { offsetInCU: 0x98AD, offset: 0x98AD, size: 0x8, addend: 0x0, symName: __ZNSt3__110unique_ptrINS_11__hash_nodeINS_17__hash_value_typeIibEEPvEENS_22__hash_node_destructorINS_9allocatorIS5_EEEEEC2B8ue170006ILb1EvEEPS5_NS_16__dependent_typeINS_27__unique_ptr_deleter_sfinaeIS9_EEXT_EE20__good_rval_ref_typeE, symObjAddr: 0x1A5C, symBinAddr: 0x100006C08, symSize: 0x48 }
  - { offsetInCU: 0x98FC, offset: 0x98FC, size: 0x8, addend: 0x0, symName: __ZNSt3__117__compressed_pairIPNS_11__hash_nodeINS_17__hash_value_typeIibEEPvEENS_22__hash_node_destructorINS_9allocatorIS5_EEEEEC1B8ue170006IRS6_SA_EEOT_OT0_, symObjAddr: 0x1AA4, symBinAddr: 0x100006C50, symSize: 0x3C }
  - { offsetInCU: 0x9952, offset: 0x9952, size: 0x8, addend: 0x0, symName: __ZNSt3__117__compressed_pairIPNS_11__hash_nodeINS_17__hash_value_typeIibEEPvEENS_22__hash_node_destructorINS_9allocatorIS5_EEEEEC2B8ue170006IRS6_SA_EEOT_OT0_, symObjAddr: 0x1AE0, symBinAddr: 0x100006C8C, symSize: 0x48 }
  - { offsetInCU: 0x99A8, offset: 0x99A8, size: 0x8, addend: 0x0, symName: __ZNSt3__122__compressed_pair_elemIPNS_11__hash_nodeINS_17__hash_value_typeIibEEPvEELi0ELb0EEC2B8ue170006IRS6_vEEOT_, symObjAddr: 0x1B28, symBinAddr: 0x100006CD4, symSize: 0x24 }
  - { offsetInCU: 0x99E8, offset: 0x99E8, size: 0x8, addend: 0x0, symName: __ZNSt3__122__compressed_pair_elemINS_22__hash_node_destructorINS_9allocatorINS_11__hash_nodeINS_17__hash_value_typeIibEEPvEEEEEELi1ELb0EEC2B8ue170006IS9_vEEOT_, symObjAddr: 0x1B4C, symBinAddr: 0x100006CF8, symSize: 0x24 }
  - { offsetInCU: 0x9A28, offset: 0x9A28, size: 0x8, addend: 0x0, symName: __ZNSt3__19allocatorINS_11__hash_nodeINS_17__hash_value_typeIibEEPvEEE9constructB8ue170006INS_4pairIKibEEJRKNS_21piecewise_construct_tENS_5tupleIJRS9_EEENSE_IJEEEEEEvPT_DpOT0_, symObjAddr: 0x1B70, symBinAddr: 0x100006D1C, symSize: 0x44 }
  - { offsetInCU: 0x9AA2, offset: 0x9AA2, size: 0x8, addend: 0x0, symName: __ZNSt3__14pairIKibEC1B8ue170006IJRS1_EJEEENS_21piecewise_construct_tENS_5tupleIJDpT_EEENS6_IJDpT0_EEE, symObjAddr: 0x1BB4, symBinAddr: 0x100006D60, symSize: 0x44 }
  - { offsetInCU: 0x9B07, offset: 0x9B07, size: 0x8, addend: 0x0, symName: __ZNSt3__14pairIKibEC1B8ue170006IJRS1_EJEJLm0EEJEEENS_21piecewise_construct_tERNS_5tupleIJDpT_EEERNS6_IJDpT0_EEENS_15__tuple_indicesIJXspT1_EEEENSF_IJXspT2_EEEE, symObjAddr: 0x1BF8, symBinAddr: 0x100006DA4, symSize: 0x3C }
  - { offsetInCU: 0x9B92, offset: 0x9B92, size: 0x8, addend: 0x0, symName: __ZNSt3__14pairIKibEC2B8ue170006IJRS1_EJEJLm0EEJEEENS_21piecewise_construct_tERNS_5tupleIJDpT_EEERNS6_IJDpT0_EEENS_15__tuple_indicesIJXspT1_EEEENSF_IJXspT2_EEEE, symObjAddr: 0x1C34, symBinAddr: 0x100006DE0, symSize: 0x48 }
  - { offsetInCU: 0x9C1D, offset: 0x9C1D, size: 0x8, addend: 0x0, symName: __ZNSt3__112__tuple_leafILm0ERKiLb0EE3getB8ue170006Ev, symObjAddr: 0x1CA0, symBinAddr: 0x100006E4C, symSize: 0x18 }
  - { offsetInCU: 0x9C41, offset: 0x9C41, size: 0x8, addend: 0x0, symName: __ZNSt3__117__compressed_pairIPNS_11__hash_nodeINS_17__hash_value_typeIibEEPvEENS_22__hash_node_destructorINS_9allocatorIS5_EEEEE6secondB8ue170006Ev, symObjAddr: 0x1CB8, symBinAddr: 0x100006E64, symSize: 0x28 }
  - { offsetInCU: 0x9C65, offset: 0x9C65, size: 0x8, addend: 0x0, symName: __ZNSt3__122__compressed_pair_elemINS_22__hash_node_destructorINS_9allocatorINS_11__hash_nodeINS_17__hash_value_typeIibEEPvEEEEEELi1ELb0EE5__getB8ue170006Ev, symObjAddr: 0x1CE0, symBinAddr: 0x100006E8C, symSize: 0x14 }
  - { offsetInCU: 0x9C89, offset: 0x9C89, size: 0x8, addend: 0x0, symName: __ZNSt3__117__compressed_pairImNS_22__unordered_map_hasherIiNS_17__hash_value_typeIibEENS_4hashIiEENS_8equal_toIiEELb1EEEE5firstB8ue170006Ev, symObjAddr: 0x1CF4, symBinAddr: 0x100006EA0, symSize: 0x24 }
  - { offsetInCU: 0x9CAD, offset: 0x9CAD, size: 0x8, addend: 0x0, symName: __ZNSt3__122__compressed_pair_elemImLi0ELb0EE5__getB8ue170006Ev, symObjAddr: 0x1D18, symBinAddr: 0x100006EC4, symSize: 0x14 }
  - { offsetInCU: 0x9CD1, offset: 0x9CD1, size: 0x8, addend: 0x0, symName: __ZNSt3__117__compressed_pairIfNS_21__unordered_map_equalIiNS_17__hash_value_typeIibEENS_8equal_toIiEENS_4hashIiEELb1EEEE5firstB8ue170006Ev, symObjAddr: 0x1D2C, symBinAddr: 0x100006ED8, symSize: 0x24 }
  - { offsetInCU: 0x9CF5, offset: 0x9CF5, size: 0x8, addend: 0x0, symName: __ZNSt3__122__compressed_pair_elemIfLi0ELb0EE5__getB8ue170006Ev, symObjAddr: 0x1D50, symBinAddr: 0x100006EFC, symSize: 0x14 }
  - { offsetInCU: 0x9D19, offset: 0x9D19, size: 0x8, addend: 0x0, symName: __ZNSt3__112__hash_tableINS_17__hash_value_typeIibEENS_22__unordered_map_hasherIiS2_NS_4hashIiEENS_8equal_toIiEELb1EEENS_21__unordered_map_equalIiS2_S7_S5_Lb1EEENS_9allocatorIS2_EEE8__rehashILb1EEEvm, symObjAddr: 0x1D64, symBinAddr: 0x100006F10, symSize: 0x1A8 }
  - { offsetInCU: 0x9D67, offset: 0x9D67, size: 0x8, addend: 0x0, symName: __ZNSt3__112__hash_tableINS_17__hash_value_typeIibEENS_22__unordered_map_hasherIiS2_NS_4hashIiEENS_8equal_toIiEELb1EEENS_21__unordered_map_equalIiS2_S7_S5_Lb1EEENS_9allocatorIS2_EEE11__do_rehashILb1EEEvm, symObjAddr: 0x1F0C, symBinAddr: 0x1000070B8, symSize: 0x288 }
  - { offsetInCU: 0x9E48, offset: 0x9E48, size: 0x8, addend: 0x0, symName: __ZNSt3__110unique_ptrIA_PNS_16__hash_node_baseIPNS_11__hash_nodeINS_17__hash_value_typeIibEEPvEEEENS_25__bucket_list_deallocatorINS_9allocatorIS9_EEEEE11get_deleterB8ue170006Ev, symObjAddr: 0x2200, symBinAddr: 0x1000073AC, symSize: 0x24 }
  - { offsetInCU: 0x9E6C, offset: 0x9E6C, size: 0x8, addend: 0x0, symName: __ZNSt3__125__bucket_list_deallocatorINS_9allocatorIPNS_16__hash_node_baseIPNS_11__hash_nodeINS_17__hash_value_typeIibEEPvEEEEEEE7__allocB8ue170006Ev, symObjAddr: 0x2224, symBinAddr: 0x1000073D0, symSize: 0x24 }
  - { offsetInCU: 0x9E90, offset: 0x9E90, size: 0x8, addend: 0x0, symName: __ZNSt3__110unique_ptrIA_PNS_16__hash_node_baseIPNS_11__hash_nodeINS_17__hash_value_typeIibEEPvEEEENS_25__bucket_list_deallocatorINS_9allocatorIS9_EEEEE5resetB8ue170006IPS9_EENS_9enable_ifIXsr28_CheckArrayPointerConversionIT_EE5valueEvE4typeESJ_, symObjAddr: 0x2248, symBinAddr: 0x1000073F4, symSize: 0x78 }
  - { offsetInCU: 0x9EDB, offset: 0x9EDB, size: 0x8, addend: 0x0, symName: __ZNSt3__116allocator_traitsINS_9allocatorIPNS_16__hash_node_baseIPNS_11__hash_nodeINS_17__hash_value_typeIibEEPvEEEEEEE8allocateB8ue170006ERSB_m, symObjAddr: 0x22C0, symBinAddr: 0x10000746C, symSize: 0x2C }
  - { offsetInCU: 0x9F0D, offset: 0x9F0D, size: 0x8, addend: 0x0, symName: __ZNSt3__125__bucket_list_deallocatorINS_9allocatorIPNS_16__hash_node_baseIPNS_11__hash_nodeINS_17__hash_value_typeIibEEPvEEEEEEE4sizeB8ue170006Ev, symObjAddr: 0x22EC, symBinAddr: 0x100007498, symSize: 0x24 }
  - { offsetInCU: 0x9F31, offset: 0x9F31, size: 0x8, addend: 0x0, symName: __ZNSt3__117__compressed_pairIPPNS_16__hash_node_baseIPNS_11__hash_nodeINS_17__hash_value_typeIibEEPvEEEENS_25__bucket_list_deallocatorINS_9allocatorIS9_EEEEE6secondB8ue170006Ev, symObjAddr: 0x2310, symBinAddr: 0x1000074BC, symSize: 0x28 }
  - { offsetInCU: 0x9F55, offset: 0x9F55, size: 0x8, addend: 0x0, symName: __ZNSt3__122__compressed_pair_elemINS_25__bucket_list_deallocatorINS_9allocatorIPNS_16__hash_node_baseIPNS_11__hash_nodeINS_17__hash_value_typeIibEEPvEEEEEEEELi1ELb0EE5__getB8ue170006Ev, symObjAddr: 0x2338, symBinAddr: 0x1000074E4, symSize: 0x14 }
  - { offsetInCU: 0x9F79, offset: 0x9F79, size: 0x8, addend: 0x0, symName: __ZNSt3__117__compressed_pairImNS_9allocatorIPNS_16__hash_node_baseIPNS_11__hash_nodeINS_17__hash_value_typeIibEEPvEEEEEEE6secondB8ue170006Ev, symObjAddr: 0x234C, symBinAddr: 0x1000074F8, symSize: 0x24 }
  - { offsetInCU: 0x9F9D, offset: 0x9F9D, size: 0x8, addend: 0x0, symName: __ZNSt3__122__compressed_pair_elemINS_9allocatorIPNS_16__hash_node_baseIPNS_11__hash_nodeINS_17__hash_value_typeIibEEPvEEEEEELi1ELb1EE5__getB8ue170006Ev, symObjAddr: 0x2370, symBinAddr: 0x10000751C, symSize: 0x14 }
  - { offsetInCU: 0x9FC1, offset: 0x9FC1, size: 0x8, addend: 0x0, symName: __ZNSt3__117__compressed_pairIPPNS_16__hash_node_baseIPNS_11__hash_nodeINS_17__hash_value_typeIibEEPvEEEENS_25__bucket_list_deallocatorINS_9allocatorIS9_EEEEE5firstB8ue170006Ev, symObjAddr: 0x2384, symBinAddr: 0x100007530, symSize: 0x24 }
  - { offsetInCU: 0x9FE5, offset: 0x9FE5, size: 0x8, addend: 0x0, symName: __ZNSt3__125__bucket_list_deallocatorINS_9allocatorIPNS_16__hash_node_baseIPNS_11__hash_nodeINS_17__hash_value_typeIibEEPvEEEEEEEclB8ue170006EPSA_, symObjAddr: 0x23A8, symBinAddr: 0x100007554, symSize: 0x58 }
  - { offsetInCU: 0xA018, offset: 0xA018, size: 0x8, addend: 0x0, symName: __ZNSt3__122__compressed_pair_elemIPPNS_16__hash_node_baseIPNS_11__hash_nodeINS_17__hash_value_typeIibEEPvEEEELi0ELb0EE5__getB8ue170006Ev, symObjAddr: 0x2400, symBinAddr: 0x1000075AC, symSize: 0x14 }
  - { offsetInCU: 0xA03C, offset: 0xA03C, size: 0x8, addend: 0x0, symName: __ZNSt3__116allocator_traitsINS_9allocatorIPNS_16__hash_node_baseIPNS_11__hash_nodeINS_17__hash_value_typeIibEEPvEEEEEEE10deallocateB8ue170006ERSB_PSA_m, symObjAddr: 0x2414, symBinAddr: 0x1000075C0, symSize: 0x34 }
  - { offsetInCU: 0xA07D, offset: 0xA07D, size: 0x8, addend: 0x0, symName: __ZNSt3__19allocatorIPNS_16__hash_node_baseIPNS_11__hash_nodeINS_17__hash_value_typeIibEEPvEEEEE10deallocateB8ue170006EPS9_m, symObjAddr: 0x2448, symBinAddr: 0x1000075F4, symSize: 0x40 }
  - { offsetInCU: 0xA0BD, offset: 0xA0BD, size: 0x8, addend: 0x0, symName: __ZNSt3__19allocatorIPNS_16__hash_node_baseIPNS_11__hash_nodeINS_17__hash_value_typeIibEEPvEEEEE8allocateB8ue170006Em, symObjAddr: 0x2590, symBinAddr: 0x10000773C, symSize: 0x58 }
  - { offsetInCU: 0xA0F9, offset: 0xA0F9, size: 0x8, addend: 0x0, symName: __ZNSt3__116allocator_traitsINS_9allocatorIPNS_16__hash_node_baseIPNS_11__hash_nodeINS_17__hash_value_typeIibEEPvEEEEEEE8max_sizeB8ue170006ISB_vEEmRKSB_, symObjAddr: 0x25E8, symBinAddr: 0x100007794, symSize: 0x24 }
  - { offsetInCU: 0xA126, offset: 0xA126, size: 0x8, addend: 0x0, symName: __ZNKSt3__19allocatorIPNS_16__hash_node_baseIPNS_11__hash_nodeINS_17__hash_value_typeIibEEPvEEEEE8max_sizeB8ue170006Ev, symObjAddr: 0x260C, symBinAddr: 0x1000077B8, symSize: 0x14 }
  - { offsetInCU: 0xA14A, offset: 0xA14A, size: 0x8, addend: 0x0, symName: __ZNSt3__117__compressed_pairImNS_9allocatorIPNS_16__hash_node_baseIPNS_11__hash_nodeINS_17__hash_value_typeIibEEPvEEEEEEE5firstB8ue170006Ev, symObjAddr: 0x2620, symBinAddr: 0x1000077CC, symSize: 0x24 }
  - { offsetInCU: 0xA178, offset: 0xA178, size: 0x8, addend: 0x0, symName: __ZNKSt3__16__lessIvvEclB8ue170006ImmEEbRKT_RKT0_, symObjAddr: 0x26B4, symBinAddr: 0x100007860, symSize: 0x34 }
  - { offsetInCU: 0xA1CA, offset: 0xA1CA, size: 0x8, addend: 0x0, symName: __ZNSt3__122__compressed_pair_elemINS_16__hash_node_baseIPNS_11__hash_nodeINS_17__hash_value_typeIibEEPvEEEELi0ELb0EE5__getB8ue170006Ev, symObjAddr: 0x26E8, symBinAddr: 0x100007894, symSize: 0x14 }
  - { offsetInCU: 0xA1EE, offset: 0xA1EE, size: 0x8, addend: 0x0, symName: __ZNKSt3__117__compressed_pairIPNS_11__hash_nodeINS_17__hash_value_typeIibEEPvEENS_22__hash_node_destructorINS_9allocatorIS5_EEEEE5firstB8ue170006Ev, symObjAddr: 0x26FC, symBinAddr: 0x1000078A8, symSize: 0x24 }
  - { offsetInCU: 0xA212, offset: 0xA212, size: 0x8, addend: 0x0, symName: __ZNKSt3__122__compressed_pair_elemIPNS_11__hash_nodeINS_17__hash_value_typeIibEEPvEELi0ELb0EE5__getB8ue170006Ev, symObjAddr: 0x2720, symBinAddr: 0x1000078CC, symSize: 0x14 }
  - { offsetInCU: 0xA236, offset: 0xA236, size: 0x8, addend: 0x0, symName: __ZNSt3__117__compressed_pairIPNS_11__hash_nodeINS_17__hash_value_typeIibEEPvEENS_22__hash_node_destructorINS_9allocatorIS5_EEEEE5firstB8ue170006Ev, symObjAddr: 0x2734, symBinAddr: 0x1000078E0, symSize: 0x24 }
  - { offsetInCU: 0xA25A, offset: 0xA25A, size: 0x8, addend: 0x0, symName: __ZNSt3__122__compressed_pair_elemIPNS_11__hash_nodeINS_17__hash_value_typeIibEEPvEELi0ELb0EE5__getB8ue170006Ev, symObjAddr: 0x2758, symBinAddr: 0x100007904, symSize: 0x14 }
  - { offsetInCU: 0xA27E, offset: 0xA27E, size: 0x8, addend: 0x0, symName: __ZNSt3__110unique_ptrINS_11__hash_nodeINS_17__hash_value_typeIibEEPvEENS_22__hash_node_destructorINS_9allocatorIS5_EEEEED2B8ue170006Ev, symObjAddr: 0x276C, symBinAddr: 0x100007918, symSize: 0x30 }
  - { offsetInCU: 0xA2A6, offset: 0xA2A6, size: 0x8, addend: 0x0, symName: __ZNSt3__110unique_ptrINS_11__hash_nodeINS_17__hash_value_typeIibEEPvEENS_22__hash_node_destructorINS_9allocatorIS5_EEEEE5resetB8ue170006EPS5_, symObjAddr: 0x279C, symBinAddr: 0x100007948, symSize: 0x78 }
  - { offsetInCU: 0xA2E8, offset: 0xA2E8, size: 0x8, addend: 0x0, symName: __ZNSt3__122__hash_node_destructorINS_9allocatorINS_11__hash_nodeINS_17__hash_value_typeIibEEPvEEEEEclB8ue170006EPS6_, symObjAddr: 0x2814, symBinAddr: 0x1000079C0, symSize: 0x98 }
  - { offsetInCU: 0xA31B, offset: 0xA31B, size: 0x8, addend: 0x0, symName: __ZNSt3__116allocator_traitsINS_9allocatorINS_11__hash_nodeINS_17__hash_value_typeIibEEPvEEEEE7destroyB8ue170006INS_4pairIKibEEvvEEvRS7_PT_, symObjAddr: 0x28AC, symBinAddr: 0x100007A58, symSize: 0x14 }
  - { offsetInCU: 0xA354, offset: 0xA354, size: 0x8, addend: 0x0, symName: __ZNSt3__116allocator_traitsINS_9allocatorINS_11__hash_nodeINS_17__hash_value_typeIibEEPvEEEEE10deallocateB8ue170006ERS7_PS6_m, symObjAddr: 0x28C0, symBinAddr: 0x100007A6C, symSize: 0x34 }
  - { offsetInCU: 0xA395, offset: 0xA395, size: 0x8, addend: 0x0, symName: __ZNSt3__19allocatorINS_11__hash_nodeINS_17__hash_value_typeIibEEPvEEE10deallocateB8ue170006EPS5_m, symObjAddr: 0x28F4, symBinAddr: 0x100007AA0, symSize: 0x44 }
  - { offsetInCU: 0xA3D5, offset: 0xA3D5, size: 0x8, addend: 0x0, symName: __ZNSt3__115__hash_iteratorIPNS_11__hash_nodeINS_17__hash_value_typeIibEEPvEEEC2B8ue170006EPNS_16__hash_node_baseIS6_EE, symObjAddr: 0x2938, symBinAddr: 0x100007AE4, symSize: 0x20 }
  - { offsetInCU: 0xA40C, offset: 0xA40C, size: 0x8, addend: 0x0, symName: __ZNSt3__14pairINS_15__hash_iteratorIPNS_11__hash_nodeINS_17__hash_value_typeIibEEPvEEEEbEC2B8ue170006IS8_RbLS5_0EEEOT_OT0_, symObjAddr: 0x2958, symBinAddr: 0x100007B04, symSize: 0x38 }
  - { offsetInCU: 0xA468, offset: 0xA468, size: 0x8, addend: 0x0, symName: __ZNSt3__15tupleIJRKiEEC1B8ue170006INS_4_AndELi0EEES2_, symObjAddr: 0x2990, symBinAddr: 0x100007B3C, symSize: 0x34 }
  - { offsetInCU: 0xA4AE, offset: 0xA4AE, size: 0x8, addend: 0x0, symName: __ZNSt3__15tupleIJRKiEEC2B8ue170006INS_4_AndELi0EEES2_, symObjAddr: 0x29C4, symBinAddr: 0x100007B70, symSize: 0x34 }
  - { offsetInCU: 0xA4F4, offset: 0xA4F4, size: 0x8, addend: 0x0, symName: __ZNSt3__112__tuple_implINS_15__tuple_indicesIJLm0EEEEJRKiEEC1B8ue170006IJLm0EEJS4_EJEJEJS4_EEENS1_IJXspT_EEEENS_13__tuple_typesIJDpT0_EEENS1_IJXspT1_EEEENS8_IJDpT2_EEEDpOT3_, symObjAddr: 0x29F8, symBinAddr: 0x100007BA4, symSize: 0x34 }
  - { offsetInCU: 0xA583, offset: 0xA583, size: 0x8, addend: 0x0, symName: __ZNSt3__112__tuple_implINS_15__tuple_indicesIJLm0EEEEJRKiEEC2B8ue170006IJLm0EEJS4_EJEJEJS4_EEENS1_IJXspT_EEEENS_13__tuple_typesIJDpT0_EEENS1_IJXspT1_EEEENS8_IJDpT2_EEEDpOT3_, symObjAddr: 0x2A2C, symBinAddr: 0x100007BD8, symSize: 0x34 }
  - { offsetInCU: 0xA612, offset: 0xA612, size: 0x8, addend: 0x0, symName: __ZNSt3__112__tuple_leafILm0ERKiLb0EEC2B8ue170006IS2_vEEOT_, symObjAddr: 0x2A60, symBinAddr: 0x100007C0C, symSize: 0x20 }
  - { offsetInCU: 0xA653, offset: 0xA653, size: 0x8, addend: 0x0, symName: __ZNSt3__114pointer_traitsIPNS_17__hash_value_typeIibEEE10pointer_toB8ue170006ERS2_, symObjAddr: 0x2A80, symBinAddr: 0x100007C2C, symSize: 0x14 }
  - { offsetInCU: 0xA675, offset: 0xA675, size: 0x8, addend: 0x0, symName: __ZNKSt3__112__hash_tableINS_17__hash_value_typeIibEENS_22__unordered_map_hasherIiS2_NS_4hashIiEENS_8equal_toIiEELb1EEENS_21__unordered_map_equalIiS2_S7_S5_Lb1EEENS_9allocatorIS2_EEE14__count_uniqueIiEEmRKT_, symObjAddr: 0x2ACC, symBinAddr: 0x100007C78, symSize: 0x64 }
  - { offsetInCU: 0xA6B3, offset: 0xA6B3, size: 0x8, addend: 0x0, symName: __ZNKSt3__112__hash_tableINS_17__hash_value_typeIibEENS_22__unordered_map_hasherIiS2_NS_4hashIiEENS_8equal_toIiEELb1EEENS_21__unordered_map_equalIiS2_S7_S5_Lb1EEENS_9allocatorIS2_EEE4findIiEENS_21__hash_const_iteratorIPNS_11__hash_nodeIS2_PvEEEERKT_, symObjAddr: 0x2B64, symBinAddr: 0x100007D10, symSize: 0x1B8 }
  - { offsetInCU: 0xA73B, offset: 0xA73B, size: 0x8, addend: 0x0, symName: __ZNKSt3__112__hash_tableINS_17__hash_value_typeIibEENS_22__unordered_map_hasherIiS2_NS_4hashIiEENS_8equal_toIiEELb1EEENS_21__unordered_map_equalIiS2_S7_S5_Lb1EEENS_9allocatorIS2_EEE3endEv, symObjAddr: 0x2D1C, symBinAddr: 0x100007EC8, symSize: 0x2C }
  - { offsetInCU: 0xA761, offset: 0xA761, size: 0x8, addend: 0x0, symName: __ZNKSt3__112__hash_tableINS_17__hash_value_typeIibEENS_22__unordered_map_hasherIiS2_NS_4hashIiEENS_8equal_toIiEELb1EEENS_21__unordered_map_equalIiS2_S7_S5_Lb1EEENS_9allocatorIS2_EEE13hash_functionB8ue170006Ev, symObjAddr: 0x2D78, symBinAddr: 0x100007F24, symSize: 0x28 }
  - { offsetInCU: 0xA785, offset: 0xA785, size: 0x8, addend: 0x0, symName: __ZNKSt3__112__hash_tableINS_17__hash_value_typeIibEENS_22__unordered_map_hasherIiS2_NS_4hashIiEENS_8equal_toIiEELb1EEENS_21__unordered_map_equalIiS2_S7_S5_Lb1EEENS_9allocatorIS2_EEE6key_eqB8ue170006Ev, symObjAddr: 0x2DA0, symBinAddr: 0x100007F4C, symSize: 0x28 }
  - { offsetInCU: 0xA7A9, offset: 0xA7A9, size: 0x8, addend: 0x0, symName: __ZNSt3__121__hash_const_iteratorIPNS_11__hash_nodeINS_17__hash_value_typeIibEEPvEEEC1B8ue170006EPNS_16__hash_node_baseIS6_EE, symObjAddr: 0x2DC8, symBinAddr: 0x100007F74, symSize: 0x34 }
  - { offsetInCU: 0xA7E0, offset: 0xA7E0, size: 0x8, addend: 0x0, symName: __ZNKSt3__117__compressed_pairImNS_22__unordered_map_hasherIiNS_17__hash_value_typeIibEENS_4hashIiEENS_8equal_toIiEELb1EEEE6secondB8ue170006Ev, symObjAddr: 0x2DFC, symBinAddr: 0x100007FA8, symSize: 0x24 }
  - { offsetInCU: 0xA804, offset: 0xA804, size: 0x8, addend: 0x0, symName: __ZNKSt3__122__compressed_pair_elemINS_22__unordered_map_hasherIiNS_17__hash_value_typeIibEENS_4hashIiEENS_8equal_toIiEELb1EEELi1ELb1EE5__getB8ue170006Ev, symObjAddr: 0x2E20, symBinAddr: 0x100007FCC, symSize: 0x14 }
  - { offsetInCU: 0xA828, offset: 0xA828, size: 0x8, addend: 0x0, symName: __ZNKSt3__117__compressed_pairIfNS_21__unordered_map_equalIiNS_17__hash_value_typeIibEENS_8equal_toIiEENS_4hashIiEELb1EEEE6secondB8ue170006Ev, symObjAddr: 0x2E34, symBinAddr: 0x100007FE0, symSize: 0x24 }
  - { offsetInCU: 0xA84C, offset: 0xA84C, size: 0x8, addend: 0x0, symName: __ZNKSt3__122__compressed_pair_elemINS_21__unordered_map_equalIiNS_17__hash_value_typeIibEENS_8equal_toIiEENS_4hashIiEELb1EEELi1ELb1EE5__getB8ue170006Ev, symObjAddr: 0x2E58, symBinAddr: 0x100008004, symSize: 0x14 }
  - { offsetInCU: 0xA870, offset: 0xA870, size: 0x8, addend: 0x0, symName: __ZNSt3__121__hash_const_iteratorIPNS_11__hash_nodeINS_17__hash_value_typeIibEEPvEEEC2B8ue170006EPNS_16__hash_node_baseIS6_EE, symObjAddr: 0x2E6C, symBinAddr: 0x100008018, symSize: 0x20 }
  - { offsetInCU: 0xA8A7, offset: 0xA8A7, size: 0x8, addend: 0x0, symName: __ZNSt3__125__hash_map_const_iteratorINS_21__hash_const_iteratorIPNS_11__hash_nodeINS_17__hash_value_typeIibEEPvEEEEEC1B8ue170006ES8_, symObjAddr: 0x2E8C, symBinAddr: 0x100008038, symSize: 0x34 }
  - { offsetInCU: 0xA8DE, offset: 0xA8DE, size: 0x8, addend: 0x0, symName: __ZNSt3__125__hash_map_const_iteratorINS_21__hash_const_iteratorIPNS_11__hash_nodeINS_17__hash_value_typeIibEEPvEEEEEC2B8ue170006ES8_, symObjAddr: 0x2EC0, symBinAddr: 0x10000806C, symSize: 0x20 }
  - { offsetInCU: 0xA915, offset: 0xA915, size: 0x8, addend: 0x0, symName: __ZNSt3__114pointer_traitsIPKNS_4pairIKibEEE10pointer_toB8ue170006ERS4_, symObjAddr: 0x2EE0, symBinAddr: 0x10000808C, symSize: 0x14 }
  - { offsetInCU: 0xA937, offset: 0xA937, size: 0x8, addend: 0x0, symName: __ZNKSt3__121__hash_const_iteratorIPNS_11__hash_nodeINS_17__hash_value_typeIibEEPvEEEptB8ue170006Ev, symObjAddr: 0x2EF4, symBinAddr: 0x1000080A0, symSize: 0x30 }
  - { offsetInCU: 0xA95B, offset: 0xA95B, size: 0x8, addend: 0x0, symName: __ZNSt3__114pointer_traitsIPKNS_17__hash_value_typeIibEEE10pointer_toB8ue170006ERS3_, symObjAddr: 0x2F24, symBinAddr: 0x1000080D0, symSize: 0x14 }
  - { offsetInCU: 0x26, offset: 0xAAA2, size: 0x8, addend: 0x0, symName: __Z22SDL_DrawCircle_OutlineP12SDL_Rendereriii, symObjAddr: 0x0, symBinAddr: 0x1000080E4, symSize: 0x208 }
  - { offsetInCU: 0x16C, offset: 0xABE8, size: 0x8, addend: 0x0, symName: __Z22SDL_DrawCircle_OutlineP12SDL_Rendereriii, symObjAddr: 0x0, symBinAddr: 0x1000080E4, symSize: 0x208 }
  - { offsetInCU: 0x212, offset: 0xAC8E, size: 0x8, addend: 0x0, symName: __Z14SDL_DrawCircleP12SDL_Rendereriii, symObjAddr: 0x208, symBinAddr: 0x1000082EC, symSize: 0x74 }
  - { offsetInCU: 0x3C42, offset: 0xE958, size: 0x8, addend: 0x0, symName: __ZNSt3__124__put_character_sequenceB8ue170006IcNS_11char_traitsIcEEEERNS_13basic_ostreamIT_T0_EES7_PKS4_m, symObjAddr: 0x6CC, symBinAddr: 0x100008A20, symSize: 0x1EC }
  - { offsetInCU: 0x48EC, offset: 0xF602, size: 0x8, addend: 0x0, symName: __ZNSt3__1lsB8ue170006INS_11char_traitsIcEEEERNS_13basic_ostreamIcT_EES6_PKc, symObjAddr: 0x684, symBinAddr: 0x1000089D8, symSize: 0x48 }
  - { offsetInCU: 0x4932, offset: 0xF648, size: 0x8, addend: 0x0, symName: __ZNSt3__116__pad_and_outputB8ue170006IcNS_11char_traitsIcEEEENS_19ostreambuf_iteratorIT_T0_EES6_PKS4_S8_S8_RNS_8ios_baseES4_, symObjAddr: 0x908, symBinAddr: 0x100008C5C, symSize: 0x240 }
  - { offsetInCU: 0x4A01, offset: 0xF717, size: 0x8, addend: 0x0, symName: __ZNSt3__112__to_addressB8ue170006IcEEPT_S2_, symObjAddr: 0xE70, symBinAddr: 0x1000091C4, symSize: 0x14 }
  - { offsetInCU: 0x4A69, offset: 0xF77F, size: 0x8, addend: 0x0, symName: __ZNSt3__19use_facetB8ue170006INS_5ctypeIcEEEERKT_RKNS_6localeE, symObjAddr: 0x1128, symBinAddr: 0x10000947C, symSize: 0x2C }
  - { offsetInCU: 0x4F4F, offset: 0xFC65, size: 0x8, addend: 0x0, symName: __ZNSt3__118__constexpr_strlenB8ue170006EPKc, symObjAddr: 0x11C0, symBinAddr: 0x100009514, symSize: 0x24 }
  - { offsetInCU: 0x4F7B, offset: 0xFC91, size: 0x8, addend: 0x0, symName: __ZNSt3__1lsB8ue170006INS_11char_traitsIcEEEERNS_13basic_ostreamIcT_EES6_c, symObjAddr: 0x11E4, symBinAddr: 0x100009538, symSize: 0x34 }
  - { offsetInCU: 0x4FC1, offset: 0xFCD7, size: 0x8, addend: 0x0, symName: __ZNSt3__112__to_addressB8ue170006IKcEEPT_S3_, symObjAddr: 0x1240, symBinAddr: 0x100009594, symSize: 0x14 }
  - { offsetInCU: 0x541D, offset: 0x10133, size: 0x8, addend: 0x0, symName: __ZN6Logger4mainEv, symObjAddr: 0x17C, symBinAddr: 0x1000084DC, symSize: 0xA4 }
  - { offsetInCU: 0x543C, offset: 0x10152, size: 0x8, addend: 0x0, symName: __ZZN6Logger4mainEvE8instance, symObjAddr: 0x1430, symBinAddr: 0x10003C000, symSize: 0x0 }
  - { offsetInCU: 0x76EA, offset: 0x12400, size: 0x8, addend: 0x0, symName: __ZN6WindowC2ENSt3__112basic_stringIcNS0_11char_traitsIcEENS0_9allocatorIcEEEEmm, symObjAddr: 0x0, symBinAddr: 0x100008360, symSize: 0x17C }
  - { offsetInCU: 0x773F, offset: 0x12455, size: 0x8, addend: 0x0, symName: __ZN6LoggerlsIPKcEERS_T_, symObjAddr: 0x220, symBinAddr: 0x100008580, symSize: 0x4C }
  - { offsetInCU: 0x777A, offset: 0x12490, size: 0x8, addend: 0x0, symName: __ZN6LoggerlsIcEERS_T_, symObjAddr: 0x26C, symBinAddr: 0x1000085CC, symSize: 0x4C }
  - { offsetInCU: 0x77B5, offset: 0x124CB, size: 0x8, addend: 0x0, symName: __ZNKSt3__112basic_stringIcNS_11char_traitsIcEENS_9allocatorIcEEE5c_strB8ue170006Ev, symObjAddr: 0x2B8, symBinAddr: 0x100008618, symSize: 0x24 }
  - { offsetInCU: 0x77D9, offset: 0x124EF, size: 0x8, addend: 0x0, symName: __ZN6WindowC1ENSt3__112basic_stringIcNS0_11char_traitsIcEENS0_9allocatorIcEEEEmm, symObjAddr: 0x2DC, symBinAddr: 0x10000863C, symSize: 0x44 }
  - { offsetInCU: 0x782E, offset: 0x12544, size: 0x8, addend: 0x0, symName: __ZN6WindowD2Ev, symObjAddr: 0x320, symBinAddr: 0x100008680, symSize: 0xA4 }
  - { offsetInCU: 0x7858, offset: 0x1256E, size: 0x8, addend: 0x0, symName: __ZN6WindowD1Ev, symObjAddr: 0x3D0, symBinAddr: 0x100008724, symSize: 0x2C }
  - { offsetInCU: 0x7882, offset: 0x12598, size: 0x8, addend: 0x0, symName: __ZN6Window11attach_viewEP4View, symObjAddr: 0x3FC, symBinAddr: 0x100008750, symSize: 0x6C }
  - { offsetInCU: 0x78B6, offset: 0x125CC, size: 0x8, addend: 0x0, symName: __ZN6Window7presentEv, symObjAddr: 0x468, symBinAddr: 0x1000087BC, symSize: 0x184 }
  - { offsetInCU: 0x792A, offset: 0x12640, size: 0x8, addend: 0x0, symName: __ZNK6Window5frameEv, symObjAddr: 0x5EC, symBinAddr: 0x100008940, symSize: 0x14 }
  - { offsetInCU: 0x7951, offset: 0x12667, size: 0x8, addend: 0x0, symName: __ZN6Window5delayEj, symObjAddr: 0x600, symBinAddr: 0x100008954, symSize: 0x28 }
  - { offsetInCU: 0x7985, offset: 0x1269B, size: 0x8, addend: 0x0, symName: __ZN6LoggerC1ERNSt3__113basic_ostreamIcNS0_11char_traitsIcEEEE, symObjAddr: 0x628, symBinAddr: 0x10000897C, symSize: 0x34 }
  - { offsetInCU: 0x79BB, offset: 0x126D1, size: 0x8, addend: 0x0, symName: __ZN6LoggerC2ERNSt3__113basic_ostreamIcNS0_11char_traitsIcEEEE, symObjAddr: 0x65C, symBinAddr: 0x1000089B0, symSize: 0x28 }
  - { offsetInCU: 0x79F1, offset: 0x12707, size: 0x8, addend: 0x0, symName: __ZNSt3__111char_traitsIcE6lengthB8ue170006EPKc, symObjAddr: 0x8B8, symBinAddr: 0x100008C0C, symSize: 0x34 }
  - { offsetInCU: 0x7A32, offset: 0x12748, size: 0x8, addend: 0x0, symName: __ZNKSt3__113basic_ostreamIcNS_11char_traitsIcEEE6sentrycvbB8ue170006Ev, symObjAddr: 0x8EC, symBinAddr: 0x100008C40, symSize: 0x1C }
  - { offsetInCU: 0x7A55, offset: 0x1276B, size: 0x8, addend: 0x0, symName: __ZNSt3__119ostreambuf_iteratorIcNS_11char_traitsIcEEEC1B8ue170006ERNS_13basic_ostreamIcS2_EE, symObjAddr: 0xB48, symBinAddr: 0x100008E9C, symSize: 0x34 }
  - { offsetInCU: 0x7A8C, offset: 0x127A2, size: 0x8, addend: 0x0, symName: __ZNKSt3__18ios_base5flagsB8ue170006Ev, symObjAddr: 0xB7C, symBinAddr: 0x100008ED0, symSize: 0x18 }
  - { offsetInCU: 0x7AB3, offset: 0x127C9, size: 0x8, addend: 0x0, symName: __ZNKSt3__19basic_iosIcNS_11char_traitsIcEEE4fillB8ue170006Ev, symObjAddr: 0xB94, symBinAddr: 0x100008EE8, symSize: 0x64 }
  - { offsetInCU: 0x7AD9, offset: 0x127EF, size: 0x8, addend: 0x0, symName: __ZNKSt3__119ostreambuf_iteratorIcNS_11char_traitsIcEEE6failedB8ue170006Ev, symObjAddr: 0xBF8, symBinAddr: 0x100008F4C, symSize: 0x24 }
  - { offsetInCU: 0x7AFC, offset: 0x12812, size: 0x8, addend: 0x0, symName: __ZNSt3__19basic_iosIcNS_11char_traitsIcEEE8setstateB8ue170006Ej, symObjAddr: 0xC1C, symBinAddr: 0x100008F70, symSize: 0x2C }
  - { offsetInCU: 0x7B30, offset: 0x12846, size: 0x8, addend: 0x0, symName: __ZNKSt3__18ios_base5widthB8ue170006Ev, symObjAddr: 0xC48, symBinAddr: 0x100008F9C, symSize: 0x18 }
  - { offsetInCU: 0x7B56, offset: 0x1286C, size: 0x8, addend: 0x0, symName: __ZNSt3__115basic_streambufIcNS_11char_traitsIcEEE5sputnB8ue170006EPKcl, symObjAddr: 0xC60, symBinAddr: 0x100008FB4, symSize: 0x3C }
  - { offsetInCU: 0x7B96, offset: 0x128AC, size: 0x8, addend: 0x0, symName: __ZNSt3__112basic_stringIcNS_11char_traitsIcEENS_9allocatorIcEEEC1B8ue170006Emc, symObjAddr: 0xC9C, symBinAddr: 0x100008FF0, symSize: 0x3C }
  - { offsetInCU: 0x7BDC, offset: 0x128F2, size: 0x8, addend: 0x0, symName: __ZNSt3__112basic_stringIcNS_11char_traitsIcEENS_9allocatorIcEEE4dataB8ue170006Ev, symObjAddr: 0xCD8, symBinAddr: 0x10000902C, symSize: 0x28 }
  - { offsetInCU: 0x7C01, offset: 0x12917, size: 0x8, addend: 0x0, symName: __ZNSt3__18ios_base5widthB8ue170006El, symObjAddr: 0xD00, symBinAddr: 0x100009054, symSize: 0x2C }
  - { offsetInCU: 0x7C45, offset: 0x1295B, size: 0x8, addend: 0x0, symName: __ZNSt3__112basic_stringIcNS_11char_traitsIcEENS_9allocatorIcEEEC2B8ue170006Emc, symObjAddr: 0xD2C, symBinAddr: 0x100009080, symSize: 0x4C }
  - { offsetInCU: 0x7C90, offset: 0x129A6, size: 0x8, addend: 0x0, symName: __ZNSt3__117__compressed_pairINS_12basic_stringIcNS_11char_traitsIcEENS_9allocatorIcEEE5__repES5_EC1B8ue170006INS_18__default_init_tagESA_EEOT_OT0_, symObjAddr: 0xD78, symBinAddr: 0x1000090CC, symSize: 0x3C }
  - { offsetInCU: 0x7CE6, offset: 0x129FC, size: 0x8, addend: 0x0, symName: __ZNSt3__117__compressed_pairINS_12basic_stringIcNS_11char_traitsIcEENS_9allocatorIcEEE5__repES5_EC2B8ue170006INS_18__default_init_tagESA_EEOT_OT0_, symObjAddr: 0xDB4, symBinAddr: 0x100009108, symSize: 0x3C }
  - { offsetInCU: 0x7D3C, offset: 0x12A52, size: 0x8, addend: 0x0, symName: __ZNSt3__122__compressed_pair_elemINS_12basic_stringIcNS_11char_traitsIcEENS_9allocatorIcEEE5__repELi0ELb0EEC2B8ue170006ENS_18__default_init_tagE, symObjAddr: 0xDF0, symBinAddr: 0x100009144, symSize: 0x14 }
  - { offsetInCU: 0x7D6E, offset: 0x12A84, size: 0x8, addend: 0x0, symName: __ZNSt3__122__compressed_pair_elemINS_9allocatorIcEELi1ELb1EEC2B8ue170006ENS_18__default_init_tagE, symObjAddr: 0xE04, symBinAddr: 0x100009158, symSize: 0x2C }
  - { offsetInCU: 0x7DA0, offset: 0x12AB6, size: 0x8, addend: 0x0, symName: __ZNSt3__19allocatorIcEC2B8ue170006Ev, symObjAddr: 0xE30, symBinAddr: 0x100009184, symSize: 0x2C }
  - { offsetInCU: 0x7DC8, offset: 0x12ADE, size: 0x8, addend: 0x0, symName: __ZNSt3__116__non_trivial_ifILb1ENS_9allocatorIcEEEC2B8ue170006Ev, symObjAddr: 0xE5C, symBinAddr: 0x1000091B0, symSize: 0x14 }
  - { offsetInCU: 0x7DF0, offset: 0x12B06, size: 0x8, addend: 0x0, symName: __ZNSt3__112basic_stringIcNS_11char_traitsIcEENS_9allocatorIcEEE13__get_pointerB8ue170006Ev, symObjAddr: 0xE84, symBinAddr: 0x1000091D8, symSize: 0x54 }
  - { offsetInCU: 0x7E14, offset: 0x12B2A, size: 0x8, addend: 0x0, symName: __ZNKSt3__112basic_stringIcNS_11char_traitsIcEENS_9allocatorIcEEE9__is_longB8ue170006Ev, symObjAddr: 0xED8, symBinAddr: 0x10000922C, symSize: 0x38 }
  - { offsetInCU: 0x7E38, offset: 0x12B4E, size: 0x8, addend: 0x0, symName: __ZNSt3__112basic_stringIcNS_11char_traitsIcEENS_9allocatorIcEEE18__get_long_pointerB8ue170006Ev, symObjAddr: 0xF10, symBinAddr: 0x100009264, symSize: 0x28 }
  - { offsetInCU: 0x7E5C, offset: 0x12B72, size: 0x8, addend: 0x0, symName: __ZNSt3__112basic_stringIcNS_11char_traitsIcEENS_9allocatorIcEEE19__get_short_pointerB8ue170006Ev, symObjAddr: 0xF38, symBinAddr: 0x10000928C, symSize: 0x28 }
  - { offsetInCU: 0x7E80, offset: 0x12B96, size: 0x8, addend: 0x0, symName: __ZNKSt3__117__compressed_pairINS_12basic_stringIcNS_11char_traitsIcEENS_9allocatorIcEEE5__repES5_E5firstB8ue170006Ev, symObjAddr: 0xF60, symBinAddr: 0x1000092B4, symSize: 0x24 }
  - { offsetInCU: 0x7EA5, offset: 0x12BBB, size: 0x8, addend: 0x0, symName: __ZNKSt3__122__compressed_pair_elemINS_12basic_stringIcNS_11char_traitsIcEENS_9allocatorIcEEE5__repELi0ELb0EE5__getB8ue170006Ev, symObjAddr: 0xF84, symBinAddr: 0x1000092D8, symSize: 0x14 }
  - { offsetInCU: 0x7EC8, offset: 0x12BDE, size: 0x8, addend: 0x0, symName: __ZNSt3__117__compressed_pairINS_12basic_stringIcNS_11char_traitsIcEENS_9allocatorIcEEE5__repES5_E5firstB8ue170006Ev, symObjAddr: 0xF98, symBinAddr: 0x1000092EC, symSize: 0x24 }
  - { offsetInCU: 0x7EED, offset: 0x12C03, size: 0x8, addend: 0x0, symName: __ZNSt3__122__compressed_pair_elemINS_12basic_stringIcNS_11char_traitsIcEENS_9allocatorIcEEE5__repELi0ELb0EE5__getB8ue170006Ev, symObjAddr: 0xFBC, symBinAddr: 0x100009310, symSize: 0x14 }
  - { offsetInCU: 0x7F11, offset: 0x12C27, size: 0x8, addend: 0x0, symName: __ZNSt3__114pointer_traitsIPcE10pointer_toB8ue170006ERc, symObjAddr: 0xFD0, symBinAddr: 0x100009324, symSize: 0x14 }
  - { offsetInCU: 0x7F32, offset: 0x12C48, size: 0x8, addend: 0x0, symName: __ZNSt3__119ostreambuf_iteratorIcNS_11char_traitsIcEEEC2B8ue170006ERNS_13basic_ostreamIcS2_EE, symObjAddr: 0xFE4, symBinAddr: 0x100009338, symSize: 0x54 }
  - { offsetInCU: 0x7F69, offset: 0x12C7F, size: 0x8, addend: 0x0, symName: __ZNKSt3__19basic_iosIcNS_11char_traitsIcEEE5rdbufB8ue170006Ev, symObjAddr: 0x1038, symBinAddr: 0x10000938C, symSize: 0x24 }
  - { offsetInCU: 0x7F8F, offset: 0x12CA5, size: 0x8, addend: 0x0, symName: __ZNKSt3__18ios_base5rdbufB8ue170006Ev, symObjAddr: 0x105C, symBinAddr: 0x1000093B0, symSize: 0x18 }
  - { offsetInCU: 0x7FB3, offset: 0x12CC9, size: 0x8, addend: 0x0, symName: __ZNSt3__111char_traitsIcE11eq_int_typeB8ue170006Eii, symObjAddr: 0x1074, symBinAddr: 0x1000093C8, symSize: 0x28 }
  - { offsetInCU: 0x7FE5, offset: 0x12CFB, size: 0x8, addend: 0x0, symName: __ZNSt3__111char_traitsIcE3eofB8ue170006Ev, symObjAddr: 0x109C, symBinAddr: 0x1000093F0, symSize: 0x8 }
  - { offsetInCU: 0x7FF9, offset: 0x12D0F, size: 0x8, addend: 0x0, symName: __ZNKSt3__19basic_iosIcNS_11char_traitsIcEEE5widenB8ue170006Ec, symObjAddr: 0x10A4, symBinAddr: 0x1000093F8, symSize: 0x84 }
  - { offsetInCU: 0x8064, offset: 0x12D7A, size: 0x8, addend: 0x0, symName: __ZNKSt3__15ctypeIcE5widenB8ue170006Ec, symObjAddr: 0x1154, symBinAddr: 0x1000094A8, symSize: 0x38 }
  - { offsetInCU: 0x8098, offset: 0x12DAE, size: 0x8, addend: 0x0, symName: __ZNSt3__18ios_base8setstateB8ue170006Ej, symObjAddr: 0x118C, symBinAddr: 0x1000094E0, symSize: 0x34 }
  - { offsetInCU: 0x80CC, offset: 0x12DE2, size: 0x8, addend: 0x0, symName: __ZNKSt3__112basic_stringIcNS_11char_traitsIcEENS_9allocatorIcEEE4dataB8ue170006Ev, symObjAddr: 0x1218, symBinAddr: 0x10000956C, symSize: 0x28 }
  - { offsetInCU: 0x80F0, offset: 0x12E06, size: 0x8, addend: 0x0, symName: __ZNKSt3__112basic_stringIcNS_11char_traitsIcEENS_9allocatorIcEEE13__get_pointerB8ue170006Ev, symObjAddr: 0x1254, symBinAddr: 0x1000095A8, symSize: 0x54 }
  - { offsetInCU: 0x8114, offset: 0x12E2A, size: 0x8, addend: 0x0, symName: __ZNKSt3__112basic_stringIcNS_11char_traitsIcEENS_9allocatorIcEEE18__get_long_pointerB8ue170006Ev, symObjAddr: 0x12A8, symBinAddr: 0x1000095FC, symSize: 0x28 }
  - { offsetInCU: 0x8138, offset: 0x12E4E, size: 0x8, addend: 0x0, symName: __ZNKSt3__112basic_stringIcNS_11char_traitsIcEENS_9allocatorIcEEE19__get_short_pointerB8ue170006Ev, symObjAddr: 0x12D0, symBinAddr: 0x100009624, symSize: 0x28 }
  - { offsetInCU: 0x815D, offset: 0x12E73, size: 0x8, addend: 0x0, symName: __ZNSt3__114pointer_traitsIPKcE10pointer_toB8ue170006ERS1_, symObjAddr: 0x12F8, symBinAddr: 0x10000964C, symSize: 0x14 }
  - { offsetInCU: 0x44, offset: 0x12F32, size: 0x8, addend: 0x0, symName: __ZN5EigenL4lastE, symObjAddr: 0x7A8CB, symBinAddr: 0x10003C140, symSize: 0x0 }
  - { offsetInCU: 0x80B, offset: 0x136F9, size: 0x8, addend: 0x0, symName: __ZN5Eigen8internal28check_static_allocation_sizeIdLi2EEEvv, symObjAddr: 0x22A0, symBinAddr: 0x10000BAF8, symSize: 0x4 }
  - { offsetInCU: 0xDC4, offset: 0x13CB2, size: 0x8, addend: 0x0, symName: __ZN5EigenL6lastp1E, symObjAddr: 0x7A8CC, symBinAddr: 0x10003C141, symSize: 0x0 }
  - { offsetInCU: 0xDDE, offset: 0x13CCC, size: 0x8, addend: 0x0, symName: __ZN5EigenL3allE, symObjAddr: 0x7A8CF, symBinAddr: 0x10003C144, symSize: 0x0 }
  - { offsetInCU: 0xDF8, offset: 0x13CE6, size: 0x8, addend: 0x0, symName: __ZN5EigenL3fixILi1EEE, symObjAddr: 0x7A8CE, symBinAddr: 0x10003C143, symSize: 0x0 }
  - { offsetInCU: 0xEDD8, offset: 0x21CC6, size: 0x8, addend: 0x0, symName: __ZNSt3__1lsB8ue170006IcNS_11char_traitsIcEENS_9allocatorIcEEEERNS_13basic_ostreamIT_T0_EES9_RKNS_12basic_stringIS6_S7_T1_EE, symObjAddr: 0xE38, symBinAddr: 0x10000A848, symSize: 0x4C }
  - { offsetInCU: 0xEE30, offset: 0x21D1E, size: 0x8, addend: 0x0, symName: __ZNSt3__1eqB8ue170006IPKNS_12basic_stringIcNS_11char_traitsIcEENS_9allocatorIcEEEEEEbRKNS_11__wrap_iterIT_EESD_, symObjAddr: 0xFC8, symBinAddr: 0x10000A9D8, symSize: 0x48 }
  - { offsetInCU: 0xEE73, offset: 0x21D61, size: 0x8, addend: 0x0, symName: __ZNSt3__14findB8ue170006INS_11__wrap_iterIPKNS_12basic_stringIcNS_11char_traitsIcEENS_9allocatorIcEEEEEEPKcEET_SD_SD_RKT0_, symObjAddr: 0x1010, symBinAddr: 0x10000AA20, symSize: 0x78 }
  - { offsetInCU: 0xEEDB, offset: 0x21DC9, size: 0x8, addend: 0x0, symName: __ZNSt3__1neB8ue170006IPKNS_12basic_stringIcNS_11char_traitsIcEENS_9allocatorIcEEEEEEbRKNS_11__wrap_iterIT_EESD_, symObjAddr: 0x10E8, symBinAddr: 0x10000AAF8, symSize: 0x34 }
  - { offsetInCU: 0xEF1E, offset: 0x21E0C, size: 0x8, addend: 0x0, symName: __ZNSt3__1plB8ue170006IcNS_11char_traitsIcEENS_9allocatorIcEEEENS_12basic_stringIT_T0_T1_EEOS9_SA_, symObjAddr: 0x1A3C, symBinAddr: 0x10000B44C, symSize: 0x40 }
  - { offsetInCU: 0xEF76, offset: 0x21E64, size: 0x8, addend: 0x0, symName: __ZNSt3__112__to_addressB8ue170006IN5Eigen6MatrixIdLi2ELi1ELi0ELi2ELi1EEEEEPT_S5_, symObjAddr: 0x2518, symBinAddr: 0x10000BD70, symSize: 0x14 }
  - { offsetInCU: 0xEFAB, offset: 0x21E99, size: 0x8, addend: 0x0, symName: __ZNSt3__13minB8ue170006ImEERKT_S3_S3_, symObjAddr: 0x2A18, symBinAddr: 0x10000C244, symSize: 0x2C }
  - { offsetInCU: 0xF1FA, offset: 0x220E8, size: 0x8, addend: 0x0, symName: __ZNSt3__13minB8ue170006ImNS_6__lessIvvEEEERKT_S5_S5_T0_, symObjAddr: 0x2AA4, symBinAddr: 0x10000C2D0, symSize: 0x54 }
  - { offsetInCU: 0xF254, offset: 0x22142, size: 0x8, addend: 0x0, symName: __ZNSt3__120__throw_length_errorB8ue170006EPKc, symObjAddr: 0x2B80, symBinAddr: 0x10000C378, symSize: 0x64 }
  - { offsetInCU: 0xF27F, offset: 0x2216D, size: 0x8, addend: 0x0, symName: __ZNSt3__119__allocate_at_leastB8ue170006INS_9allocatorIN5Eigen6MatrixIdLi2ELi1ELi0ELi2ELi1EEEEEEENS_19__allocation_resultINS_16allocator_traitsIT_E7pointerEEERS8_m, symObjAddr: 0x2E28, symBinAddr: 0x10000C5CC, symSize: 0x40 }
  - { offsetInCU: 0xF2C2, offset: 0x221B0, size: 0x8, addend: 0x0, symName: __ZNSt3__142__uninitialized_allocator_move_if_noexceptB8ue170006INS_9allocatorIN5Eigen6MatrixIdLi2ELi1ELi0ELi2ELi1EEEEENS_16reverse_iteratorIPS4_EES8_S8_EET2_RT_T0_T1_S9_, symObjAddr: 0x3198, symBinAddr: 0x10000C838, symSize: 0x12C }
  - { offsetInCU: 0xF362, offset: 0x22250, size: 0x8, addend: 0x0, symName: __ZNSt3__14swapB8ue170006IPN5Eigen6MatrixIdLi2ELi1ELi0ELi2ELi1EEEEENS_9enable_ifIXaasr21is_move_constructibleIT_EE5valuesr18is_move_assignableIS6_EE5valueEvE4typeERS6_S9_, symObjAddr: 0x3310, symBinAddr: 0x10000C9B0, symSize: 0x3C }
  - { offsetInCU: 0xF3B3, offset: 0x222A1, size: 0x8, addend: 0x0, symName: __ZNSt3__122__make_exception_guardB8ue170006INS_29_AllocatorDestroyRangeReverseINS_9allocatorIN5Eigen6MatrixIdLi2ELi1ELi0ELi2ELi1EEEEENS_16reverse_iteratorIPS5_EEEEEENS_28__exception_guard_exceptionsIT_EESC_, symObjAddr: 0x3440, symBinAddr: 0x10000CAE0, symSize: 0x4C }
  - { offsetInCU: 0xF3E9, offset: 0x222D7, size: 0x8, addend: 0x0, symName: __ZNSt3__1neB8ue170006IPN5Eigen6MatrixIdLi2ELi1ELi0ELi2ELi1EEES4_EEbRKNS_16reverse_iteratorIT_EERKNS5_IT0_EE, symObjAddr: 0x34D0, symBinAddr: 0x10000CB70, symSize: 0x48 }
  - { offsetInCU: 0xF435, offset: 0x22323, size: 0x8, addend: 0x0, symName: __ZNSt3__112__to_addressB8ue170006INS_16reverse_iteratorIPN5Eigen6MatrixIdLi2ELi1ELi0ELi2ELi1EEEEEvEEu7__decayIDTclsr19__to_address_helperIT_EE6__callclsr3stdE7declvalIRKS7_EEEEES9_, symObjAddr: 0x3518, symBinAddr: 0x10000CBB8, symSize: 0x24 }
  - { offsetInCU: 0xF495, offset: 0x22383, size: 0x8, addend: 0x0, symName: __ZNSt3__119__allocator_destroyB8ue170006INS_9allocatorIN5Eigen6MatrixIdLi2ELi1ELi0ELi2ELi1EEEEENS_16reverse_iteratorINS6_IPS4_EEEES9_EEvRT_T0_T1_, symObjAddr: 0x37C8, symBinAddr: 0x10000CE68, symSize: 0x70 }
  - { offsetInCU: 0xF4FA, offset: 0x223E8, size: 0x8, addend: 0x0, symName: __ZNSt3__1neB8ue170006INS_16reverse_iteratorIPN5Eigen6MatrixIdLi2ELi1ELi0ELi2ELi1EEEEES6_EEbRKNS1_IT_EERKNS1_IT0_EE, symObjAddr: 0x3874, symBinAddr: 0x10000CF14, symSize: 0x60 }
  - { offsetInCU: 0xF546, offset: 0x22434, size: 0x8, addend: 0x0, symName: __ZNSt3__112__to_addressB8ue170006INS_16reverse_iteratorINS1_IPN5Eigen6MatrixIdLi2ELi1ELi0ELi2ELi1EEEEEEEvEEu7__decayIDTclsr19__to_address_helperIT_EE6__callclsr3stdE7declvalIRKS8_EEEEESA_, symObjAddr: 0x3900, symBinAddr: 0x10000CFA0, symSize: 0x24 }
  - { offsetInCU: 0xF5A6, offset: 0x22494, size: 0x8, addend: 0x0, symName: __ZNSt3__113__rewrap_iterB8ue170006INS_11__wrap_iterIPKNS_12basic_stringIcNS_11char_traitsIcEENS_9allocatorIcEEEEEES9_NS_18__unwrap_iter_implISA_Lb1EEEEET_SD_T0_, symObjAddr: 0x49E8, symBinAddr: 0x10000D4C4, symSize: 0x4C }
  - { offsetInCU: 0xF5FB, offset: 0x224E9, size: 0x8, addend: 0x0, symName: __ZNSt3__111__find_implB8ue170006IPKNS_12basic_stringIcNS_11char_traitsIcEENS_9allocatorIcEEEES8_PKcNS_10__identityEEET_SC_T0_RKT1_RT2_, symObjAddr: 0x4A34, symBinAddr: 0x10000D510, symSize: 0x80 }
  - { offsetInCU: 0xF675, offset: 0x22563, size: 0x8, addend: 0x0, symName: __ZNSt3__113__unwrap_iterB8ue170006INS_11__wrap_iterIPKNS_12basic_stringIcNS_11char_traitsIcEENS_9allocatorIcEEEEEENS_18__unwrap_iter_implISA_Lb1EEELi0EEEDTclsrT0_8__unwrapclsr3stdE7declvalIT_EEEESE_, symObjAddr: 0x4AB4, symBinAddr: 0x10000D590, symSize: 0x2C }
  - { offsetInCU: 0xF70C, offset: 0x225FA, size: 0x8, addend: 0x0, symName: __ZNSt3__112__to_addressB8ue170006INS_11__wrap_iterIPKNS_12basic_stringIcNS_11char_traitsIcEENS_9allocatorIcEEEEEEvEEu7__decayIDTclsr19__to_address_helperIT_EE6__callclsr3stdE7declvalIRKSB_EEEEESD_, symObjAddr: 0x4B78, symBinAddr: 0x10000D654, symSize: 0x24 }
  - { offsetInCU: 0xF7E8, offset: 0x226D6, size: 0x8, addend: 0x0, symName: __ZNSt3__112__to_addressB8ue170006IKNS_12basic_stringIcNS_11char_traitsIcEENS_9allocatorIcEEEEEEPT_S9_, symObjAddr: 0x4C28, symBinAddr: 0x10000D704, symSize: 0x14 }
  - { offsetInCU: 0xF81D, offset: 0x2270B, size: 0x8, addend: 0x0, symName: __ZNSt3__1eqB8ue170006IcNS_11char_traitsIcEENS_9allocatorIcEEEEbRKNS_12basic_stringIT_T0_T1_EEPKS6_, symObjAddr: 0x4C3C, symBinAddr: 0x10000D718, symSize: 0xAC }
  - { offsetInCU: 0xF884, offset: 0x22772, size: 0x8, addend: 0x0, symName: __ZNSt3__18__invokeB8ue170006IRNS_10__identityEJRKNS_12basic_stringIcNS_11char_traitsIcEENS_9allocatorIcEEEEEEEDTclclsr3stdE7declvalIT_EEspclsr3stdE7declvalIT0_EEEEOSB_DpOSC_, symObjAddr: 0x4CE8, symBinAddr: 0x10000D7C4, symSize: 0x2C }
  - { offsetInCU: 0xF902, offset: 0x227F0, size: 0x8, addend: 0x0, symName: __ZNSt3__122__make_exception_guardB8ue170006INS_6vectorIN5Eigen6MatrixIdLi2ELi1ELi0ELi2ELi1EEENS_9allocatorIS4_EEE16__destroy_vectorEEENS_28__exception_guard_exceptionsIT_EESA_, symObjAddr: 0x5124, symBinAddr: 0x10000DC00, symSize: 0x40 }
  - { offsetInCU: 0xF937, offset: 0x22825, size: 0x8, addend: 0x0, symName: __ZNSt3__130__uninitialized_allocator_copyB8ue170006INS_9allocatorIN5Eigen6MatrixIdLi2ELi1ELi0ELi2ELi1EEEEEPS4_S6_S6_EET2_RT_T0_T1_S7_, symObjAddr: 0x533C, symBinAddr: 0x10000DE18, symSize: 0x80 }
  - { offsetInCU: 0xF9D4, offset: 0x228C2, size: 0x8, addend: 0x0, symName: __ZNSt3__114__unwrap_rangeB8ue170006IPN5Eigen6MatrixIdLi2ELi1ELi0ELi2ELi1EEES4_EENS_4pairIT0_S6_EET_S8_, symObjAddr: 0x53BC, symBinAddr: 0x10000DE98, symSize: 0x60 }
  - { offsetInCU: 0xFA20, offset: 0x2290E, size: 0x8, addend: 0x0, symName: __ZNSt3__135__uninitialized_allocator_copy_implB8ue170006INS_9allocatorIN5Eigen6MatrixIdLi2ELi1ELi0ELi2ELi1EEEEEPS4_S6_S6_EET2_RT_T0_T1_S7_, symObjAddr: 0x541C, symBinAddr: 0x10000DEF8, symSize: 0xF4 }
  - { offsetInCU: 0xFABE, offset: 0x229AC, size: 0x8, addend: 0x0, symName: __ZNSt3__113__unwrap_iterB8ue170006IPN5Eigen6MatrixIdLi2ELi1ELi0ELi2ELi1EEENS_18__unwrap_iter_implIS4_Lb1EEELi0EEEDTclsrT0_8__unwrapclsr3stdE7declvalIT_EEEES8_, symObjAddr: 0x5510, symBinAddr: 0x10000DFEC, symSize: 0x24 }
  - { offsetInCU: 0xFB02, offset: 0x229F0, size: 0x8, addend: 0x0, symName: __ZNSt3__113__rewrap_iterB8ue170006IPN5Eigen6MatrixIdLi2ELi1ELi0ELi2ELi1EEES4_NS_18__unwrap_iter_implIS4_Lb1EEEEET_S7_T0_, symObjAddr: 0x5534, symBinAddr: 0x10000E010, symSize: 0x3C }
  - { offsetInCU: 0xFB57, offset: 0x22A45, size: 0x8, addend: 0x0, symName: __ZNSt3__19make_pairB8ue170006IPN5Eigen6MatrixIdLi2ELi1ELi0ELi2ELi1EEES4_EENS_4pairINS_18__unwrap_ref_decayIT_E4typeENS6_IT0_E4typeEEEOS7_OSA_, symObjAddr: 0x5570, symBinAddr: 0x10000E04C, symSize: 0x38 }
  - { offsetInCU: 0xFC7A, offset: 0x22B68, size: 0x8, addend: 0x0, symName: __ZNSt3__122__make_exception_guardB8ue170006INS_29_AllocatorDestroyRangeReverseINS_9allocatorIN5Eigen6MatrixIdLi2ELi1ELi0ELi2ELi1EEEEEPS5_EEEENS_28__exception_guard_exceptionsIT_EESA_, symObjAddr: 0x5618, symBinAddr: 0x10000E0F4, symSize: 0x4C }
  - { offsetInCU: 0xFCB0, offset: 0x22B9E, size: 0x8, addend: 0x0, symName: __ZNSt3__119__allocator_destroyB8ue170006INS_9allocatorIN5Eigen6MatrixIdLi2ELi1ELi0ELi2ELi1EEEEENS_16reverse_iteratorIPS4_EES8_EEvRT_T0_T1_, symObjAddr: 0x594C, symBinAddr: 0x10000E428, symSize: 0x70 }
  - { offsetInCU: 0x13C82, offset: 0x26B70, size: 0x8, addend: 0x0, symName: __ZNSt3__16vectorIN5Eigen6MatrixIdLi2ELi1ELi0ELi2ELi1EEENS_9allocatorIS3_EEE26__swap_out_circular_bufferERNS_14__split_bufferIS3_RS5_EE, symObjAddr: 0x27F4, symBinAddr: 0x10000C04C, symSize: 0x110 }
  - { offsetInCU: 0x15BD5, offset: 0x28AC3, size: 0x8, addend: 0x0, symName: __ZN5Eigen8symbolic10SymbolExprINS_8internal17symbolic_last_tagEEC1Ev, symObjAddr: 0x0, symBinAddr: 0x100009BC8, symSize: 0x2C }
  - { offsetInCU: 0x15BFD, offset: 0x28AEB, size: 0x8, addend: 0x0, symName: __ZNK5Eigen8symbolic8BaseExprINS0_10SymbolExprINS_8internal17symbolic_last_tagEEEEplILi1EEENS0_7AddExprIS5_NS0_9ValueExprINS3_8FixedIntIXT_EEEEEEESB_, symObjAddr: 0x2C, symBinAddr: 0x100009BF4, symSize: 0x48 }
  - { offsetInCU: 0x15C35, offset: 0x28B23, size: 0x8, addend: 0x0, symName: __ZNK5Eigen8internal8FixedIntILi1EEclEv, symObjAddr: 0x74, symBinAddr: 0x100009C3C, symSize: 0x10 }
  - { offsetInCU: 0x15C59, offset: 0x28B47, size: 0x8, addend: 0x0, symName: __ZN5Eigen8internal5all_tC1Ev, symObjAddr: 0x84, symBinAddr: 0x100009C4C, symSize: 0x2C }
  - { offsetInCU: 0x15C81, offset: 0x28B6F, size: 0x8, addend: 0x0, symName: __Z16set_config_paramPKcS0_Pv, symObjAddr: 0xB0, symBinAddr: 0x100009C78, symSize: 0x598 }
  - { offsetInCU: 0x15CCA, offset: 0x28BB8, size: 0x8, addend: 0x0, symName: __ZNSt3__112basic_stringIcNS_11char_traitsIcEENS_9allocatorIcEEEC1B8ue170006ILi0EEEPKc, symObjAddr: 0x648, symBinAddr: 0x10000A210, symSize: 0x34 }
  - { offsetInCU: 0x15D07, offset: 0x28BF5, size: 0x8, addend: 0x0, symName: __Z16parse_lidar_scanPKcS0_Pv, symObjAddr: 0x67C, symBinAddr: 0x10000A244, symSize: 0x304 }
  - { offsetInCU: 0x15D91, offset: 0x28C7F, size: 0x8, addend: 0x0, symName: __ZN6LoggerlsIdEERS_T_, symObjAddr: 0xA70, symBinAddr: 0x10000A548, symSize: 0x4C }
  - { offsetInCU: 0x15DCB, offset: 0x28CB9, size: 0x8, addend: 0x0, symName: __Z8isnumberi, symObjAddr: 0xB08, symBinAddr: 0x10000A594, symSize: 0x28 }
  - { offsetInCU: 0x15DFA, offset: 0x28CE8, size: 0x8, addend: 0x0, symName: __ZNSt3__16vectorIN5Eigen6MatrixIdLi2ELi1ELi0ELi2ELi1EEENS_9allocatorIS3_EEE9push_backB8ue170006EOS3_, symObjAddr: 0xB30, symBinAddr: 0x10000A5BC, symSize: 0x6C }
  - { offsetInCU: 0x15E2F, offset: 0x28D1D, size: 0x8, addend: 0x0, symName: __ZN5Eigen6MatrixIdLi2ELi1ELi0ELi2ELi1EEC1IddEERKT_RKT0_, symObjAddr: 0xB9C, symBinAddr: 0x10000A628, symSize: 0x3C }
  - { offsetInCU: 0x15E87, offset: 0x28D75, size: 0x8, addend: 0x0, symName: __Z12parse_configPKcPFvS0_S0_PvES1_, symObjAddr: 0xBD8, symBinAddr: 0x10000A664, symSize: 0x9C }
  - { offsetInCU: 0x15ED9, offset: 0x28DC7, size: 0x8, addend: 0x0, symName: __Z10launch_guiP9LidarViewNSt3__112basic_stringIcNS1_11char_traitsIcEENS1_9allocatorIcEEEE, symObjAddr: 0xC74, symBinAddr: 0x10000A700, symSize: 0x148 }
  - { offsetInCU: 0x15F1E, offset: 0x28E0C, size: 0x8, addend: 0x0, symName: __Z13run_benchmarkPKcb, symObjAddr: 0xE84, symBinAddr: 0x10000A894, symSize: 0x144 }
  - { offsetInCU: 0x15FA5, offset: 0x28E93, size: 0x8, addend: 0x0, symName: __ZNKSt3__16vectorINS_12basic_stringIcNS_11char_traitsIcEENS_9allocatorIcEEEENS4_IS6_EEE5beginB8ue170006Ev, symObjAddr: 0x1088, symBinAddr: 0x10000AA98, symSize: 0x30 }
  - { offsetInCU: 0x15FCB, offset: 0x28EB9, size: 0x8, addend: 0x0, symName: __ZNKSt3__16vectorINS_12basic_stringIcNS_11char_traitsIcEENS_9allocatorIcEEEENS4_IS6_EEE3endB8ue170006Ev, symObjAddr: 0x10B8, symBinAddr: 0x10000AAC8, symSize: 0x30 }
  - { offsetInCU: 0x15FF1, offset: 0x28EDF, size: 0x8, addend: 0x0, symName: __ZNKSt3__111__wrap_iterIPKNS_12basic_stringIcNS_11char_traitsIcEENS_9allocatorIcEEEEEdeB8ue170006Ev, symObjAddr: 0x111C, symBinAddr: 0x10000AB2C, symSize: 0x18 }
  - { offsetInCU: 0x16015, offset: 0x28F03, size: 0x8, addend: 0x0, symName: __ZNSt3__111__wrap_iterIPKNS_12basic_stringIcNS_11char_traitsIcEENS_9allocatorIcEEEEEppB8ue170006Ev, symObjAddr: 0x1134, symBinAddr: 0x10000AB44, symSize: 0x20 }
  - { offsetInCU: 0x16039, offset: 0x28F27, size: 0x8, addend: 0x0, symName: _main, symObjAddr: 0x1154, symBinAddr: 0x10000AB64, symSize: 0x85C }
  - { offsetInCU: 0x16148, offset: 0x29036, size: 0x8, addend: 0x0, symName: __ZN9LidarScanC1Ev, symObjAddr: 0x19B0, symBinAddr: 0x10000B3C0, symSize: 0x2C }
  - { offsetInCU: 0x16172, offset: 0x29060, size: 0x8, addend: 0x0, symName: __ZNSt3__16vectorIN5Eigen6MatrixIdLi2ELi1ELi0ELi2ELi1EEENS_9allocatorIS3_EEEC1ERKS6_, symObjAddr: 0x19DC, symBinAddr: 0x10000B3EC, symSize: 0x34 }
  - { offsetInCU: 0x161AB, offset: 0x29099, size: 0x8, addend: 0x0, symName: __ZNSt3__16vectorIN5Eigen6MatrixIdLi2ELi1ELi0ELi2ELi1EEENS_9allocatorIS3_EEED1B8ue170006Ev, symObjAddr: 0x1A10, symBinAddr: 0x10000B420, symSize: 0x2C }
  - { offsetInCU: 0x161D3, offset: 0x290C1, size: 0x8, addend: 0x0, symName: __ZN9LidarScanD1Ev, symObjAddr: 0x1A7C, symBinAddr: 0x10000B48C, symSize: 0x2C }
  - { offsetInCU: 0x161FD, offset: 0x290EB, size: 0x8, addend: 0x0, symName: __ZN5Eigen8internal8FixedIntILi1EEC1Ev, symObjAddr: 0x1AA8, symBinAddr: 0x10000B4B8, symSize: 0x2C }
  - { offsetInCU: 0x16225, offset: 0x29113, size: 0x8, addend: 0x0, symName: __ZN5Eigen8internal5all_tC2Ev, symObjAddr: 0x1AD4, symBinAddr: 0x10000B4E4, symSize: 0x14 }
  - { offsetInCU: 0x1624C, offset: 0x2913A, size: 0x8, addend: 0x0, symName: __Z8__istypeim, symObjAddr: 0x1B44, symBinAddr: 0x10000B4F8, symSize: 0x8C }
  - { offsetInCU: 0x16286, offset: 0x29174, size: 0x8, addend: 0x0, symName: __Z7isasciii, symObjAddr: 0x1BD0, symBinAddr: 0x10000B584, symSize: 0x24 }
  - { offsetInCU: 0x162B3, offset: 0x291A1, size: 0x8, addend: 0x0, symName: __ZNKSt3__111__wrap_iterIPKNS_12basic_stringIcNS_11char_traitsIcEENS_9allocatorIcEEEEE4baseB8ue170006Ev, symObjAddr: 0x1BF4, symBinAddr: 0x10000B5A8, symSize: 0x18 }
  - { offsetInCU: 0x162D7, offset: 0x291C5, size: 0x8, addend: 0x0, symName: __ZN9LidarScanC2Ev, symObjAddr: 0x1C0C, symBinAddr: 0x10000B5C0, symSize: 0x30 }
  - { offsetInCU: 0x16301, offset: 0x291EF, size: 0x8, addend: 0x0, symName: __ZNSt3__16vectorIN5Eigen6MatrixIdLi2ELi1ELi0ELi2ELi1EEENS_9allocatorIS3_EEEC1B8ue170006Ev, symObjAddr: 0x1C3C, symBinAddr: 0x10000B5F0, symSize: 0x2C }
  - { offsetInCU: 0x16329, offset: 0x29217, size: 0x8, addend: 0x0, symName: __ZNSt3__16vectorIN5Eigen6MatrixIdLi2ELi1ELi0ELi2ELi1EEENS_9allocatorIS3_EEEC2B8ue170006Ev, symObjAddr: 0x1C68, symBinAddr: 0x10000B61C, symSize: 0x4C }
  - { offsetInCU: 0x1635B, offset: 0x29249, size: 0x8, addend: 0x0, symName: __ZNSt3__117__compressed_pairIPN5Eigen6MatrixIdLi2ELi1ELi0ELi2ELi1EEENS_9allocatorIS3_EEEC1B8ue170006IDnNS_18__default_init_tagEEEOT_OT0_, symObjAddr: 0x1CB4, symBinAddr: 0x10000B668, symSize: 0x3C }
  - { offsetInCU: 0x163B1, offset: 0x2929F, size: 0x8, addend: 0x0, symName: __ZNSt3__117__compressed_pairIPN5Eigen6MatrixIdLi2ELi1ELi0ELi2ELi1EEENS_9allocatorIS3_EEEC2B8ue170006IDnNS_18__default_init_tagEEEOT_OT0_, symObjAddr: 0x1CFC, symBinAddr: 0x10000B6A4, symSize: 0x40 }
  - { offsetInCU: 0x16407, offset: 0x292F5, size: 0x8, addend: 0x0, symName: __ZNSt3__122__compressed_pair_elemIPN5Eigen6MatrixIdLi2ELi1ELi0ELi2ELi1EEELi0ELb0EEC2B8ue170006IDnvEEOT_, symObjAddr: 0x1D3C, symBinAddr: 0x10000B6E4, symSize: 0x1C }
  - { offsetInCU: 0x16447, offset: 0x29335, size: 0x8, addend: 0x0, symName: __ZNSt3__122__compressed_pair_elemINS_9allocatorIN5Eigen6MatrixIdLi2ELi1ELi0ELi2ELi1EEEEELi1ELb1EEC2B8ue170006ENS_18__default_init_tagE, symObjAddr: 0x1D58, symBinAddr: 0x10000B700, symSize: 0x2C }
  - { offsetInCU: 0x16479, offset: 0x29367, size: 0x8, addend: 0x0, symName: __ZNSt3__19allocatorIN5Eigen6MatrixIdLi2ELi1ELi0ELi2ELi1EEEEC2B8ue170006Ev, symObjAddr: 0x1D84, symBinAddr: 0x10000B72C, symSize: 0x2C }
  - { offsetInCU: 0x164A1, offset: 0x2938F, size: 0x8, addend: 0x0, symName: __ZNSt3__116__non_trivial_ifILb1ENS_9allocatorIN5Eigen6MatrixIdLi2ELi1ELi0ELi2ELi1EEEEEEC2B8ue170006Ev, symObjAddr: 0x1DB0, symBinAddr: 0x10000B758, symSize: 0x14 }
  - { offsetInCU: 0x164C9, offset: 0x293B7, size: 0x8, addend: 0x0, symName: __ZN9LidarScanD2Ev, symObjAddr: 0x1DC4, symBinAddr: 0x10000B76C, symSize: 0x30 }
  - { offsetInCU: 0x164F3, offset: 0x293E1, size: 0x8, addend: 0x0, symName: __ZNSt3__112basic_stringIcNS_11char_traitsIcEENS_9allocatorIcEEEC2B8ue170006ILi0EEEPKc, symObjAddr: 0x1DF4, symBinAddr: 0x10000B79C, symSize: 0x58 }
  - { offsetInCU: 0x16530, offset: 0x2941E, size: 0x8, addend: 0x0, symName: __ZN5Eigen8symbolic10SymbolExprINS_8internal17symbolic_last_tagEEC2Ev, symObjAddr: 0x1F9C, symBinAddr: 0x10000B7F4, symSize: 0x14 }
  - { offsetInCU: 0x16558, offset: 0x29446, size: 0x8, addend: 0x0, symName: __ZN5Eigen8internal8FixedIntILi1EEC2Ev, symObjAddr: 0x1FB0, symBinAddr: 0x10000B808, symSize: 0x14 }
  - { offsetInCU: 0x16580, offset: 0x2946E, size: 0x8, addend: 0x0, symName: __ZNK5Eigen8symbolic8BaseExprINS0_10SymbolExprINS_8internal17symbolic_last_tagEEEE7derivedEv, symObjAddr: 0x1FC4, symBinAddr: 0x10000B81C, symSize: 0x14 }
  - { offsetInCU: 0x165A4, offset: 0x29492, size: 0x8, addend: 0x0, symName: __ZN5Eigen8symbolic9ValueExprINS_8internal8FixedIntILi1EEEEC1Ev, symObjAddr: 0x1FD8, symBinAddr: 0x10000B830, symSize: 0x2C }
  - { offsetInCU: 0x165CC, offset: 0x294BA, size: 0x8, addend: 0x0, symName: __ZN5Eigen8symbolic7AddExprINS0_10SymbolExprINS_8internal17symbolic_last_tagEEENS0_9ValueExprINS3_8FixedIntILi1EEEEEEC1ERKS5_RKS9_, symObjAddr: 0x2004, symBinAddr: 0x10000B85C, symSize: 0x3C }
  - { offsetInCU: 0x16610, offset: 0x294FE, size: 0x8, addend: 0x0, symName: __ZN5Eigen8symbolic9ValueExprINS_8internal8FixedIntILi1EEEEC2Ev, symObjAddr: 0x2040, symBinAddr: 0x10000B898, symSize: 0x14 }
  - { offsetInCU: 0x16638, offset: 0x29526, size: 0x8, addend: 0x0, symName: __ZN5Eigen8symbolic7AddExprINS0_10SymbolExprINS_8internal17symbolic_last_tagEEENS0_9ValueExprINS3_8FixedIntILi1EEEEEEC2ERKS5_RKS9_, symObjAddr: 0x2054, symBinAddr: 0x10000B8AC, symSize: 0x1C }
  - { offsetInCU: 0x1667C, offset: 0x2956A, size: 0x8, addend: 0x0, symName: __ZN5Eigen6MatrixIdLi2ELi1ELi0ELi2ELi1EEC2IddEERKT_RKT0_, symObjAddr: 0x2070, symBinAddr: 0x10000B8C8, symSize: 0x4C }
  - { offsetInCU: 0x166D4, offset: 0x295C2, size: 0x8, addend: 0x0, symName: __ZN5Eigen15PlainObjectBaseINS_6MatrixIdLi2ELi1ELi0ELi2ELi1EEEEC2Ev, symObjAddr: 0x20BC, symBinAddr: 0x10000B914, symSize: 0x34 }
  - { offsetInCU: 0x166FC, offset: 0x295EA, size: 0x8, addend: 0x0, symName: __ZN5Eigen15PlainObjectBaseINS_6MatrixIdLi2ELi1ELi0ELi2ELi1EEEE22_check_template_paramsEv, symObjAddr: 0x20F0, symBinAddr: 0x10000B948, symSize: 0x4 }
  - { offsetInCU: 0x16715, offset: 0x29603, size: 0x8, addend: 0x0, symName: __ZN5Eigen15PlainObjectBaseINS_6MatrixIdLi2ELi1ELi0ELi2ELi1EEEE6_init2IddEEvRKT_RKT0_PNS_8internal9enable_ifILb1ES5_E4typeE, symObjAddr: 0x20F4, symBinAddr: 0x10000B94C, symSize: 0x68 }
  - { offsetInCU: 0x16774, offset: 0x29662, size: 0x8, addend: 0x0, symName: __ZN5Eigen10MatrixBaseINS_6MatrixIdLi2ELi1ELi0ELi2ELi1EEEEC2Ev, symObjAddr: 0x215C, symBinAddr: 0x10000B9B4, symSize: 0x2C }
  - { offsetInCU: 0x1679C, offset: 0x2968A, size: 0x8, addend: 0x0, symName: __ZN5Eigen12DenseStorageIdLi2ELi2ELi1ELi0EEC1Ev, symObjAddr: 0x2188, symBinAddr: 0x10000B9E0, symSize: 0x2C }
  - { offsetInCU: 0x167C4, offset: 0x296B2, size: 0x8, addend: 0x0, symName: __ZN5Eigen9DenseBaseINS_6MatrixIdLi2ELi1ELi0ELi2ELi1EEEEC2Ev, symObjAddr: 0x21B4, symBinAddr: 0x10000BA0C, symSize: 0x14 }
  - { offsetInCU: 0x167EC, offset: 0x296DA, size: 0x8, addend: 0x0, symName: __ZN5Eigen12DenseStorageIdLi2ELi2ELi1ELi0EEC2Ev, symObjAddr: 0x21C8, symBinAddr: 0x10000BA20, symSize: 0x2C }
  - { offsetInCU: 0x16814, offset: 0x29702, size: 0x8, addend: 0x0, symName: __ZN5Eigen8internal11plain_arrayIdLi2ELi0ELi16EEC1Ev, symObjAddr: 0x21F4, symBinAddr: 0x10000BA4C, symSize: 0x2C }
  - { offsetInCU: 0x1683C, offset: 0x2972A, size: 0x8, addend: 0x0, symName: __ZN5Eigen8internal11plain_arrayIdLi2ELi0ELi16EEC2Ev, symObjAddr: 0x2220, symBinAddr: 0x10000BA78, symSize: 0x80 }
  - { offsetInCU: 0x16864, offset: 0x29752, size: 0x8, addend: 0x0, symName: __ZN5Eigen12DenseStorageIdLi2ELi2ELi1ELi0EE4dataEv, symObjAddr: 0x22A4, symBinAddr: 0x10000BAFC, symSize: 0x14 }
  - { offsetInCU: 0x16888, offset: 0x29776, size: 0x8, addend: 0x0, symName: __ZNSt3__16vectorIN5Eigen6MatrixIdLi2ELi1ELi0ELi2ELi1EEENS_9allocatorIS3_EEE9__end_capB8ue170006Ev, symObjAddr: 0x22B8, symBinAddr: 0x10000BB10, symSize: 0x28 }
  - { offsetInCU: 0x168AC, offset: 0x2979A, size: 0x8, addend: 0x0, symName: __ZNSt3__16vectorIN5Eigen6MatrixIdLi2ELi1ELi0ELi2ELi1EEENS_9allocatorIS3_EEE22__construct_one_at_endB8ue170006IJS3_EEEvDpOT_, symObjAddr: 0x22E0, symBinAddr: 0x10000BB38, symSize: 0x90 }
  - { offsetInCU: 0x168F9, offset: 0x297E7, size: 0x8, addend: 0x0, symName: __ZNSt3__16vectorIN5Eigen6MatrixIdLi2ELi1ELi0ELi2ELi1EEENS_9allocatorIS3_EEE21__push_back_slow_pathIS3_EEvOT_, symObjAddr: 0x2370, symBinAddr: 0x10000BBC8, symSize: 0xD8 }
  - { offsetInCU: 0x16955, offset: 0x29843, size: 0x8, addend: 0x0, symName: __ZNSt3__117__compressed_pairIPN5Eigen6MatrixIdLi2ELi1ELi0ELi2ELi1EEENS_9allocatorIS3_EEE5firstB8ue170006Ev, symObjAddr: 0x2448, symBinAddr: 0x10000BCA0, symSize: 0x24 }
  - { offsetInCU: 0x16979, offset: 0x29867, size: 0x8, addend: 0x0, symName: __ZNSt3__122__compressed_pair_elemIPN5Eigen6MatrixIdLi2ELi1ELi0ELi2ELi1EEELi0ELb0EE5__getB8ue170006Ev, symObjAddr: 0x246C, symBinAddr: 0x10000BCC4, symSize: 0x14 }
  - { offsetInCU: 0x169B6, offset: 0x298A4, size: 0x8, addend: 0x0, symName: __ZNSt3__16vectorIN5Eigen6MatrixIdLi2ELi1ELi0ELi2ELi1EEENS_9allocatorIS3_EEE21_ConstructTransactionC1B8ue170006ERS6_m, symObjAddr: 0x2480, symBinAddr: 0x10000BCD8, symSize: 0x3C }
  - { offsetInCU: 0x169FC, offset: 0x298EA, size: 0x8, addend: 0x0, symName: __ZNSt3__116allocator_traitsINS_9allocatorIN5Eigen6MatrixIdLi2ELi1ELi0ELi2ELi1EEEEEE9constructB8ue170006IS4_JS4_EvEEvRS5_PT_DpOT0_, symObjAddr: 0x24BC, symBinAddr: 0x10000BD14, symSize: 0x34 }
  - { offsetInCU: 0x16A52, offset: 0x29940, size: 0x8, addend: 0x0, symName: __ZNSt3__16vectorIN5Eigen6MatrixIdLi2ELi1ELi0ELi2ELi1EEENS_9allocatorIS3_EEE7__allocB8ue170006Ev, symObjAddr: 0x24F0, symBinAddr: 0x10000BD48, symSize: 0x28 }
  - { offsetInCU: 0x16A76, offset: 0x29964, size: 0x8, addend: 0x0, symName: __ZNSt3__16vectorIN5Eigen6MatrixIdLi2ELi1ELi0ELi2ELi1EEENS_9allocatorIS3_EEE21_ConstructTransactionD1B8ue170006Ev, symObjAddr: 0x252C, symBinAddr: 0x10000BD84, symSize: 0x2C }
  - { offsetInCU: 0x16A9E, offset: 0x2998C, size: 0x8, addend: 0x0, symName: __ZNSt3__16vectorIN5Eigen6MatrixIdLi2ELi1ELi0ELi2ELi1EEENS_9allocatorIS3_EEE21_ConstructTransactionC2B8ue170006ERS6_m, symObjAddr: 0x2558, symBinAddr: 0x10000BDB0, symSize: 0x44 }
  - { offsetInCU: 0x16AE4, offset: 0x299D2, size: 0x8, addend: 0x0, symName: __ZNSt3__19allocatorIN5Eigen6MatrixIdLi2ELi1ELi0ELi2ELi1EEEE9constructB8ue170006IS3_JS3_EEEvPT_DpOT0_, symObjAddr: 0x259C, symBinAddr: 0x10000BDF4, symSize: 0x30 }
  - { offsetInCU: 0x16B38, offset: 0x29A26, size: 0x8, addend: 0x0, symName: __ZN5Eigen6MatrixIdLi2ELi1ELi0ELi2ELi1EEC1EOS1_, symObjAddr: 0x25CC, symBinAddr: 0x10000BE24, symSize: 0x34 }
  - { offsetInCU: 0x16B6F, offset: 0x29A5D, size: 0x8, addend: 0x0, symName: __ZN5Eigen6MatrixIdLi2ELi1ELi0ELi2ELi1EEC2EOS1_, symObjAddr: 0x2600, symBinAddr: 0x10000BE58, symSize: 0x38 }
  - { offsetInCU: 0x16BA6, offset: 0x29A94, size: 0x8, addend: 0x0, symName: __ZN5Eigen15PlainObjectBaseINS_6MatrixIdLi2ELi1ELi0ELi2ELi1EEEEC2EOS3_, symObjAddr: 0x2638, symBinAddr: 0x10000BE90, symSize: 0x44 }
  - { offsetInCU: 0x16BDD, offset: 0x29ACB, size: 0x8, addend: 0x0, symName: __ZNSt3__117__compressed_pairIPN5Eigen6MatrixIdLi2ELi1ELi0ELi2ELi1EEENS_9allocatorIS3_EEE6secondB8ue170006Ev, symObjAddr: 0x267C, symBinAddr: 0x10000BED4, symSize: 0x24 }
  - { offsetInCU: 0x16C01, offset: 0x29AEF, size: 0x8, addend: 0x0, symName: __ZNSt3__122__compressed_pair_elemINS_9allocatorIN5Eigen6MatrixIdLi2ELi1ELi0ELi2ELi1EEEEELi1ELb1EE5__getB8ue170006Ev, symObjAddr: 0x26A0, symBinAddr: 0x10000BEF8, symSize: 0x14 }
  - { offsetInCU: 0x16C25, offset: 0x29B13, size: 0x8, addend: 0x0, symName: __ZNSt3__16vectorIN5Eigen6MatrixIdLi2ELi1ELi0ELi2ELi1EEENS_9allocatorIS3_EEE21_ConstructTransactionD2B8ue170006Ev, symObjAddr: 0x26B4, symBinAddr: 0x10000BF0C, symSize: 0x20 }
  - { offsetInCU: 0x16C4D, offset: 0x29B3B, size: 0x8, addend: 0x0, symName: __ZNKSt3__16vectorIN5Eigen6MatrixIdLi2ELi1ELi0ELi2ELi1EEENS_9allocatorIS3_EEE11__recommendB8ue170006Em, symObjAddr: 0x26D4, symBinAddr: 0x10000BF2C, symSize: 0xB4 }
  - { offsetInCU: 0x16CA0, offset: 0x29B8E, size: 0x8, addend: 0x0, symName: __ZNKSt3__16vectorIN5Eigen6MatrixIdLi2ELi1ELi0ELi2ELi1EEENS_9allocatorIS3_EEE4sizeB8ue170006Ev, symObjAddr: 0x2788, symBinAddr: 0x10000BFE0, symSize: 0x28 }
  - { offsetInCU: 0x16CC4, offset: 0x29BB2, size: 0x8, addend: 0x0, symName: __ZNSt3__114__split_bufferIN5Eigen6MatrixIdLi2ELi1ELi0ELi2ELi1EEERNS_9allocatorIS3_EEEC1EmmS6_, symObjAddr: 0x27B0, symBinAddr: 0x10000C008, symSize: 0x44 }
  - { offsetInCU: 0x16D18, offset: 0x29C06, size: 0x8, addend: 0x0, symName: __ZNSt3__114__split_bufferIN5Eigen6MatrixIdLi2ELi1ELi0ELi2ELi1EEERNS_9allocatorIS3_EEED1Ev, symObjAddr: 0x2904, symBinAddr: 0x10000C15C, symSize: 0x2C }
  - { offsetInCU: 0x16D42, offset: 0x29C30, size: 0x8, addend: 0x0, symName: __ZNKSt3__16vectorIN5Eigen6MatrixIdLi2ELi1ELi0ELi2ELi1EEENS_9allocatorIS3_EEE8max_sizeEv, symObjAddr: 0x2930, symBinAddr: 0x10000C188, symSize: 0x60 }
  - { offsetInCU: 0x16D68, offset: 0x29C56, size: 0x8, addend: 0x0, symName: __ZNKSt3__16vectorIN5Eigen6MatrixIdLi2ELi1ELi0ELi2ELi1EEENS_9allocatorIS3_EEE20__throw_length_errorB8ue170006Ev, symObjAddr: 0x2990, symBinAddr: 0x10000C1E8, symSize: 0x1C }
  - { offsetInCU: 0x16D8C, offset: 0x29C7A, size: 0x8, addend: 0x0, symName: __ZNKSt3__16vectorIN5Eigen6MatrixIdLi2ELi1ELi0ELi2ELi1EEENS_9allocatorIS3_EEE8capacityB8ue170006Ev, symObjAddr: 0x29AC, symBinAddr: 0x10000C204, symSize: 0x40 }
  - { offsetInCU: 0x16DBA, offset: 0x29CA8, size: 0x8, addend: 0x0, symName: __ZNSt3__116allocator_traitsINS_9allocatorIN5Eigen6MatrixIdLi2ELi1ELi0ELi2ELi1EEEEEE8max_sizeB8ue170006IS5_vEEmRKS5_, symObjAddr: 0x2A44, symBinAddr: 0x10000C270, symSize: 0x24 }
  - { offsetInCU: 0x16DE7, offset: 0x29CD5, size: 0x8, addend: 0x0, symName: __ZNKSt3__16vectorIN5Eigen6MatrixIdLi2ELi1ELi0ELi2ELi1EEENS_9allocatorIS3_EEE7__allocB8ue170006Ev, symObjAddr: 0x2A68, symBinAddr: 0x10000C294, symSize: 0x28 }
  - { offsetInCU: 0x16E0B, offset: 0x29CF9, size: 0x8, addend: 0x0, symName: __ZNSt3__114numeric_limitsIlE3maxB8ue170006Ev, symObjAddr: 0x2A90, symBinAddr: 0x10000C2BC, symSize: 0x14 }
  - { offsetInCU: 0x16E29, offset: 0x29D17, size: 0x8, addend: 0x0, symName: __ZNKSt3__19allocatorIN5Eigen6MatrixIdLi2ELi1ELi0ELi2ELi1EEEE8max_sizeB8ue170006Ev, symObjAddr: 0x2B2C, symBinAddr: 0x10000C324, symSize: 0x14 }
  - { offsetInCU: 0x16E4D, offset: 0x29D3B, size: 0x8, addend: 0x0, symName: __ZNKSt3__117__compressed_pairIPN5Eigen6MatrixIdLi2ELi1ELi0ELi2ELi1EEENS_9allocatorIS3_EEE6secondB8ue170006Ev, symObjAddr: 0x2B40, symBinAddr: 0x10000C338, symSize: 0x24 }
  - { offsetInCU: 0x16E71, offset: 0x29D5F, size: 0x8, addend: 0x0, symName: __ZNKSt3__122__compressed_pair_elemINS_9allocatorIN5Eigen6MatrixIdLi2ELi1ELi0ELi2ELi1EEEEELi1ELb1EE5__getB8ue170006Ev, symObjAddr: 0x2B64, symBinAddr: 0x10000C35C, symSize: 0x14 }
  - { offsetInCU: 0x16E95, offset: 0x29D83, size: 0x8, addend: 0x0, symName: __ZNSt3__123__libcpp_numeric_limitsIlLb1EE3maxB8ue170006Ev, symObjAddr: 0x2B78, symBinAddr: 0x10000C370, symSize: 0x8 }
  - { offsetInCU: 0x16EA9, offset: 0x29D97, size: 0x8, addend: 0x0, symName: __ZNSt12length_errorC1B8ue170006EPKc, symObjAddr: 0x2BE4, symBinAddr: 0x10000C3DC, symSize: 0x34 }
  - { offsetInCU: 0x16EDF, offset: 0x29DCD, size: 0x8, addend: 0x0, symName: __ZNSt12length_errorC2B8ue170006EPKc, symObjAddr: 0x2C18, symBinAddr: 0x10000C410, symSize: 0x4C }
  - { offsetInCU: 0x16F15, offset: 0x29E03, size: 0x8, addend: 0x0, symName: __ZNKSt3__16vectorIN5Eigen6MatrixIdLi2ELi1ELi0ELi2ELi1EEENS_9allocatorIS3_EEE9__end_capB8ue170006Ev, symObjAddr: 0x2C64, symBinAddr: 0x10000C45C, symSize: 0x28 }
  - { offsetInCU: 0x16F39, offset: 0x29E27, size: 0x8, addend: 0x0, symName: __ZNKSt3__117__compressed_pairIPN5Eigen6MatrixIdLi2ELi1ELi0ELi2ELi1EEENS_9allocatorIS3_EEE5firstB8ue170006Ev, symObjAddr: 0x2C8C, symBinAddr: 0x10000C484, symSize: 0x24 }
  - { offsetInCU: 0x16F5D, offset: 0x29E4B, size: 0x8, addend: 0x0, symName: __ZNKSt3__122__compressed_pair_elemIPN5Eigen6MatrixIdLi2ELi1ELi0ELi2ELi1EEELi0ELb0EE5__getB8ue170006Ev, symObjAddr: 0x2CB0, symBinAddr: 0x10000C4A8, symSize: 0x14 }
  - { offsetInCU: 0x16F81, offset: 0x29E6F, size: 0x8, addend: 0x0, symName: __ZNSt3__114__split_bufferIN5Eigen6MatrixIdLi2ELi1ELi0ELi2ELi1EEERNS_9allocatorIS3_EEEC2EmmS6_, symObjAddr: 0x2D18, symBinAddr: 0x10000C4BC, symSize: 0xD4 }
  - { offsetInCU: 0x16FF2, offset: 0x29EE0, size: 0x8, addend: 0x0, symName: __ZNSt3__117__compressed_pairIPN5Eigen6MatrixIdLi2ELi1ELi0ELi2ELi1EEERNS_9allocatorIS3_EEEC1B8ue170006IDnS7_EEOT_OT0_, symObjAddr: 0x2DEC, symBinAddr: 0x10000C590, symSize: 0x3C }
  - { offsetInCU: 0x17048, offset: 0x29F36, size: 0x8, addend: 0x0, symName: __ZNSt3__114__split_bufferIN5Eigen6MatrixIdLi2ELi1ELi0ELi2ELi1EEERNS_9allocatorIS3_EEE7__allocB8ue170006Ev, symObjAddr: 0x2E68, symBinAddr: 0x10000C60C, symSize: 0x28 }
  - { offsetInCU: 0x1706C, offset: 0x29F5A, size: 0x8, addend: 0x0, symName: __ZNSt3__114__split_bufferIN5Eigen6MatrixIdLi2ELi1ELi0ELi2ELi1EEERNS_9allocatorIS3_EEE9__end_capB8ue170006Ev, symObjAddr: 0x2E90, symBinAddr: 0x10000C634, symSize: 0x28 }
  - { offsetInCU: 0x17090, offset: 0x29F7E, size: 0x8, addend: 0x0, symName: __ZNSt3__117__compressed_pairIPN5Eigen6MatrixIdLi2ELi1ELi0ELi2ELi1EEERNS_9allocatorIS3_EEEC2B8ue170006IDnS7_EEOT_OT0_, symObjAddr: 0x2EB8, symBinAddr: 0x10000C65C, symSize: 0x48 }
  - { offsetInCU: 0x170E6, offset: 0x29FD4, size: 0x8, addend: 0x0, symName: __ZNSt3__122__compressed_pair_elemIRNS_9allocatorIN5Eigen6MatrixIdLi2ELi1ELi0ELi2ELi1EEEEELi1ELb0EEC2B8ue170006IS6_vEEOT_, symObjAddr: 0x2F00, symBinAddr: 0x10000C6A4, symSize: 0x20 }
  - { offsetInCU: 0x17126, offset: 0x2A014, size: 0x8, addend: 0x0, symName: __ZNSt3__19allocatorIN5Eigen6MatrixIdLi2ELi1ELi0ELi2ELi1EEEE8allocateB8ue170006Em, symObjAddr: 0x2F20, symBinAddr: 0x10000C6C4, symSize: 0x58 }
  - { offsetInCU: 0x17158, offset: 0x2A046, size: 0x8, addend: 0x0, symName: __ZNSt3__117__compressed_pairIPN5Eigen6MatrixIdLi2ELi1ELi0ELi2ELi1EEERNS_9allocatorIS3_EEE6secondB8ue170006Ev, symObjAddr: 0x307C, symBinAddr: 0x10000C71C, symSize: 0x28 }
  - { offsetInCU: 0x1717C, offset: 0x2A06A, size: 0x8, addend: 0x0, symName: __ZNSt3__122__compressed_pair_elemIRNS_9allocatorIN5Eigen6MatrixIdLi2ELi1ELi0ELi2ELi1EEEEELi1ELb0EE5__getB8ue170006Ev, symObjAddr: 0x30A4, symBinAddr: 0x10000C744, symSize: 0x18 }
  - { offsetInCU: 0x171A0, offset: 0x2A08E, size: 0x8, addend: 0x0, symName: __ZNSt3__117__compressed_pairIPN5Eigen6MatrixIdLi2ELi1ELi0ELi2ELi1EEERNS_9allocatorIS3_EEE5firstB8ue170006Ev, symObjAddr: 0x30BC, symBinAddr: 0x10000C75C, symSize: 0x24 }
  - { offsetInCU: 0x171C4, offset: 0x2A0B2, size: 0x8, addend: 0x0, symName: __ZNKSt3__16vectorIN5Eigen6MatrixIdLi2ELi1ELi0ELi2ELi1EEENS_9allocatorIS3_EEE17__annotate_deleteB8ue170006Ev, symObjAddr: 0x30E0, symBinAddr: 0x10000C780, symSize: 0xB8 }
  - { offsetInCU: 0x171E8, offset: 0x2A0D6, size: 0x8, addend: 0x0, symName: __ZNSt3__116reverse_iteratorIPN5Eigen6MatrixIdLi2ELi1ELi0ELi2ELi1EEEEC1B8ue170006ES4_, symObjAddr: 0x32C4, symBinAddr: 0x10000C964, symSize: 0x34 }
  - { offsetInCU: 0x1721E, offset: 0x2A10C, size: 0x8, addend: 0x0, symName: __ZNKSt3__116reverse_iteratorIPN5Eigen6MatrixIdLi2ELi1ELi0ELi2ELi1EEEE4baseB8ue170006Ev, symObjAddr: 0x32F8, symBinAddr: 0x10000C998, symSize: 0x18 }
  - { offsetInCU: 0x17242, offset: 0x2A130, size: 0x8, addend: 0x0, symName: __ZNKSt3__16vectorIN5Eigen6MatrixIdLi2ELi1ELi0ELi2ELi1EEENS_9allocatorIS3_EEE14__annotate_newB8ue170006Em, symObjAddr: 0x334C, symBinAddr: 0x10000C9EC, symSize: 0xAC }
  - { offsetInCU: 0x17275, offset: 0x2A163, size: 0x8, addend: 0x0, symName: __ZNKSt3__16vectorIN5Eigen6MatrixIdLi2ELi1ELi0ELi2ELi1EEENS_9allocatorIS3_EEE31__annotate_contiguous_containerB8ue170006EPKvS8_S8_S8_, symObjAddr: 0x33F8, symBinAddr: 0x10000CA98, symSize: 0x20 }
  - { offsetInCU: 0x172C5, offset: 0x2A1B3, size: 0x8, addend: 0x0, symName: __ZNKSt3__16vectorIN5Eigen6MatrixIdLi2ELi1ELi0ELi2ELi1EEENS_9allocatorIS3_EEE4dataB8ue170006Ev, symObjAddr: 0x3418, symBinAddr: 0x10000CAB8, symSize: 0x28 }
  - { offsetInCU: 0x172E9, offset: 0x2A1D7, size: 0x8, addend: 0x0, symName: __ZNSt3__129_AllocatorDestroyRangeReverseINS_9allocatorIN5Eigen6MatrixIdLi2ELi1ELi0ELi2ELi1EEEEENS_16reverse_iteratorIPS4_EEEC1B8ue170006ERS5_RS8_SB_, symObjAddr: 0x348C, symBinAddr: 0x10000CB2C, symSize: 0x44 }
  - { offsetInCU: 0x1733E, offset: 0x2A22C, size: 0x8, addend: 0x0, symName: __ZNKSt3__116reverse_iteratorIPN5Eigen6MatrixIdLi2ELi1ELi0ELi2ELi1EEEEdeB8ue170006Ev, symObjAddr: 0x353C, symBinAddr: 0x10000CBDC, symSize: 0x28 }
  - { offsetInCU: 0x17370, offset: 0x2A25E, size: 0x8, addend: 0x0, symName: __ZNSt3__116reverse_iteratorIPN5Eigen6MatrixIdLi2ELi1ELi0ELi2ELi1EEEEppB8ue170006Ev, symObjAddr: 0x3564, symBinAddr: 0x10000CC04, symSize: 0x20 }
  - { offsetInCU: 0x17394, offset: 0x2A282, size: 0x8, addend: 0x0, symName: __ZNSt3__128__exception_guard_exceptionsINS_29_AllocatorDestroyRangeReverseINS_9allocatorIN5Eigen6MatrixIdLi2ELi1ELi0ELi2ELi1EEEEENS_16reverse_iteratorIPS5_EEEEE10__completeB8ue170006Ev, symObjAddr: 0x3584, symBinAddr: 0x10000CC24, symSize: 0x1C }
  - { offsetInCU: 0x173B8, offset: 0x2A2A6, size: 0x8, addend: 0x0, symName: __ZNSt3__128__exception_guard_exceptionsINS_29_AllocatorDestroyRangeReverseINS_9allocatorIN5Eigen6MatrixIdLi2ELi1ELi0ELi2ELi1EEEEENS_16reverse_iteratorIPS5_EEEEED1B8ue170006Ev, symObjAddr: 0x35A0, symBinAddr: 0x10000CC40, symSize: 0x2C }
  - { offsetInCU: 0x173E0, offset: 0x2A2CE, size: 0x8, addend: 0x0, symName: __ZNSt3__128__exception_guard_exceptionsINS_29_AllocatorDestroyRangeReverseINS_9allocatorIN5Eigen6MatrixIdLi2ELi1ELi0ELi2ELi1EEEEENS_16reverse_iteratorIPS5_EEEEEC1B8ue170006ESA_, symObjAddr: 0x35CC, symBinAddr: 0x10000CC6C, symSize: 0x34 }
  - { offsetInCU: 0x17417, offset: 0x2A305, size: 0x8, addend: 0x0, symName: __ZNSt3__128__exception_guard_exceptionsINS_29_AllocatorDestroyRangeReverseINS_9allocatorIN5Eigen6MatrixIdLi2ELi1ELi0ELi2ELi1EEEEENS_16reverse_iteratorIPS5_EEEEEC2B8ue170006ESA_, symObjAddr: 0x3600, symBinAddr: 0x10000CCA0, symSize: 0x30 }
  - { offsetInCU: 0x1744E, offset: 0x2A33C, size: 0x8, addend: 0x0, symName: __ZNSt3__129_AllocatorDestroyRangeReverseINS_9allocatorIN5Eigen6MatrixIdLi2ELi1ELi0ELi2ELi1EEEEENS_16reverse_iteratorIPS4_EEEC2B8ue170006ERS5_RS8_SB_, symObjAddr: 0x3630, symBinAddr: 0x10000CCD0, symSize: 0x38 }
  - { offsetInCU: 0x174A8, offset: 0x2A396, size: 0x8, addend: 0x0, symName: __ZNSt3__119__to_address_helperINS_16reverse_iteratorIPN5Eigen6MatrixIdLi2ELi1ELi0ELi2ELi1EEEEEvE6__callB8ue170006ERKS6_, symObjAddr: 0x3668, symBinAddr: 0x10000CD08, symSize: 0x38 }
  - { offsetInCU: 0x174CA, offset: 0x2A3B8, size: 0x8, addend: 0x0, symName: __ZNKSt3__116reverse_iteratorIPN5Eigen6MatrixIdLi2ELi1ELi0ELi2ELi1EEEEptB8ue170006Ev, symObjAddr: 0x36A0, symBinAddr: 0x10000CD40, symSize: 0x24 }
  - { offsetInCU: 0x174EE, offset: 0x2A3DC, size: 0x8, addend: 0x0, symName: __ZNSt3__128__exception_guard_exceptionsINS_29_AllocatorDestroyRangeReverseINS_9allocatorIN5Eigen6MatrixIdLi2ELi1ELi0ELi2ELi1EEEEENS_16reverse_iteratorIPS5_EEEEED2B8ue170006Ev, symObjAddr: 0x36C4, symBinAddr: 0x10000CD64, symSize: 0x50 }
  - { offsetInCU: 0x17516, offset: 0x2A404, size: 0x8, addend: 0x0, symName: __ZNKSt3__129_AllocatorDestroyRangeReverseINS_9allocatorIN5Eigen6MatrixIdLi2ELi1ELi0ELi2ELi1EEEEENS_16reverse_iteratorIPS4_EEEclB8ue170006Ev, symObjAddr: 0x3714, symBinAddr: 0x10000CDB4, symSize: 0xB4 }
  - { offsetInCU: 0x1753B, offset: 0x2A429, size: 0x8, addend: 0x0, symName: __ZNSt3__116reverse_iteratorINS0_IPN5Eigen6MatrixIdLi2ELi1ELi0ELi2ELi1EEEEEEC1B8ue170006ES5_, symObjAddr: 0x3838, symBinAddr: 0x10000CED8, symSize: 0x3C }
  - { offsetInCU: 0x17571, offset: 0x2A45F, size: 0x8, addend: 0x0, symName: __ZNSt3__116allocator_traitsINS_9allocatorIN5Eigen6MatrixIdLi2ELi1ELi0ELi2ELi1EEEEEE7destroyB8ue170006IS4_vEEvRS5_PT_, symObjAddr: 0x38D4, symBinAddr: 0x10000CF74, symSize: 0x2C }
  - { offsetInCU: 0x175AD, offset: 0x2A49B, size: 0x8, addend: 0x0, symName: __ZNSt3__116reverse_iteratorINS0_IPN5Eigen6MatrixIdLi2ELi1ELi0ELi2ELi1EEEEEEppB8ue170006Ev, symObjAddr: 0x3924, symBinAddr: 0x10000CFC4, symSize: 0x30 }
  - { offsetInCU: 0x175D1, offset: 0x2A4BF, size: 0x8, addend: 0x0, symName: __ZNKSt3__116reverse_iteratorINS0_IPN5Eigen6MatrixIdLi2ELi1ELi0ELi2ELi1EEEEEE4baseB8ue170006Ev, symObjAddr: 0x3954, symBinAddr: 0x10000CFF4, symSize: 0x24 }
  - { offsetInCU: 0x175F5, offset: 0x2A4E3, size: 0x8, addend: 0x0, symName: __ZNSt3__19allocatorIN5Eigen6MatrixIdLi2ELi1ELi0ELi2ELi1EEEE7destroyB8ue170006EPS3_, symObjAddr: 0x3978, symBinAddr: 0x10000D018, symSize: 0x14 }
  - { offsetInCU: 0x1762C, offset: 0x2A51A, size: 0x8, addend: 0x0, symName: __ZNSt3__119__to_address_helperINS_16reverse_iteratorINS1_IPN5Eigen6MatrixIdLi2ELi1ELi0ELi2ELi1EEEEEEEvE6__callB8ue170006ERKS7_, symObjAddr: 0x398C, symBinAddr: 0x10000D02C, symSize: 0x38 }
  - { offsetInCU: 0x1764E, offset: 0x2A53C, size: 0x8, addend: 0x0, symName: __ZNKSt3__116reverse_iteratorINS0_IPN5Eigen6MatrixIdLi2ELi1ELi0ELi2ELi1EEEEEEptB8ue170006Ev, symObjAddr: 0x39C4, symBinAddr: 0x10000D064, symSize: 0x24 }
  - { offsetInCU: 0x17672, offset: 0x2A560, size: 0x8, addend: 0x0, symName: __ZNKSt3__116reverse_iteratorINS0_IPN5Eigen6MatrixIdLi2ELi1ELi0ELi2ELi1EEEEEEdeB8ue170006Ev, symObjAddr: 0x39E8, symBinAddr: 0x10000D088, symSize: 0x34 }
  - { offsetInCU: 0x176A4, offset: 0x2A592, size: 0x8, addend: 0x0, symName: __ZNSt3__116reverse_iteratorIPN5Eigen6MatrixIdLi2ELi1ELi0ELi2ELi1EEEEmmB8ue170006Ev, symObjAddr: 0x3A1C, symBinAddr: 0x10000D0BC, symSize: 0x20 }
  - { offsetInCU: 0x176C8, offset: 0x2A5B6, size: 0x8, addend: 0x0, symName: __ZNSt3__116reverse_iteratorINS0_IPN5Eigen6MatrixIdLi2ELi1ELi0ELi2ELi1EEEEEEC2B8ue170006ES5_, symObjAddr: 0x3A3C, symBinAddr: 0x10000D0DC, symSize: 0x2C }
  - { offsetInCU: 0x176FE, offset: 0x2A5EC, size: 0x8, addend: 0x0, symName: __ZNSt3__116reverse_iteratorIPN5Eigen6MatrixIdLi2ELi1ELi0ELi2ELi1EEEEC2B8ue170006ES4_, symObjAddr: 0x3A68, symBinAddr: 0x10000D108, symSize: 0x28 }
  - { offsetInCU: 0x17734, offset: 0x2A622, size: 0x8, addend: 0x0, symName: __ZNSt3__114__split_bufferIN5Eigen6MatrixIdLi2ELi1ELi0ELi2ELi1EEERNS_9allocatorIS3_EEED2Ev, symObjAddr: 0x3A90, symBinAddr: 0x10000D130, symSize: 0x8C }
  - { offsetInCU: 0x1775E, offset: 0x2A64C, size: 0x8, addend: 0x0, symName: __ZNSt3__114__split_bufferIN5Eigen6MatrixIdLi2ELi1ELi0ELi2ELi1EEERNS_9allocatorIS3_EEE5clearB8ue170006Ev, symObjAddr: 0x3B1C, symBinAddr: 0x10000D1BC, symSize: 0x28 }
  - { offsetInCU: 0x17782, offset: 0x2A670, size: 0x8, addend: 0x0, symName: __ZNSt3__116allocator_traitsINS_9allocatorIN5Eigen6MatrixIdLi2ELi1ELi0ELi2ELi1EEEEEE10deallocateB8ue170006ERS5_PS4_m, symObjAddr: 0x3B44, symBinAddr: 0x10000D1E4, symSize: 0x34 }
  - { offsetInCU: 0x177C3, offset: 0x2A6B1, size: 0x8, addend: 0x0, symName: __ZNKSt3__114__split_bufferIN5Eigen6MatrixIdLi2ELi1ELi0ELi2ELi1EEERNS_9allocatorIS3_EEE8capacityB8ue170006Ev, symObjAddr: 0x3B78, symBinAddr: 0x10000D218, symSize: 0x40 }
  - { offsetInCU: 0x177E7, offset: 0x2A6D5, size: 0x8, addend: 0x0, symName: __ZNSt3__114__split_bufferIN5Eigen6MatrixIdLi2ELi1ELi0ELi2ELi1EEERNS_9allocatorIS3_EEE17__destruct_at_endB8ue170006EPS3_, symObjAddr: 0x3BB8, symBinAddr: 0x10000D258, symSize: 0x2C }
  - { offsetInCU: 0x17819, offset: 0x2A707, size: 0x8, addend: 0x0, symName: __ZNSt3__114__split_bufferIN5Eigen6MatrixIdLi2ELi1ELi0ELi2ELi1EEERNS_9allocatorIS3_EEE17__destruct_at_endB8ue170006EPS3_NS_17integral_constantIbLb0EEE, symObjAddr: 0x3BE4, symBinAddr: 0x10000D284, symSize: 0x80 }
  - { offsetInCU: 0x17857, offset: 0x2A745, size: 0x8, addend: 0x0, symName: __ZNSt3__19allocatorIN5Eigen6MatrixIdLi2ELi1ELi0ELi2ELi1EEEE10deallocateB8ue170006EPS3_m, symObjAddr: 0x3C64, symBinAddr: 0x10000D304, symSize: 0x40 }
  - { offsetInCU: 0x17897, offset: 0x2A785, size: 0x8, addend: 0x0, symName: __ZNKSt3__114__split_bufferIN5Eigen6MatrixIdLi2ELi1ELi0ELi2ELi1EEERNS_9allocatorIS3_EEE9__end_capB8ue170006Ev, symObjAddr: 0x3DAC, symBinAddr: 0x10000D344, symSize: 0x28 }
  - { offsetInCU: 0x178BB, offset: 0x2A7A9, size: 0x8, addend: 0x0, symName: __ZNKSt3__117__compressed_pairIPN5Eigen6MatrixIdLi2ELi1ELi0ELi2ELi1EEERNS_9allocatorIS3_EEE5firstB8ue170006Ev, symObjAddr: 0x3DD4, symBinAddr: 0x10000D36C, symSize: 0x24 }
  - { offsetInCU: 0x178FD, offset: 0x2A7EB, size: 0x8, addend: 0x0, symName: __ZNKSt3__112basic_stringIcNS_11char_traitsIcEENS_9allocatorIcEEE4sizeB8ue170006Ev, symObjAddr: 0x47E8, symBinAddr: 0x10000D390, symSize: 0x54 }
  - { offsetInCU: 0x17921, offset: 0x2A80F, size: 0x8, addend: 0x0, symName: __ZNKSt3__112basic_stringIcNS_11char_traitsIcEENS_9allocatorIcEEE15__get_long_sizeB8ue170006Ev, symObjAddr: 0x4908, symBinAddr: 0x10000D3E4, symSize: 0x28 }
  - { offsetInCU: 0x17945, offset: 0x2A833, size: 0x8, addend: 0x0, symName: __ZNKSt3__112basic_stringIcNS_11char_traitsIcEENS_9allocatorIcEEE16__get_short_sizeB8ue170006Ev, symObjAddr: 0x4930, symBinAddr: 0x10000D40C, symSize: 0x34 }
  - { offsetInCU: 0x17969, offset: 0x2A857, size: 0x8, addend: 0x0, symName: __ZNKSt3__16vectorINS_12basic_stringIcNS_11char_traitsIcEENS_9allocatorIcEEEENS4_IS6_EEE11__make_iterB8ue170006EPKS6_, symObjAddr: 0x4964, symBinAddr: 0x10000D440, symSize: 0x30 }
  - { offsetInCU: 0x1799C, offset: 0x2A88A, size: 0x8, addend: 0x0, symName: __ZNSt3__111__wrap_iterIPKNS_12basic_stringIcNS_11char_traitsIcEENS_9allocatorIcEEEEEC1B8ue170006ES8_, symObjAddr: 0x4994, symBinAddr: 0x10000D470, symSize: 0x34 }
  - { offsetInCU: 0x179D2, offset: 0x2A8C0, size: 0x8, addend: 0x0, symName: __ZNSt3__111__wrap_iterIPKNS_12basic_stringIcNS_11char_traitsIcEENS_9allocatorIcEEEEEC2B8ue170006ES8_, symObjAddr: 0x49C8, symBinAddr: 0x10000D4A4, symSize: 0x20 }
  - { offsetInCU: 0x17A08, offset: 0x2A8F6, size: 0x8, addend: 0x0, symName: __ZNSt3__118__unwrap_iter_implINS_11__wrap_iterIPKNS_12basic_stringIcNS_11char_traitsIcEENS_9allocatorIcEEEEEELb1EE8__rewrapB8ue170006ESA_S9_, symObjAddr: 0x4AE0, symBinAddr: 0x10000D5BC, symSize: 0x5C }
  - { offsetInCU: 0x17A38, offset: 0x2A926, size: 0x8, addend: 0x0, symName: __ZNKSt3__111__wrap_iterIPKNS_12basic_stringIcNS_11char_traitsIcEENS_9allocatorIcEEEEEplB8ue170006El, symObjAddr: 0x4B3C, symBinAddr: 0x10000D618, symSize: 0x3C }
  - { offsetInCU: 0x17A78, offset: 0x2A966, size: 0x8, addend: 0x0, symName: __ZNSt3__111__wrap_iterIPKNS_12basic_stringIcNS_11char_traitsIcEENS_9allocatorIcEEEEEpLB8ue170006El, symObjAddr: 0x4B9C, symBinAddr: 0x10000D678, symSize: 0x30 }
  - { offsetInCU: 0x17AB4, offset: 0x2A9A2, size: 0x8, addend: 0x0, symName: __ZNSt3__119__to_address_helperINS_11__wrap_iterIPKNS_12basic_stringIcNS_11char_traitsIcEENS_9allocatorIcEEEEEEvE6__callB8ue170006ERKSA_, symObjAddr: 0x4BCC, symBinAddr: 0x10000D6A8, symSize: 0x30 }
  - { offsetInCU: 0x17AD6, offset: 0x2A9C4, size: 0x8, addend: 0x0, symName: __ZNSt3__114pointer_traitsINS_11__wrap_iterIPKNS_12basic_stringIcNS_11char_traitsIcEENS_9allocatorIcEEEEEEE10to_addressB8ue170006ESA_, symObjAddr: 0x4BFC, symBinAddr: 0x10000D6D8, symSize: 0x2C }
  - { offsetInCU: 0x17B02, offset: 0x2A9F0, size: 0x8, addend: 0x0, symName: __ZNKSt3__110__identityclB8ue170006IRKNS_12basic_stringIcNS_11char_traitsIcEENS_9allocatorIcEEEEEEOT_SB_, symObjAddr: 0x4D14, symBinAddr: 0x10000D7F0, symSize: 0x18 }
  - { offsetInCU: 0x17B3D, offset: 0x2AA2B, size: 0x8, addend: 0x0, symName: __ZNSt3__118__unwrap_iter_implINS_11__wrap_iterIPKNS_12basic_stringIcNS_11char_traitsIcEENS_9allocatorIcEEEEEELb1EE8__unwrapB8ue170006ESA_, symObjAddr: 0x4D2C, symBinAddr: 0x10000D808, symSize: 0x28 }
  - { offsetInCU: 0x17B5F, offset: 0x2AA4D, size: 0x8, addend: 0x0, symName: __ZNSt3__16vectorIN5Eigen6MatrixIdLi2ELi1ELi0ELi2ELi1EEENS_9allocatorIS3_EEED2B8ue170006Ev, symObjAddr: 0x4D54, symBinAddr: 0x10000D830, symSize: 0x44 }
  - { offsetInCU: 0x17B87, offset: 0x2AA75, size: 0x8, addend: 0x0, symName: __ZNSt3__16vectorIN5Eigen6MatrixIdLi2ELi1ELi0ELi2ELi1EEENS_9allocatorIS3_EEE16__destroy_vectorC1B8ue170006ERS6_, symObjAddr: 0x4D98, symBinAddr: 0x10000D874, symSize: 0x34 }
  - { offsetInCU: 0x17BBE, offset: 0x2AAAC, size: 0x8, addend: 0x0, symName: __ZNSt3__16vectorIN5Eigen6MatrixIdLi2ELi1ELi0ELi2ELi1EEENS_9allocatorIS3_EEE16__destroy_vectorclB8ue170006Ev, symObjAddr: 0x4DCC, symBinAddr: 0x10000D8A8, symSize: 0x90 }
  - { offsetInCU: 0x17BE2, offset: 0x2AAD0, size: 0x8, addend: 0x0, symName: __ZNSt3__16vectorIN5Eigen6MatrixIdLi2ELi1ELi0ELi2ELi1EEENS_9allocatorIS3_EEE16__destroy_vectorC2B8ue170006ERS6_, symObjAddr: 0x4E5C, symBinAddr: 0x10000D938, symSize: 0x20 }
  - { offsetInCU: 0x17C19, offset: 0x2AB07, size: 0x8, addend: 0x0, symName: __ZNSt3__16vectorIN5Eigen6MatrixIdLi2ELi1ELi0ELi2ELi1EEENS_9allocatorIS3_EEE7__clearB8ue170006Ev, symObjAddr: 0x4E7C, symBinAddr: 0x10000D958, symSize: 0x28 }
  - { offsetInCU: 0x17C3D, offset: 0x2AB2B, size: 0x8, addend: 0x0, symName: __ZNSt3__16vectorIN5Eigen6MatrixIdLi2ELi1ELi0ELi2ELi1EEENS_9allocatorIS3_EEE22__base_destruct_at_endB8ue170006EPS3_, symObjAddr: 0x4EA4, symBinAddr: 0x10000D980, symSize: 0x8C }
  - { offsetInCU: 0x17C7F, offset: 0x2AB6D, size: 0x8, addend: 0x0, symName: __ZNSt3__16vectorIN5Eigen6MatrixIdLi2ELi1ELi0ELi2ELi1EEENS_9allocatorIS3_EEEC2ERKS6_, symObjAddr: 0x4F30, symBinAddr: 0x10000DA0C, symSize: 0x94 }
  - { offsetInCU: 0x17CB8, offset: 0x2ABA6, size: 0x8, addend: 0x0, symName: __ZNSt3__116allocator_traitsINS_9allocatorIN5Eigen6MatrixIdLi2ELi1ELi0ELi2ELi1EEEEEE37select_on_container_copy_constructionB8ue170006IS5_vvEES5_RKS5_, symObjAddr: 0x4FC4, symBinAddr: 0x10000DAA0, symSize: 0x10 }
  - { offsetInCU: 0x17CEB, offset: 0x2ABD9, size: 0x8, addend: 0x0, symName: __ZNSt3__117__compressed_pairIPN5Eigen6MatrixIdLi2ELi1ELi0ELi2ELi1EEENS_9allocatorIS3_EEEC1B8ue170006IDnS6_EEOT_OT0_, symObjAddr: 0x4FD4, symBinAddr: 0x10000DAB0, symSize: 0x3C }
  - { offsetInCU: 0x17D41, offset: 0x2AC2F, size: 0x8, addend: 0x0, symName: __ZNSt3__16vectorIN5Eigen6MatrixIdLi2ELi1ELi0ELi2ELi1EEENS_9allocatorIS3_EEE16__init_with_sizeB8ue170006IPS3_S8_EEvT_T0_m, symObjAddr: 0x5010, symBinAddr: 0x10000DAEC, symSize: 0xB8 }
  - { offsetInCU: 0x17DB3, offset: 0x2ACA1, size: 0x8, addend: 0x0, symName: __ZNSt3__117__compressed_pairIPN5Eigen6MatrixIdLi2ELi1ELi0ELi2ELi1EEENS_9allocatorIS3_EEEC2B8ue170006IDnS6_EEOT_OT0_, symObjAddr: 0x50C8, symBinAddr: 0x10000DBA4, symSize: 0x44 }
  - { offsetInCU: 0x17E09, offset: 0x2ACF7, size: 0x8, addend: 0x0, symName: __ZNSt3__122__compressed_pair_elemINS_9allocatorIN5Eigen6MatrixIdLi2ELi1ELi0ELi2ELi1EEEEELi1ELb1EEC2B8ue170006IS5_vEEOT_, symObjAddr: 0x510C, symBinAddr: 0x10000DBE8, symSize: 0x18 }
  - { offsetInCU: 0x17E49, offset: 0x2AD37, size: 0x8, addend: 0x0, symName: __ZNSt3__16vectorIN5Eigen6MatrixIdLi2ELi1ELi0ELi2ELi1EEENS_9allocatorIS3_EEE11__vallocateB8ue170006Em, symObjAddr: 0x5164, symBinAddr: 0x10000DC40, symSize: 0xAC }
  - { offsetInCU: 0x17E8B, offset: 0x2AD79, size: 0x8, addend: 0x0, symName: __ZNSt3__16vectorIN5Eigen6MatrixIdLi2ELi1ELi0ELi2ELi1EEENS_9allocatorIS3_EEE18__construct_at_endIPS3_S8_EEvT_T0_m, symObjAddr: 0x5210, symBinAddr: 0x10000DCEC, symSize: 0x8C }
  - { offsetInCU: 0x17EFF, offset: 0x2ADED, size: 0x8, addend: 0x0, symName: __ZNSt3__128__exception_guard_exceptionsINS_6vectorIN5Eigen6MatrixIdLi2ELi1ELi0ELi2ELi1EEENS_9allocatorIS4_EEE16__destroy_vectorEE10__completeB8ue170006Ev, symObjAddr: 0x529C, symBinAddr: 0x10000DD78, symSize: 0x1C }
  - { offsetInCU: 0x17F23, offset: 0x2AE11, size: 0x8, addend: 0x0, symName: __ZNSt3__128__exception_guard_exceptionsINS_6vectorIN5Eigen6MatrixIdLi2ELi1ELi0ELi2ELi1EEENS_9allocatorIS4_EEE16__destroy_vectorEED1B8ue170006Ev, symObjAddr: 0x52B8, symBinAddr: 0x10000DD94, symSize: 0x2C }
  - { offsetInCU: 0x17F4B, offset: 0x2AE39, size: 0x8, addend: 0x0, symName: __ZNSt3__128__exception_guard_exceptionsINS_6vectorIN5Eigen6MatrixIdLi2ELi1ELi0ELi2ELi1EEENS_9allocatorIS4_EEE16__destroy_vectorEEC1B8ue170006ES8_, symObjAddr: 0x52E4, symBinAddr: 0x10000DDC0, symSize: 0x34 }
  - { offsetInCU: 0x17F81, offset: 0x2AE6F, size: 0x8, addend: 0x0, symName: __ZNSt3__128__exception_guard_exceptionsINS_6vectorIN5Eigen6MatrixIdLi2ELi1ELi0ELi2ELi1EEENS_9allocatorIS4_EEE16__destroy_vectorEEC2B8ue170006ES8_, symObjAddr: 0x5318, symBinAddr: 0x10000DDF4, symSize: 0x24 }
  - { offsetInCU: 0x17FD5, offset: 0x2AEC3, size: 0x8, addend: 0x0, symName: __ZNSt3__14pairIPN5Eigen6MatrixIdLi2ELi1ELi0ELi2ELi1EEES4_EC1B8ue170006IS4_S4_LPv0EEEOT_OT0_, symObjAddr: 0x55A8, symBinAddr: 0x10000E084, symSize: 0x3C }
  - { offsetInCU: 0x18031, offset: 0x2AF1F, size: 0x8, addend: 0x0, symName: __ZNSt3__14pairIPN5Eigen6MatrixIdLi2ELi1ELi0ELi2ELi1EEES4_EC2B8ue170006IS4_S4_LPv0EEEOT_OT0_, symObjAddr: 0x55E4, symBinAddr: 0x10000E0C0, symSize: 0x34 }
  - { offsetInCU: 0x1808D, offset: 0x2AF7B, size: 0x8, addend: 0x0, symName: __ZNSt3__129_AllocatorDestroyRangeReverseINS_9allocatorIN5Eigen6MatrixIdLi2ELi1ELi0ELi2ELi1EEEEEPS4_EC1B8ue170006ERS5_RS6_S9_, symObjAddr: 0x5664, symBinAddr: 0x10000E140, symSize: 0x44 }
  - { offsetInCU: 0x180E2, offset: 0x2AFD0, size: 0x8, addend: 0x0, symName: __ZNSt3__116allocator_traitsINS_9allocatorIN5Eigen6MatrixIdLi2ELi1ELi0ELi2ELi1EEEEEE9constructB8ue170006IS4_JRS4_EvEEvRS5_PT_DpOT0_, symObjAddr: 0x56A8, symBinAddr: 0x10000E184, symSize: 0x34 }
  - { offsetInCU: 0x18138, offset: 0x2B026, size: 0x8, addend: 0x0, symName: __ZNSt3__128__exception_guard_exceptionsINS_29_AllocatorDestroyRangeReverseINS_9allocatorIN5Eigen6MatrixIdLi2ELi1ELi0ELi2ELi1EEEEEPS5_EEE10__completeB8ue170006Ev, symObjAddr: 0x56DC, symBinAddr: 0x10000E1B8, symSize: 0x1C }
  - { offsetInCU: 0x1815C, offset: 0x2B04A, size: 0x8, addend: 0x0, symName: __ZNSt3__128__exception_guard_exceptionsINS_29_AllocatorDestroyRangeReverseINS_9allocatorIN5Eigen6MatrixIdLi2ELi1ELi0ELi2ELi1EEEEEPS5_EEED1B8ue170006Ev, symObjAddr: 0x56F8, symBinAddr: 0x10000E1D4, symSize: 0x2C }
  - { offsetInCU: 0x18184, offset: 0x2B072, size: 0x8, addend: 0x0, symName: __ZNSt3__128__exception_guard_exceptionsINS_29_AllocatorDestroyRangeReverseINS_9allocatorIN5Eigen6MatrixIdLi2ELi1ELi0ELi2ELi1EEEEEPS5_EEEC1B8ue170006ES8_, symObjAddr: 0x5724, symBinAddr: 0x10000E200, symSize: 0x34 }
  - { offsetInCU: 0x181BB, offset: 0x2B0A9, size: 0x8, addend: 0x0, symName: __ZNSt3__128__exception_guard_exceptionsINS_29_AllocatorDestroyRangeReverseINS_9allocatorIN5Eigen6MatrixIdLi2ELi1ELi0ELi2ELi1EEEEEPS5_EEEC2B8ue170006ES8_, symObjAddr: 0x5758, symBinAddr: 0x10000E234, symSize: 0x30 }
  - { offsetInCU: 0x181F2, offset: 0x2B0E0, size: 0x8, addend: 0x0, symName: __ZNSt3__129_AllocatorDestroyRangeReverseINS_9allocatorIN5Eigen6MatrixIdLi2ELi1ELi0ELi2ELi1EEEEEPS4_EC2B8ue170006ERS5_RS6_S9_, symObjAddr: 0x5788, symBinAddr: 0x10000E264, symSize: 0x38 }
  - { offsetInCU: 0x18247, offset: 0x2B135, size: 0x8, addend: 0x0, symName: __ZNSt3__19allocatorIN5Eigen6MatrixIdLi2ELi1ELi0ELi2ELi1EEEE9constructB8ue170006IS3_JRS3_EEEvPT_DpOT0_, symObjAddr: 0x57C0, symBinAddr: 0x10000E29C, symSize: 0x30 }
  - { offsetInCU: 0x1829B, offset: 0x2B189, size: 0x8, addend: 0x0, symName: __ZN5Eigen6MatrixIdLi2ELi1ELi0ELi2ELi1EEC1ERKS1_, symObjAddr: 0x57F0, symBinAddr: 0x10000E2CC, symSize: 0x34 }
  - { offsetInCU: 0x182D2, offset: 0x2B1C0, size: 0x8, addend: 0x0, symName: __ZN5Eigen6MatrixIdLi2ELi1ELi0ELi2ELi1EEC2ERKS1_, symObjAddr: 0x5824, symBinAddr: 0x10000E300, symSize: 0x34 }
  - { offsetInCU: 0x18309, offset: 0x2B1F7, size: 0x8, addend: 0x0, symName: __ZN5Eigen15PlainObjectBaseINS_6MatrixIdLi2ELi1ELi0ELi2ELi1EEEEC2ERKS3_, symObjAddr: 0x5858, symBinAddr: 0x10000E334, symSize: 0x3C }
  - { offsetInCU: 0x18340, offset: 0x2B22E, size: 0x8, addend: 0x0, symName: __ZNSt3__128__exception_guard_exceptionsINS_29_AllocatorDestroyRangeReverseINS_9allocatorIN5Eigen6MatrixIdLi2ELi1ELi0ELi2ELi1EEEEEPS5_EEED2B8ue170006Ev, symObjAddr: 0x5894, symBinAddr: 0x10000E370, symSize: 0x50 }
  - { offsetInCU: 0x18368, offset: 0x2B256, size: 0x8, addend: 0x0, symName: __ZNKSt3__129_AllocatorDestroyRangeReverseINS_9allocatorIN5Eigen6MatrixIdLi2ELi1ELi0ELi2ELi1EEEEEPS4_EclB8ue170006Ev, symObjAddr: 0x58E4, symBinAddr: 0x10000E3C0, symSize: 0x68 }
  - { offsetInCU: 0x1838C, offset: 0x2B27A, size: 0x8, addend: 0x0, symName: __ZNSt3__118__unwrap_iter_implIPN5Eigen6MatrixIdLi2ELi1ELi0ELi2ELi1EEELb1EE8__unwrapB8ue170006ES4_, symObjAddr: 0x59BC, symBinAddr: 0x10000E498, symSize: 0x24 }
  - { offsetInCU: 0x183AE, offset: 0x2B29C, size: 0x8, addend: 0x0, symName: __ZNSt3__118__unwrap_iter_implIPN5Eigen6MatrixIdLi2ELi1ELi0ELi2ELi1EEELb1EE8__rewrapB8ue170006ES4_S4_, symObjAddr: 0x59E0, symBinAddr: 0x10000E4BC, symSize: 0x50 }
  - { offsetInCU: 0x183DE, offset: 0x2B2CC, size: 0x8, addend: 0x0, symName: __ZNSt3__128__exception_guard_exceptionsINS_6vectorIN5Eigen6MatrixIdLi2ELi1ELi0ELi2ELi1EEENS_9allocatorIS4_EEE16__destroy_vectorEED2B8ue170006Ev, symObjAddr: 0x5A30, symBinAddr: 0x10000E50C, symSize: 0x48 }
  - { offsetInCU: 0x18406, offset: 0x2B2F4, size: 0x8, addend: 0x0, symName: __ZNSt3__112basic_stringIcNS_11char_traitsIcEENS_9allocatorIcEEE6appendB8ue170006ERKS5_, symObjAddr: 0x5A78, symBinAddr: 0x10000E554, symSize: 0x4C }
  - { offsetInCU: 0x18439, offset: 0x2B327, size: 0x8, addend: 0x0, symName: __ZNSt3__112basic_stringIcNS_11char_traitsIcEENS_9allocatorIcEEEC1B8ue170006EOS5_, symObjAddr: 0x5AC4, symBinAddr: 0x10000E5A0, symSize: 0x34 }
  - { offsetInCU: 0x18470, offset: 0x2B35E, size: 0x8, addend: 0x0, symName: __ZNSt3__112basic_stringIcNS_11char_traitsIcEENS_9allocatorIcEEEC2B8ue170006EOS5_, symObjAddr: 0x5AF8, symBinAddr: 0x10000E5D4, symSize: 0x50 }
  - { offsetInCU: 0x184A7, offset: 0x2B395, size: 0x8, addend: 0x0, symName: __ZNSt3__112basic_stringIcNS_11char_traitsIcEENS_9allocatorIcEEE14__default_initB8ue170006Ev, symObjAddr: 0x5B48, symBinAddr: 0x10000E624, symSize: 0x40 }
  - { offsetInCU: 0x44, offset: 0x2C499, size: 0x8, addend: 0x0, symName: __ZN5EigenL4lastE, symObjAddr: 0x25322, symBinAddr: 0x10003C145, symSize: 0x0 }
  - { offsetInCU: 0x2D1, offset: 0x2C726, size: 0x8, addend: 0x0, symName: __ZN5Eigen8internal22ignore_unused_variableIlEEvRKT_, symObjAddr: 0xBC4, symBinAddr: 0x10000EF5C, symSize: 0x10 }
  - { offsetInCU: 0x30E, offset: 0x2C763, size: 0x8, addend: 0x0, symName: __ZN5EigenL6lastp1E, symObjAddr: 0x25323, symBinAddr: 0x10003C146, symSize: 0x0 }
  - { offsetInCU: 0x328, offset: 0x2C77D, size: 0x8, addend: 0x0, symName: __ZN5EigenL3allE, symObjAddr: 0x25326, symBinAddr: 0x10003C149, symSize: 0x0 }
  - { offsetInCU: 0x342, offset: 0x2C797, size: 0x8, addend: 0x0, symName: __ZN5EigenL3fixILi1EEE, symObjAddr: 0x25325, symBinAddr: 0x10003C148, symSize: 0x0 }
  - { offsetInCU: 0x567A, offset: 0x31ACF, size: 0x8, addend: 0x0, symName: __ZNSt3__1neB8ue170006IPKN5Eigen6MatrixIdLi2ELi1ELi0ELi2ELi1EEEEEbRKNS_11__wrap_iterIT_EESA_, symObjAddr: 0x294, symBinAddr: 0x10000E8F4, symSize: 0x34 }
  - { offsetInCU: 0x56BD, offset: 0x31B12, size: 0x8, addend: 0x0, symName: __ZNSt3__1eqB8ue170006IPKN5Eigen6MatrixIdLi2ELi1ELi0ELi2ELi1EEEEEbRKNS_11__wrap_iterIT_EESA_, symObjAddr: 0x4B0, symBinAddr: 0x10000EAA8, symSize: 0x48 }
  - { offsetInCU: 0x7894, offset: 0x33CE9, size: 0x8, addend: 0x0, symName: __ZN3icp12get_centroidERKNSt3__16vectorIN5Eigen6MatrixIdLi2ELi1ELi0ELi2ELi1EEENS0_9allocatorIS4_EEEE, symObjAddr: 0xB0, symBinAddr: 0x10000E710, symSize: 0x158 }
  - { offsetInCU: 0x7921, offset: 0x33D76, size: 0x8, addend: 0x0, symName: __ZN5Eigen6MatrixIdLi2ELi1ELi0ELi2ELi1EEC1Ev, symObjAddr: 0x208, symBinAddr: 0x10000E868, symSize: 0x2C }
  - { offsetInCU: 0x7949, offset: 0x33D9E, size: 0x8, addend: 0x0, symName: __ZNKSt3__16vectorIN5Eigen6MatrixIdLi2ELi1ELi0ELi2ELi1EEENS_9allocatorIS3_EEE5beginB8ue170006Ev, symObjAddr: 0x234, symBinAddr: 0x10000E894, symSize: 0x30 }
  - { offsetInCU: 0x796F, offset: 0x33DC4, size: 0x8, addend: 0x0, symName: __ZNKSt3__16vectorIN5Eigen6MatrixIdLi2ELi1ELi0ELi2ELi1EEENS_9allocatorIS3_EEE3endB8ue170006Ev, symObjAddr: 0x264, symBinAddr: 0x10000E8C4, symSize: 0x30 }
  - { offsetInCU: 0x7995, offset: 0x33DEA, size: 0x8, addend: 0x0, symName: __ZNKSt3__111__wrap_iterIPKN5Eigen6MatrixIdLi2ELi1ELi0ELi2ELi1EEEEdeB8ue170006Ev, symObjAddr: 0x2C8, symBinAddr: 0x10000E928, symSize: 0x18 }
  - { offsetInCU: 0x79B9, offset: 0x33E0E, size: 0x8, addend: 0x0, symName: __ZNK5Eigen15DenseCoeffsBaseINS_6MatrixIdLi2ELi1ELi0ELi2ELi1EEELi0EEixEl, symObjAddr: 0x2E0, symBinAddr: 0x10000E940, symSize: 0xA4 }
  - { offsetInCU: 0x79EB, offset: 0x33E40, size: 0x8, addend: 0x0, symName: __ZN5Eigen15DenseCoeffsBaseINS_6MatrixIdLi2ELi1ELi0ELi2ELi1EEELi1EEixEl, symObjAddr: 0x384, symBinAddr: 0x10000E9E4, symSize: 0xA4 }
  - { offsetInCU: 0x7A1E, offset: 0x33E73, size: 0x8, addend: 0x0, symName: __ZNSt3__111__wrap_iterIPKN5Eigen6MatrixIdLi2ELi1ELi0ELi2ELi1EEEEppB8ue170006Ev, symObjAddr: 0x428, symBinAddr: 0x10000EA88, symSize: 0x20 }
  - { offsetInCU: 0x7A42, offset: 0x33E97, size: 0x8, addend: 0x0, symName: __ZNKSt3__111__wrap_iterIPKN5Eigen6MatrixIdLi2ELi1ELi0ELi2ELi1EEEE4baseB8ue170006Ev, symObjAddr: 0x4F8, symBinAddr: 0x10000EAF0, symSize: 0x18 }
  - { offsetInCU: 0x7A66, offset: 0x33EBB, size: 0x8, addend: 0x0, symName: __ZN5Eigen6MatrixIdLi2ELi1ELi0ELi2ELi1EEC2Ev, symObjAddr: 0x5E4, symBinAddr: 0x10000EB08, symSize: 0x30 }
  - { offsetInCU: 0x7A8E, offset: 0x33EE3, size: 0x8, addend: 0x0, symName: __ZNKSt3__16vectorIN5Eigen6MatrixIdLi2ELi1ELi0ELi2ELi1EEENS_9allocatorIS3_EEE11__make_iterB8ue170006EPKS3_, symObjAddr: 0x794, symBinAddr: 0x10000EB38, symSize: 0x30 }
  - { offsetInCU: 0x7AC1, offset: 0x33F16, size: 0x8, addend: 0x0, symName: __ZNSt3__111__wrap_iterIPKN5Eigen6MatrixIdLi2ELi1ELi0ELi2ELi1EEEEC1B8ue170006ES5_, symObjAddr: 0x7C4, symBinAddr: 0x10000EB68, symSize: 0x34 }
  - { offsetInCU: 0x7AF7, offset: 0x33F4C, size: 0x8, addend: 0x0, symName: __ZNSt3__111__wrap_iterIPKN5Eigen6MatrixIdLi2ELi1ELi0ELi2ELi1EEEEC2B8ue170006ES5_, symObjAddr: 0x7F8, symBinAddr: 0x10000EB9C, symSize: 0x20 }
  - { offsetInCU: 0x7B2D, offset: 0x33F82, size: 0x8, addend: 0x0, symName: __ZNK5Eigen9EigenBaseINS_6MatrixIdLi2ELi1ELi0ELi2ELi1EEEE4sizeEv, symObjAddr: 0x818, symBinAddr: 0x10000EBBC, symSize: 0x44 }
  - { offsetInCU: 0x7B51, offset: 0x33FA6, size: 0x8, addend: 0x0, symName: __ZN5Eigen15DenseCoeffsBaseINS_6MatrixIdLi2ELi1ELi0ELi2ELi1EEELi1EE8coeffRefEl, symObjAddr: 0x85C, symBinAddr: 0x10000EC00, symSize: 0x78 }
  - { offsetInCU: 0x7B84, offset: 0x33FD9, size: 0x8, addend: 0x0, symName: __ZNK5Eigen9EigenBaseINS_6MatrixIdLi2ELi1ELi0ELi2ELi1EEEE4rowsEv, symObjAddr: 0x8D4, symBinAddr: 0x10000EC78, symSize: 0x38 }
  - { offsetInCU: 0x7BA8, offset: 0x33FFD, size: 0x8, addend: 0x0, symName: __ZNK5Eigen9EigenBaseINS_6MatrixIdLi2ELi1ELi0ELi2ELi1EEEE4colsEv, symObjAddr: 0x90C, symBinAddr: 0x10000ECB0, symSize: 0x28 }
  - { offsetInCU: 0x7BCC, offset: 0x34021, size: 0x8, addend: 0x0, symName: __ZNK5Eigen9EigenBaseINS_6MatrixIdLi2ELi1ELi0ELi2ELi1EEEE7derivedEv, symObjAddr: 0x934, symBinAddr: 0x10000ECD8, symSize: 0x14 }
  - { offsetInCU: 0x7BF0, offset: 0x34045, size: 0x8, addend: 0x0, symName: __ZNK5Eigen15PlainObjectBaseINS_6MatrixIdLi2ELi1ELi0ELi2ELi1EEEE4rowsEv, symObjAddr: 0x954, symBinAddr: 0x10000ECEC, symSize: 0x20 }
  - { offsetInCU: 0x7C14, offset: 0x34069, size: 0x8, addend: 0x0, symName: __ZN5Eigen12DenseStorageIdLi2ELi2ELi1ELi0EE4rowsEv, symObjAddr: 0x974, symBinAddr: 0x10000ED0C, symSize: 0x8 }
  - { offsetInCU: 0x7C28, offset: 0x3407D, size: 0x8, addend: 0x0, symName: __ZNK5Eigen15PlainObjectBaseINS_6MatrixIdLi2ELi1ELi0ELi2ELi1EEEE4colsEv, symObjAddr: 0x97C, symBinAddr: 0x10000ED14, symSize: 0x20 }
  - { offsetInCU: 0x7C4C, offset: 0x340A1, size: 0x8, addend: 0x0, symName: __ZN5Eigen12DenseStorageIdLi2ELi2ELi1ELi0EE4colsEv, symObjAddr: 0x99C, symBinAddr: 0x10000ED34, symSize: 0x8 }
  - { offsetInCU: 0x7C60, offset: 0x340B5, size: 0x8, addend: 0x0, symName: __ZN5Eigen9EigenBaseINS_6MatrixIdLi2ELi1ELi0ELi2ELi1EEEE7derivedEv, symObjAddr: 0x9A4, symBinAddr: 0x10000ED3C, symSize: 0x14 }
  - { offsetInCU: 0x7C84, offset: 0x340D9, size: 0x8, addend: 0x0, symName: __ZN5Eigen8internal9evaluatorINS_6MatrixIdLi2ELi1ELi0ELi2ELi1EEEEC1ERKS3_, symObjAddr: 0x9B8, symBinAddr: 0x10000ED50, symSize: 0x34 }
  - { offsetInCU: 0x7CBB, offset: 0x34110, size: 0x8, addend: 0x0, symName: __ZN5Eigen8internal9evaluatorINS_15PlainObjectBaseINS_6MatrixIdLi2ELi1ELi0ELi2ELi1EEEEEE8coeffRefEl, symObjAddr: 0x9EC, symBinAddr: 0x10000ED84, symSize: 0x24 }
  - { offsetInCU: 0x7CED, offset: 0x34142, size: 0x8, addend: 0x0, symName: __ZN5Eigen8internal9evaluatorINS_6MatrixIdLi2ELi1ELi0ELi2ELi1EEEED1Ev, symObjAddr: 0xA10, symBinAddr: 0x10000EDA8, symSize: 0x2C }
  - { offsetInCU: 0x7D18, offset: 0x3416D, size: 0x8, addend: 0x0, symName: __ZN5Eigen8internal9evaluatorINS_6MatrixIdLi2ELi1ELi0ELi2ELi1EEEEC2ERKS3_, symObjAddr: 0xA3C, symBinAddr: 0x10000EDD4, symSize: 0x34 }
  - { offsetInCU: 0x7D4F, offset: 0x341A4, size: 0x8, addend: 0x0, symName: __ZN5Eigen8internal9evaluatorINS_15PlainObjectBaseINS_6MatrixIdLi2ELi1ELi0ELi2ELi1EEEEEEC2ERKS5_, symObjAddr: 0xA70, symBinAddr: 0x10000EE08, symSize: 0x78 }
  - { offsetInCU: 0x7D85, offset: 0x341DA, size: 0x8, addend: 0x0, symName: __ZN5Eigen8internal14evaluator_baseINS_6MatrixIdLi2ELi1ELi0ELi2ELi1EEEEC2Ev, symObjAddr: 0xAE8, symBinAddr: 0x10000EE80, symSize: 0x14 }
  - { offsetInCU: 0x7DAD, offset: 0x34202, size: 0x8, addend: 0x0, symName: __ZNK5Eigen15PlainObjectBaseINS_6MatrixIdLi2ELi1ELi0ELi2ELi1EEEE4dataEv, symObjAddr: 0xAFC, symBinAddr: 0x10000EE94, symSize: 0x24 }
  - { offsetInCU: 0x7DD1, offset: 0x34226, size: 0x8, addend: 0x0, symName: __ZN5Eigen8internal30plainobjectbase_evaluator_dataIdLi0EEC1EPKdl, symObjAddr: 0xB20, symBinAddr: 0x10000EEB8, symSize: 0x3C }
  - { offsetInCU: 0x7E15, offset: 0x3426A, size: 0x8, addend: 0x0, symName: __ZN5Eigen8internal14evaluator_baseINS_6MatrixIdLi2ELi1ELi0ELi2ELi1EEEED2Ev, symObjAddr: 0xB5C, symBinAddr: 0x10000EEF4, symSize: 0x14 }
  - { offsetInCU: 0x7E3D, offset: 0x34292, size: 0x8, addend: 0x0, symName: __ZNK5Eigen12DenseStorageIdLi2ELi2ELi1ELi0EE4dataEv, symObjAddr: 0xB70, symBinAddr: 0x10000EF08, symSize: 0x14 }
  - { offsetInCU: 0x7E61, offset: 0x342B6, size: 0x8, addend: 0x0, symName: __ZN5Eigen8internal30plainobjectbase_evaluator_dataIdLi0EEC2EPKdl, symObjAddr: 0xB84, symBinAddr: 0x10000EF1C, symSize: 0x40 }
  - { offsetInCU: 0x7EA5, offset: 0x342FA, size: 0x8, addend: 0x0, symName: __ZN5Eigen8internal9evaluatorINS_6MatrixIdLi2ELi1ELi0ELi2ELi1EEEED2Ev, symObjAddr: 0xBD4, symBinAddr: 0x10000EF6C, symSize: 0x2C }
  - { offsetInCU: 0x7ED0, offset: 0x34325, size: 0x8, addend: 0x0, symName: __ZN5Eigen8internal9evaluatorINS_15PlainObjectBaseINS_6MatrixIdLi2ELi1ELi0ELi2ELi1EEEEEED2Ev, symObjAddr: 0xC00, symBinAddr: 0x10000EF98, symSize: 0x2C }
  - { offsetInCU: 0x7EFA, offset: 0x3434F, size: 0x8, addend: 0x0, symName: __ZNK5Eigen15DenseCoeffsBaseINS_6MatrixIdLi2ELi1ELi0ELi2ELi1EEELi0EE5coeffEl, symObjAddr: 0xC2C, symBinAddr: 0x10000EFC4, symSize: 0x78 }
  - { offsetInCU: 0x7F2C, offset: 0x34381, size: 0x8, addend: 0x0, symName: __ZNK5Eigen8internal9evaluatorINS_15PlainObjectBaseINS_6MatrixIdLi2ELi1ELi0ELi2ELi1EEEEEE5coeffEl, symObjAddr: 0xCA4, symBinAddr: 0x10000F03C, symSize: 0x24 }
  - { offsetInCU: 0x44, offset: 0x34456, size: 0x8, addend: 0x0, symName: __ZN5EigenL4lastE, symObjAddr: 0xA1A00, symBinAddr: 0x10003C150, symSize: 0x0 }
  - { offsetInCU: 0x1390, offset: 0x357A2, size: 0x8, addend: 0x0, symName: __ZN5Eigen8internal28check_static_allocation_sizeIdLi4EEEvv, symObjAddr: 0x11B8, symBinAddr: 0x100010128, symSize: 0x4 }
  - { offsetInCU: 0x13BE, offset: 0x357D0, size: 0x8, addend: 0x0, symName: __ZN5Eigen8internal15call_assignmentINS_6MatrixIdLi2ELi2ELi0ELi2ELi2EEENS_14CwiseNullaryOpINS0_18scalar_identity_opIdEES3_EEEEvRT_RKT0_, symObjAddr: 0x1500, symBinAddr: 0x100010470, symSize: 0x50 }
  - { offsetInCU: 0x1409, offset: 0x3581B, size: 0x8, addend: 0x0, symName: __ZN5Eigen8internal15call_assignmentINS_6MatrixIdLi2ELi2ELi0ELi2ELi2EEENS_14CwiseNullaryOpINS0_18scalar_identity_opIdEES3_EENS0_9assign_opIddEEEEvRT_RKT0_RKT1_NS0_9enable_ifIXntsr25evaluator_assume_aliasingISC_EE5valueEPvE4typeE, symObjAddr: 0x1578, symBinAddr: 0x1000104E8, symSize: 0x38 }
  - { offsetInCU: 0x1477, offset: 0x35889, size: 0x8, addend: 0x0, symName: __ZN5Eigen8internal24call_assignment_no_aliasINS_6MatrixIdLi2ELi2ELi0ELi2ELi2EEENS_14CwiseNullaryOpINS0_18scalar_identity_opIdEES3_EENS0_9assign_opIddEEEEvRT_RKT0_RKT1_, symObjAddr: 0x15DC, symBinAddr: 0x10001054C, symSize: 0x3C }
  - { offsetInCU: 0x1550, offset: 0x35962, size: 0x8, addend: 0x0, symName: __ZN5Eigen8internal18check_for_aliasingINS_6MatrixIdLi2ELi2ELi0ELi2ELi2EEENS_14CwiseNullaryOpINS0_18scalar_identity_opIdEES3_EEEEvRKT_RKT0_, symObjAddr: 0x1658, symBinAddr: 0x1000105C8, symSize: 0x60 }
  - { offsetInCU: 0x159B, offset: 0x359AD, size: 0x8, addend: 0x0, symName: __ZN5Eigen8internal26call_dense_assignment_loopINS_6MatrixIdLi2ELi2ELi0ELi2ELi2EEENS_14CwiseNullaryOpINS0_18scalar_identity_opIdEES3_EENS0_9assign_opIddEEEEvRT_RKT0_RKT1_, symObjAddr: 0x16B8, symBinAddr: 0x100010628, symSize: 0xE0 }
  - { offsetInCU: 0x168D, offset: 0x35A9F, size: 0x8, addend: 0x0, symName: __ZN5Eigen8internal17resize_if_allowedINS_6MatrixIdLi2ELi2ELi0ELi2ELi2EEENS_14CwiseNullaryOpINS0_18scalar_identity_opIdEES3_EEddEEvRT_RKT0_RKNS0_9assign_opIT1_T2_EE, symObjAddr: 0x1830, symBinAddr: 0x1000107A0, symSize: 0xF8 }
  - { offsetInCU: 0x1787, offset: 0x35B99, size: 0x8, addend: 0x0, symName: __ZN5Eigen8internal15call_assignmentINS_6MatrixIdLi2ELi1ELi0ELi2ELi1EEES3_EEvRT_RKT0_, symObjAddr: 0x2374, symBinAddr: 0x1000112C8, symSize: 0x50 }
  - { offsetInCU: 0x17D2, offset: 0x35BE4, size: 0x8, addend: 0x0, symName: __ZN5Eigen8internal15call_assignmentINS_6MatrixIdLi2ELi1ELi0ELi2ELi1EEES3_NS0_9assign_opIddEEEEvRT_RKT0_RKT1_NS0_9enable_ifIXntsr25evaluator_assume_aliasingIS8_EE5valueEPvE4typeE, symObjAddr: 0x23EC, symBinAddr: 0x100011318, symSize: 0x38 }
  - { offsetInCU: 0x1840, offset: 0x35C52, size: 0x8, addend: 0x0, symName: __ZN5Eigen8internal24call_assignment_no_aliasINS_6MatrixIdLi2ELi1ELi0ELi2ELi1EEES3_NS0_9assign_opIddEEEEvRT_RKT0_RKT1_, symObjAddr: 0x2424, symBinAddr: 0x100011350, symSize: 0x3C }
  - { offsetInCU: 0x190E, offset: 0x35D20, size: 0x8, addend: 0x0, symName: __ZN5Eigen8internal18check_for_aliasingINS_6MatrixIdLi2ELi1ELi0ELi2ELi1EEES3_EEvRKT_RKT0_, symObjAddr: 0x24A0, symBinAddr: 0x1000113CC, symSize: 0x14 }
  - { offsetInCU: 0x195A, offset: 0x35D6C, size: 0x8, addend: 0x0, symName: __ZN5Eigen8internal26call_dense_assignment_loopINS_6MatrixIdLi2ELi1ELi0ELi2ELi1EEES3_NS0_9assign_opIddEEEEvRT_RKT0_RKT1_, symObjAddr: 0x24B4, symBinAddr: 0x1000113E0, symSize: 0xE0 }
  - { offsetInCU: 0x1A0E, offset: 0x35E20, size: 0x8, addend: 0x0, symName: __ZN5Eigen8internal17resize_if_allowedINS_6MatrixIdLi2ELi1ELi0ELi2ELi1EEES3_ddEEvRT_RKT0_RKNS0_9assign_opIT1_T2_EE, symObjAddr: 0x25C8, symBinAddr: 0x1000114C0, symSize: 0xF8 }
  - { offsetInCU: 0x1BA2, offset: 0x35FB4, size: 0x8, addend: 0x0, symName: __ZN5Eigen8internal6pstoreId19__simd128_float64_tEEvPT_RKT0_, symObjAddr: 0x2CEC, symBinAddr: 0x1000119E0, symSize: 0x2C }
  - { offsetInCU: 0x1C0B, offset: 0x3601D, size: 0x8, addend: 0x0, symName: __ZN5Eigen8internal5ploadI19__simd128_float64_tEET_PKNS0_15unpacket_traitsIS3_E4typeE, symObjAddr: 0x2D2C, symBinAddr: 0x100011A20, symSize: 0x28 }
  - { offsetInCU: 0x1C5F, offset: 0x36071, size: 0x8, addend: 0x0, symName: __ZN5Eigen8internal15call_assignmentINS_6MatrixIdLi2ELi2ELi0ELi2ELi2EEES3_EEvRT_RKT0_, symObjAddr: 0x2DF8, symBinAddr: 0x100011A94, symSize: 0x50 }
  - { offsetInCU: 0x1CAA, offset: 0x360BC, size: 0x8, addend: 0x0, symName: __ZN5Eigen8internal15call_assignmentINS_6MatrixIdLi2ELi2ELi0ELi2ELi2EEES3_NS0_9assign_opIddEEEEvRT_RKT0_RKT1_NS0_9enable_ifIXntsr25evaluator_assume_aliasingIS8_EE5valueEPvE4typeE, symObjAddr: 0x2E48, symBinAddr: 0x100011AE4, symSize: 0x38 }
  - { offsetInCU: 0x1D18, offset: 0x3612A, size: 0x8, addend: 0x0, symName: __ZN5Eigen8internal24call_assignment_no_aliasINS_6MatrixIdLi2ELi2ELi0ELi2ELi2EEES3_NS0_9assign_opIddEEEEvRT_RKT0_RKT1_, symObjAddr: 0x2E80, symBinAddr: 0x100011B1C, symSize: 0x3C }
  - { offsetInCU: 0x1DE6, offset: 0x361F8, size: 0x8, addend: 0x0, symName: __ZN5Eigen8internal18check_for_aliasingINS_6MatrixIdLi2ELi2ELi0ELi2ELi2EEES3_EEvRKT_RKT0_, symObjAddr: 0x2EFC, symBinAddr: 0x100011B98, symSize: 0x60 }
  - { offsetInCU: 0x1E31, offset: 0x36243, size: 0x8, addend: 0x0, symName: __ZN5Eigen8internal26call_dense_assignment_loopINS_6MatrixIdLi2ELi2ELi0ELi2ELi2EEES3_NS0_9assign_opIddEEEEvRT_RKT0_RKT1_, symObjAddr: 0x2F5C, symBinAddr: 0x100011BF8, symSize: 0xD8 }
  - { offsetInCU: 0x1F23, offset: 0x36335, size: 0x8, addend: 0x0, symName: __ZN5Eigen8internal17resize_if_allowedINS_6MatrixIdLi2ELi2ELi0ELi2ELi2EEES3_ddEEvRT_RKT0_RKNS0_9assign_opIT1_T2_EE, symObjAddr: 0x3048, symBinAddr: 0x100011CE4, symSize: 0xF8 }
  - { offsetInCU: 0x201F, offset: 0x36431, size: 0x8, addend: 0x0, symName: __ZN5Eigen8internal15call_assignmentINS_6MatrixIdLi2ELi1ELi0ELi2ELi1EEES3_NS0_13sub_assign_opIddEEEEvRT_RKT0_RKT1_NS0_9enable_ifIXntsr25evaluator_assume_aliasingIS8_EE5valueEPvE4typeE, symObjAddr: 0x748C, symBinAddr: 0x100014688, symSize: 0x38 }
  - { offsetInCU: 0x208D, offset: 0x3649F, size: 0x8, addend: 0x0, symName: __ZN5Eigen8internal24call_assignment_no_aliasINS_6MatrixIdLi2ELi1ELi0ELi2ELi1EEES3_NS0_13sub_assign_opIddEEEEvRT_RKT0_RKT1_, symObjAddr: 0x74F0, symBinAddr: 0x1000146EC, symSize: 0x3C }
  - { offsetInCU: 0x215B, offset: 0x3656D, size: 0x8, addend: 0x0, symName: __ZN5Eigen8internal26call_dense_assignment_loopINS_6MatrixIdLi2ELi1ELi0ELi2ELi1EEES3_NS0_13sub_assign_opIddEEEEvRT_RKT0_RKT1_, symObjAddr: 0x756C, symBinAddr: 0x100014768, symSize: 0xD8 }
  - { offsetInCU: 0x220F, offset: 0x36621, size: 0x8, addend: 0x0, symName: __ZN5Eigen8internal17resize_if_allowedINS_6MatrixIdLi2ELi1ELi0ELi2ELi1EEES3_NS0_13sub_assign_opIddEEEEvRT_RKT0_RKT1_, symObjAddr: 0x7644, symBinAddr: 0x100014840, symSize: 0xB4 }
  - { offsetInCU: 0x22E4, offset: 0x366F6, size: 0x8, addend: 0x0, symName: __ZN5Eigen8internal4psubI19__simd128_float64_tEET_RKS3_S5_, symObjAddr: 0x795C, symBinAddr: 0x100014B58, symSize: 0x40 }
  - { offsetInCU: 0x23CF, offset: 0x367E1, size: 0x8, addend: 0x0, symName: __ZN5EigenL6lastp1E, symObjAddr: 0xA1A01, symBinAddr: 0x10003C151, symSize: 0x0 }
  - { offsetInCU: 0x23E9, offset: 0x367FB, size: 0x8, addend: 0x0, symName: __ZN5EigenL3allE, symObjAddr: 0xA1A04, symBinAddr: 0x10003C154, symSize: 0x0 }
  - { offsetInCU: 0x2403, offset: 0x36815, size: 0x8, addend: 0x0, symName: __ZN5EigenL3fixILi1EEE, symObjAddr: 0xA1A03, symBinAddr: 0x10003C153, symSize: 0x0 }
  - { offsetInCU: 0x1011D, offset: 0x4452F, size: 0x8, addend: 0x0, symName: __ZNSt3__17advanceB8ue170006IPN5Eigen6MatrixIdLi2ELi1ELi0ELi2ELi1EEEllvEEvRT_T0_, symObjAddr: 0x6410, symBinAddr: 0x100014288, symSize: 0x38 }
  - { offsetInCU: 0x11AF0, offset: 0x45F02, size: 0x8, addend: 0x0, symName: __ZNSt3__1neB8ue170006IPN5Eigen6MatrixIdLi2ELi1ELi0ELi2ELi1EEEEEbRKNS_11__wrap_iterIT_EES9_, symObjAddr: 0x6F8, symBinAddr: 0x10000F6D0, symSize: 0x34 }
  - { offsetInCU: 0x11F66, offset: 0x46378, size: 0x8, addend: 0x0, symName: __ZNSt3__1miB8ue170006IPNS_12basic_stringIcNS_11char_traitsIcEENS_9allocatorIcEEEES7_EEDTmicldtfp_4baseEcldtfp0_4baseEERKNS_11__wrap_iterIT_EERKNS9_IT0_EE, symObjAddr: 0xD3C, symBinAddr: 0x10000FCEC, symSize: 0x48 }
  - { offsetInCU: 0x11FB2, offset: 0x463C4, size: 0x8, addend: 0x0, symName: __ZNSt3__14findB8ue170006INS_11__wrap_iterIPNS_12basic_stringIcNS_11char_traitsIcEENS_9allocatorIcEEEEEES7_EET_SA_SA_RKT0_, symObjAddr: 0xD84, symBinAddr: 0x10000FD34, symSize: 0x78 }
  - { offsetInCU: 0x1201A, offset: 0x4642C, size: 0x8, addend: 0x0, symName: __ZNSt3__1eqB8ue170006IPN5Eigen6MatrixIdLi2ELi1ELi0ELi2ELi1EEEEEbRKNS_11__wrap_iterIT_EES9_, symObjAddr: 0x33CC, symBinAddr: 0x100012068, symSize: 0x48 }
  - { offsetInCU: 0x1205D, offset: 0x4646F, size: 0x8, addend: 0x0, symName: __ZNSt3__122__make_exception_guardB8ue170006INS_6vectorImNS_9allocatorImEEE16__destroy_vectorEEENS_28__exception_guard_exceptionsIT_EES7_, symObjAddr: 0x3B40, symBinAddr: 0x100012558, symSize: 0x40 }
  - { offsetInCU: 0x12092, offset: 0x464A4, size: 0x8, addend: 0x0, symName: __ZNSt3__119__allocate_at_leastB8ue170006INS_9allocatorImEEEENS_19__allocation_resultINS_16allocator_traitsIT_E7pointerEEERS5_m, symObjAddr: 0x3F2C, symBinAddr: 0x100012944, symSize: 0x40 }
  - { offsetInCU: 0x120D5, offset: 0x464E7, size: 0x8, addend: 0x0, symName: __ZNSt3__112__to_addressB8ue170006ImEEPT_S2_, symObjAddr: 0x4508, symBinAddr: 0x100012C68, symSize: 0x14 }
  - { offsetInCU: 0x1210A, offset: 0x4651C, size: 0x8, addend: 0x0, symName: __ZNSt3__122__make_exception_guardB8ue170006INS_6vectorIdNS_9allocatorIdEEE16__destroy_vectorEEENS_28__exception_guard_exceptionsIT_EES7_, symObjAddr: 0x4BD0, symBinAddr: 0x100013228, symSize: 0x40 }
  - { offsetInCU: 0x1213F, offset: 0x46551, size: 0x8, addend: 0x0, symName: __ZNSt3__119__allocate_at_leastB8ue170006INS_9allocatorIdEEEENS_19__allocation_resultINS_16allocator_traitsIT_E7pointerEEERS5_m, symObjAddr: 0x4FBC, symBinAddr: 0x100013614, symSize: 0x40 }
  - { offsetInCU: 0x12182, offset: 0x46594, size: 0x8, addend: 0x0, symName: __ZNSt3__112__to_addressB8ue170006IdEEPT_S2_, symObjAddr: 0x52E0, symBinAddr: 0x100013938, symSize: 0x14 }
  - { offsetInCU: 0x121B7, offset: 0x465C9, size: 0x8, addend: 0x0, symName: __ZNSt3__18distanceB8ue170006IPN5Eigen6MatrixIdLi2ELi1ELi0ELi2ELi1EEEEENS_15iterator_traitsIT_E15difference_typeES6_S6_, symObjAddr: 0x6060, symBinAddr: 0x1000140C4, symSize: 0x2C }
  - { offsetInCU: 0x121FA, offset: 0x4660C, size: 0x8, addend: 0x0, symName: __ZNSt3__14nextB8ue170006IPN5Eigen6MatrixIdLi2ELi1ELi0ELi2ELi1EEEEENS_9enable_ifIXsr29__has_input_iterator_categoryIT_EE5valueES6_E4typeES6_NS_15iterator_traitsIS6_E15difference_typeE, symObjAddr: 0x608C, symBinAddr: 0x1000140F0, symSize: 0x34 }
  - { offsetInCU: 0x1223D, offset: 0x4664F, size: 0x8, addend: 0x0, symName: __ZNSt3__14copyB8ue170006IPN5Eigen6MatrixIdLi2ELi1ELi0ELi2ELi1EEES4_EET0_T_S6_S5_, symObjAddr: 0x60C0, symBinAddr: 0x100014124, symSize: 0x40 }
  - { offsetInCU: 0x12297, offset: 0x466A9, size: 0x8, addend: 0x0, symName: __ZNSt3__16__copyB8ue170006INS_17_ClassicAlgPolicyEPN5Eigen6MatrixIdLi2ELi1ELi0ELi2ELi1EEES5_S5_EENS_4pairIT0_T2_EES7_T1_S8_, symObjAddr: 0x618C, symBinAddr: 0x100014164, symSize: 0x44 }
  - { offsetInCU: 0x12303, offset: 0x46715, size: 0x8, addend: 0x0, symName: __ZNSt3__121__convert_to_integralB8ue170006El, symObjAddr: 0x6448, symBinAddr: 0x1000142C0, symSize: 0x14 }
  - { offsetInCU: 0x1232F, offset: 0x46741, size: 0x8, addend: 0x0, symName: __ZNSt3__19__advanceB8ue170006IPN5Eigen6MatrixIdLi2ELi1ELi0ELi2ELi1EEEEEvRT_NS_15iterator_traitsIS5_E15difference_typeENS_26random_access_iterator_tagE, symObjAddr: 0x645C, symBinAddr: 0x1000142D4, symSize: 0x28 }
  - { offsetInCU: 0x12379, offset: 0x4678B, size: 0x8, addend: 0x0, symName: __ZNSt3__123__dispatch_copy_or_moveB8ue170006INS_17_ClassicAlgPolicyENS_11__copy_loopIS1_EENS_14__copy_trivialEPN5Eigen6MatrixIdLi2ELi1ELi0ELi2ELi1EEES8_S8_EENS_4pairIT2_T4_EESA_T3_SB_, symObjAddr: 0x6DC8, symBinAddr: 0x1000142FC, symSize: 0x44 }
  - { offsetInCU: 0x123F7, offset: 0x46809, size: 0x8, addend: 0x0, symName: __ZNSt3__121__unwrap_and_dispatchB8ue170006INS_10__overloadINS_11__copy_loopINS_17_ClassicAlgPolicyEEENS_14__copy_trivialEEEPN5Eigen6MatrixIdLi2ELi1ELi0ELi2ELi1EEESA_SA_Li0EEENS_4pairIT0_T2_EESC_T1_SD_, symObjAddr: 0x6E0C, symBinAddr: 0x100014340, symSize: 0xB4 }
  - { offsetInCU: 0x124E0, offset: 0x468F2, size: 0x8, addend: 0x0, symName: __ZNSt3__114__rewrap_rangeB8ue170006IPN5Eigen6MatrixIdLi2ELi1ELi0ELi2ELi1EEES4_EET_S5_T0_, symObjAddr: 0x6F48, symBinAddr: 0x10001447C, symSize: 0x2C }
  - { offsetInCU: 0x1252C, offset: 0x4693E, size: 0x8, addend: 0x0, symName: __ZNSt3__110__distanceB8ue170006IPN5Eigen6MatrixIdLi2ELi1ELi0ELi2ELi1EEEEENS_15iterator_traitsIT_E15difference_typeES6_S6_NS_26random_access_iterator_tagE, symObjAddr: 0x73A4, symBinAddr: 0x1000145A0, symSize: 0x28 }
  - { offsetInCU: 0x12579, offset: 0x4698B, size: 0x8, addend: 0x0, symName: __ZNSt3__142__uninitialized_allocator_move_if_noexceptB8ue170006INS_9allocatorImEENS_16reverse_iteratorIPmEES5_mvEET1_RT_T0_S9_S6_, symObjAddr: 0x7D5C, symBinAddr: 0x100014F58, symSize: 0x78 }
  - { offsetInCU: 0x125F6, offset: 0x46A08, size: 0x8, addend: 0x0, symName: __ZNSt3__14swapB8ue170006IPmEENS_9enable_ifIXaasr21is_move_constructibleIT_EE5valuesr18is_move_assignableIS3_EE5valueEvE4typeERS3_S6_, symObjAddr: 0x7E20, symBinAddr: 0x10001501C, symSize: 0x3C }
  - { offsetInCU: 0x12647, offset: 0x46A59, size: 0x8, addend: 0x0, symName: __ZNSt3__14moveB8ue170006INS_16reverse_iteratorIPmEES3_EET0_T_S5_S4_, symObjAddr: 0x7E5C, symBinAddr: 0x100015058, symSize: 0x78 }
  - { offsetInCU: 0x126A1, offset: 0x46AB3, size: 0x8, addend: 0x0, symName: __ZNSt3__16__moveB8ue170006INS_17_ClassicAlgPolicyENS_16reverse_iteratorIPmEES4_S4_EENS_4pairIT0_T2_EES6_T1_S7_, symObjAddr: 0x7ED4, symBinAddr: 0x1000150D0, symSize: 0x64 }
  - { offsetInCU: 0x1270D, offset: 0x46B1F, size: 0x8, addend: 0x0, symName: __ZNSt3__123__dispatch_copy_or_moveB8ue170006INS_17_ClassicAlgPolicyENS_11__move_loopIS1_EENS_14__move_trivialENS_16reverse_iteratorIPmEES7_S7_EENS_4pairIT2_T4_EES9_T3_SA_, symObjAddr: 0x7F38, symBinAddr: 0x100015134, symSize: 0x64 }
  - { offsetInCU: 0x1278B, offset: 0x46B9D, size: 0x8, addend: 0x0, symName: __ZNSt3__121__unwrap_and_dispatchB8ue170006INS_10__overloadINS_11__move_loopINS_17_ClassicAlgPolicyEEENS_14__move_trivialEEENS_16reverse_iteratorIPmEES9_S9_Li0EEENS_4pairIT0_T2_EESB_T1_SC_, symObjAddr: 0x7F9C, symBinAddr: 0x100015198, symSize: 0x12C }
  - { offsetInCU: 0x1281B, offset: 0x46C2D, size: 0x8, addend: 0x0, symName: __ZNSt3__114__unwrap_rangeB8ue170006INS_16reverse_iteratorIPmEES3_EENS_4pairIT0_S5_EET_S7_, symObjAddr: 0x80C8, symBinAddr: 0x1000152C4, symSize: 0x84 }
  - { offsetInCU: 0x129CC, offset: 0x46DDE, size: 0x8, addend: 0x0, symName: __ZNSt3__113__unwrap_iterB8ue170006INS_16reverse_iteratorIPmEENS_18__unwrap_iter_implIS3_Lb0EEELi0EEEDTclsrT0_8__unwrapclsr3stdE7declvalIT_EEEES7_, symObjAddr: 0x81EC, symBinAddr: 0x1000153E8, symSize: 0x44 }
  - { offsetInCU: 0x12A10, offset: 0x46E22, size: 0x8, addend: 0x0, symName: __ZNSt3__19make_pairB8ue170006INS_16reverse_iteratorIPmEES3_EENS_4pairINS_18__unwrap_ref_decayIT_E4typeENS5_IT0_E4typeEEEOS6_OS9_, symObjAddr: 0x8230, symBinAddr: 0x10001542C, symSize: 0x38 }
  - { offsetInCU: 0x12A5F, offset: 0x46E71, size: 0x8, addend: 0x0, symName: __ZNSt3__114__rewrap_rangeB8ue170006INS_16reverse_iteratorIPmEES3_EET_S4_T0_, symObjAddr: 0x8268, symBinAddr: 0x100015464, symSize: 0x5C }
  - { offsetInCU: 0x12AAB, offset: 0x46EBD, size: 0x8, addend: 0x0, symName: __ZNSt3__113__rewrap_iterB8ue170006INS_16reverse_iteratorIPmEES3_NS_18__unwrap_iter_implIS3_Lb0EEEEET_S6_T0_, symObjAddr: 0x82C4, symBinAddr: 0x1000154C0, symSize: 0x74 }
  - { offsetInCU: 0x12B00, offset: 0x46F12, size: 0x8, addend: 0x0, symName: __ZNSt3__1neB8ue170006IPmS1_EEbRKNS_16reverse_iteratorIT_EERKNS2_IT0_EE, symObjAddr: 0x8338, symBinAddr: 0x100015534, symSize: 0x48 }
  - { offsetInCU: 0x12C31, offset: 0x47043, size: 0x8, addend: 0x0, symName: __ZNSt3__142__uninitialized_allocator_move_if_noexceptB8ue170006INS_9allocatorIdEENS_16reverse_iteratorIPdEES5_dvEET1_RT_T0_S9_S6_, symObjAddr: 0x8A74, symBinAddr: 0x100015C70, symSize: 0x78 }
  - { offsetInCU: 0x12CAE, offset: 0x470C0, size: 0x8, addend: 0x0, symName: __ZNSt3__14swapB8ue170006IPdEENS_9enable_ifIXaasr21is_move_constructibleIT_EE5valuesr18is_move_assignableIS3_EE5valueEvE4typeERS3_S6_, symObjAddr: 0x8B38, symBinAddr: 0x100015D34, symSize: 0x3C }
  - { offsetInCU: 0x12CFF, offset: 0x47111, size: 0x8, addend: 0x0, symName: __ZNSt3__14moveB8ue170006INS_16reverse_iteratorIPdEES3_EET0_T_S5_S4_, symObjAddr: 0x8B74, symBinAddr: 0x100015D70, symSize: 0x78 }
  - { offsetInCU: 0x12D59, offset: 0x4716B, size: 0x8, addend: 0x0, symName: __ZNSt3__16__moveB8ue170006INS_17_ClassicAlgPolicyENS_16reverse_iteratorIPdEES4_S4_EENS_4pairIT0_T2_EES6_T1_S7_, symObjAddr: 0x8BEC, symBinAddr: 0x100015DE8, symSize: 0x64 }
  - { offsetInCU: 0x12DC5, offset: 0x471D7, size: 0x8, addend: 0x0, symName: __ZNSt3__123__dispatch_copy_or_moveB8ue170006INS_17_ClassicAlgPolicyENS_11__move_loopIS1_EENS_14__move_trivialENS_16reverse_iteratorIPdEES7_S7_EENS_4pairIT2_T4_EES9_T3_SA_, symObjAddr: 0x8C50, symBinAddr: 0x100015E4C, symSize: 0x64 }
  - { offsetInCU: 0x12E43, offset: 0x47255, size: 0x8, addend: 0x0, symName: __ZNSt3__121__unwrap_and_dispatchB8ue170006INS_10__overloadINS_11__move_loopINS_17_ClassicAlgPolicyEEENS_14__move_trivialEEENS_16reverse_iteratorIPdEES9_S9_Li0EEENS_4pairIT0_T2_EESB_T1_SC_, symObjAddr: 0x8CB4, symBinAddr: 0x100015EB0, symSize: 0x12C }
  - { offsetInCU: 0x12ED3, offset: 0x472E5, size: 0x8, addend: 0x0, symName: __ZNSt3__114__unwrap_rangeB8ue170006INS_16reverse_iteratorIPdEES3_EENS_4pairIT0_S5_EET_S7_, symObjAddr: 0x8DE0, symBinAddr: 0x100015FDC, symSize: 0x84 }
  - { offsetInCU: 0x12FF3, offset: 0x47405, size: 0x8, addend: 0x0, symName: __ZNSt3__113__unwrap_iterB8ue170006INS_16reverse_iteratorIPdEENS_18__unwrap_iter_implIS3_Lb0EEELi0EEEDTclsrT0_8__unwrapclsr3stdE7declvalIT_EEEES7_, symObjAddr: 0x8F04, symBinAddr: 0x100016100, symSize: 0x44 }
  - { offsetInCU: 0x13037, offset: 0x47449, size: 0x8, addend: 0x0, symName: __ZNSt3__19make_pairB8ue170006INS_16reverse_iteratorIPdEES3_EENS_4pairINS_18__unwrap_ref_decayIT_E4typeENS5_IT0_E4typeEEEOS6_OS9_, symObjAddr: 0x8F48, symBinAddr: 0x100016144, symSize: 0x38 }
  - { offsetInCU: 0x13086, offset: 0x47498, size: 0x8, addend: 0x0, symName: __ZNSt3__114__rewrap_rangeB8ue170006INS_16reverse_iteratorIPdEES3_EET_S4_T0_, symObjAddr: 0x8F80, symBinAddr: 0x10001617C, symSize: 0x5C }
  - { offsetInCU: 0x130D2, offset: 0x474E4, size: 0x8, addend: 0x0, symName: __ZNSt3__113__rewrap_iterB8ue170006INS_16reverse_iteratorIPdEES3_NS_18__unwrap_iter_implIS3_Lb0EEEEET_S6_T0_, symObjAddr: 0x8FDC, symBinAddr: 0x1000161D8, symSize: 0x74 }
  - { offsetInCU: 0x13127, offset: 0x47539, size: 0x8, addend: 0x0, symName: __ZNSt3__1neB8ue170006IPdS1_EEbRKNS_16reverse_iteratorIT_EERKNS2_IT0_EE, symObjAddr: 0x9050, symBinAddr: 0x10001624C, symSize: 0x48 }
  - { offsetInCU: 0x131DF, offset: 0x475F1, size: 0x8, addend: 0x0, symName: __ZNSt3__112__to_addressB8ue170006INS_8functionIFNS_10unique_ptrIN3icp3ICPENS_14default_deleteIS4_EEEEmdEEEEEPT_SB_, symObjAddr: 0x9640, symBinAddr: 0x10001683C, symSize: 0x14 }
  - { offsetInCU: 0x13214, offset: 0x47626, size: 0x8, addend: 0x0, symName: __ZNSt3__119__allocate_at_leastB8ue170006INS_9allocatorINS_8functionIFNS_10unique_ptrIN3icp3ICPENS_14default_deleteIS5_EEEEmdEEEEEEENS_19__allocation_resultINS_16allocator_traitsIT_E7pointerEEERSE_m, symObjAddr: 0x9DDC, symBinAddr: 0x100016FD8, symSize: 0x40 }
  - { offsetInCU: 0x13257, offset: 0x47669, size: 0x8, addend: 0x0, symName: __ZNSt3__142__uninitialized_allocator_move_if_noexceptB8ue170006INS_9allocatorINS_8functionIFNS_10unique_ptrIN3icp3ICPENS_14default_deleteIS5_EEEEmdEEEEENS_16reverse_iteratorIPSA_EESE_SE_EET2_RT_T0_T1_SF_, symObjAddr: 0xA048, symBinAddr: 0x100017244, symSize: 0x12C }
  - { offsetInCU: 0x132F7, offset: 0x47709, size: 0x8, addend: 0x0, symName: __ZNSt3__14swapB8ue170006IPNS_8functionIFNS_10unique_ptrIN3icp3ICPENS_14default_deleteIS4_EEEEmdEEEEENS_9enable_ifIXaasr21is_move_constructibleIT_EE5valuesr18is_move_assignableISC_EE5valueEvE4typeERSC_SF_, symObjAddr: 0xA1C0, symBinAddr: 0x1000173BC, symSize: 0x3C }
  - { offsetInCU: 0x13348, offset: 0x4775A, size: 0x8, addend: 0x0, symName: __ZNSt3__122__make_exception_guardB8ue170006INS_29_AllocatorDestroyRangeReverseINS_9allocatorINS_8functionIFNS_10unique_ptrIN3icp3ICPENS_14default_deleteIS6_EEEEmdEEEEENS_16reverse_iteratorIPSB_EEEEEENS_28__exception_guard_exceptionsIT_EESI_, symObjAddr: 0xA2F0, symBinAddr: 0x1000174EC, symSize: 0x4C }
  - { offsetInCU: 0x1337E, offset: 0x47790, size: 0x8, addend: 0x0, symName: __ZNSt3__1neB8ue170006IPNS_8functionIFNS_10unique_ptrIN3icp3ICPENS_14default_deleteIS4_EEEEmdEEESA_EEbRKNS_16reverse_iteratorIT_EERKNSB_IT0_EE, symObjAddr: 0xA380, symBinAddr: 0x10001757C, symSize: 0x48 }
  - { offsetInCU: 0x133CA, offset: 0x477DC, size: 0x8, addend: 0x0, symName: __ZNSt3__112__to_addressB8ue170006INS_16reverse_iteratorIPNS_8functionIFNS_10unique_ptrIN3icp3ICPENS_14default_deleteIS5_EEEEmdEEEEEvEEu7__decayIDTclsr19__to_address_helperIT_EE6__callclsr3stdE7declvalIRKSD_EEEEESF_, symObjAddr: 0xA3FC, symBinAddr: 0x1000175F8, symSize: 0x24 }
  - { offsetInCU: 0x1342A, offset: 0x4783C, size: 0x8, addend: 0x0, symName: __ZNSt3__119__allocator_destroyB8ue170006INS_9allocatorINS_8functionIFNS_10unique_ptrIN3icp3ICPENS_14default_deleteIS5_EEEEmdEEEEENS_16reverse_iteratorINSC_IPSA_EEEESF_EEvRT_T0_T1_, symObjAddr: 0xA83C, symBinAddr: 0x100017A38, symSize: 0x70 }
  - { offsetInCU: 0x1348F, offset: 0x478A1, size: 0x8, addend: 0x0, symName: __ZNSt3__1neB8ue170006INS_16reverse_iteratorIPNS_8functionIFNS_10unique_ptrIN3icp3ICPENS_14default_deleteIS5_EEEEmdEEEEESC_EEbRKNS1_IT_EERKNS1_IT0_EE, symObjAddr: 0xA8E8, symBinAddr: 0x100017AE4, symSize: 0x60 }
  - { offsetInCU: 0x134DB, offset: 0x478ED, size: 0x8, addend: 0x0, symName: __ZNSt3__112__to_addressB8ue170006INS_16reverse_iteratorINS1_IPNS_8functionIFNS_10unique_ptrIN3icp3ICPENS_14default_deleteIS5_EEEEmdEEEEEEEvEEu7__decayIDTclsr19__to_address_helperIT_EE6__callclsr3stdE7declvalIRKSE_EEEEESG_, symObjAddr: 0xA974, symBinAddr: 0x100017B70, symSize: 0x24 }
  - { offsetInCU: 0x1353B, offset: 0x4794D, size: 0x8, addend: 0x0, symName: __ZNSt3__112__to_addressB8ue170006INS_12basic_stringIcNS_11char_traitsIcEENS_9allocatorIcEEEEEEPT_S8_, symObjAddr: 0xB0EC, symBinAddr: 0x1000182E8, symSize: 0x14 }
  - { offsetInCU: 0x13570, offset: 0x47982, size: 0x8, addend: 0x0, symName: __ZNSt3__119__allocate_at_leastB8ue170006INS_9allocatorINS_12basic_stringIcNS_11char_traitsIcEENS1_IcEEEEEEEENS_19__allocation_resultINS_16allocator_traitsIT_E7pointerEEERSA_m, symObjAddr: 0xB730, symBinAddr: 0x10001892C, symSize: 0x40 }
  - { offsetInCU: 0x135B3, offset: 0x479C5, size: 0x8, addend: 0x0, symName: __ZNSt3__142__uninitialized_allocator_move_if_noexceptB8ue170006INS_9allocatorINS_12basic_stringIcNS_11char_traitsIcEENS1_IcEEEEEENS_16reverse_iteratorIPS6_EESA_SA_EET2_RT_T0_T1_SB_, symObjAddr: 0xB9BC, symBinAddr: 0x100018BB8, symSize: 0x12C }
  - { offsetInCU: 0x13653, offset: 0x47A65, size: 0x8, addend: 0x0, symName: __ZNSt3__14swapB8ue170006IPNS_12basic_stringIcNS_11char_traitsIcEENS_9allocatorIcEEEEEENS_9enable_ifIXaasr21is_move_constructibleIT_EE5valuesr18is_move_assignableIS9_EE5valueEvE4typeERS9_SC_, symObjAddr: 0xBB34, symBinAddr: 0x100018D30, symSize: 0x3C }
  - { offsetInCU: 0x136A4, offset: 0x47AB6, size: 0x8, addend: 0x0, symName: __ZNSt3__122__make_exception_guardB8ue170006INS_29_AllocatorDestroyRangeReverseINS_9allocatorINS_12basic_stringIcNS_11char_traitsIcEENS2_IcEEEEEENS_16reverse_iteratorIPS7_EEEEEENS_28__exception_guard_exceptionsIT_EESE_, symObjAddr: 0xBC80, symBinAddr: 0x100018E7C, symSize: 0x4C }
  - { offsetInCU: 0x136DA, offset: 0x47AEC, size: 0x8, addend: 0x0, symName: __ZNSt3__1neB8ue170006IPNS_12basic_stringIcNS_11char_traitsIcEENS_9allocatorIcEEEES7_EEbRKNS_16reverse_iteratorIT_EERKNS8_IT0_EE, symObjAddr: 0xBD10, symBinAddr: 0x100018F0C, symSize: 0x48 }
  - { offsetInCU: 0x13726, offset: 0x47B38, size: 0x8, addend: 0x0, symName: __ZNSt3__112__to_addressB8ue170006INS_16reverse_iteratorIPNS_12basic_stringIcNS_11char_traitsIcEENS_9allocatorIcEEEEEEvEEu7__decayIDTclsr19__to_address_helperIT_EE6__callclsr3stdE7declvalIRKSA_EEEEESC_, symObjAddr: 0xBD8C, symBinAddr: 0x100018F88, symSize: 0x24 }
  - { offsetInCU: 0x13786, offset: 0x47B98, size: 0x8, addend: 0x0, symName: __ZNSt3__119__allocator_destroyB8ue170006INS_9allocatorINS_12basic_stringIcNS_11char_traitsIcEENS1_IcEEEEEENS_16reverse_iteratorINS8_IPS6_EEEESB_EEvRT_T0_T1_, symObjAddr: 0xC168, symBinAddr: 0x100019268, symSize: 0x70 }
  - { offsetInCU: 0x137EB, offset: 0x47BFD, size: 0x8, addend: 0x0, symName: __ZNSt3__1neB8ue170006INS_16reverse_iteratorIPNS_12basic_stringIcNS_11char_traitsIcEENS_9allocatorIcEEEEEES9_EEbRKNS1_IT_EERKNS1_IT0_EE, symObjAddr: 0xC214, symBinAddr: 0x100019314, symSize: 0x60 }
  - { offsetInCU: 0x13837, offset: 0x47C49, size: 0x8, addend: 0x0, symName: __ZNSt3__112__to_addressB8ue170006INS_16reverse_iteratorINS1_IPNS_12basic_stringIcNS_11char_traitsIcEENS_9allocatorIcEEEEEEEEvEEu7__decayIDTclsr19__to_address_helperIT_EE6__callclsr3stdE7declvalIRKSB_EEEEESD_, symObjAddr: 0xC2A0, symBinAddr: 0x1000193A0, symSize: 0x24 }
  - { offsetInCU: 0x13897, offset: 0x47CA9, size: 0x8, addend: 0x0, symName: __ZNSt3__113__rewrap_iterB8ue170006INS_11__wrap_iterIPNS_12basic_stringIcNS_11char_traitsIcEENS_9allocatorIcEEEEEES8_NS_18__unwrap_iter_implIS9_Lb1EEEEET_SC_T0_, symObjAddr: 0xC72C, symBinAddr: 0x10001982C, symSize: 0x4C }
  - { offsetInCU: 0x138EC, offset: 0x47CFE, size: 0x8, addend: 0x0, symName: __ZNSt3__111__find_implB8ue170006IPNS_12basic_stringIcNS_11char_traitsIcEENS_9allocatorIcEEEES7_S6_NS_10__identityEEET_S9_T0_RKT1_RT2_, symObjAddr: 0xC778, symBinAddr: 0x100019878, symSize: 0x7C }
  - { offsetInCU: 0x13966, offset: 0x47D78, size: 0x8, addend: 0x0, symName: __ZNSt3__113__unwrap_iterB8ue170006INS_11__wrap_iterIPNS_12basic_stringIcNS_11char_traitsIcEENS_9allocatorIcEEEEEENS_18__unwrap_iter_implIS9_Lb1EEELi0EEEDTclsrT0_8__unwrapclsr3stdE7declvalIT_EEEESD_, symObjAddr: 0xC7F4, symBinAddr: 0x1000198F4, symSize: 0x2C }
  - { offsetInCU: 0x139FD, offset: 0x47E0F, size: 0x8, addend: 0x0, symName: __ZNSt3__112__to_addressB8ue170006INS_11__wrap_iterIPNS_12basic_stringIcNS_11char_traitsIcEENS_9allocatorIcEEEEEEvEEu7__decayIDTclsr19__to_address_helperIT_EE6__callclsr3stdE7declvalIRKSA_EEEEESC_, symObjAddr: 0xC8B8, symBinAddr: 0x1000199B8, symSize: 0x24 }
  - { offsetInCU: 0x13AD9, offset: 0x47EEB, size: 0x8, addend: 0x0, symName: __ZNSt3__1eqB8ue170006INS_9allocatorIcEEEEbRKNS_12basic_stringIcNS_11char_traitsIcEET_EES9_, symObjAddr: 0xC968, symBinAddr: 0x100019A68, symSize: 0x148 }
  - { offsetInCU: 0x13B4C, offset: 0x47F5E, size: 0x8, addend: 0x0, symName: __ZNSt3__18__invokeB8ue170006IRNS_10__identityEJRNS_12basic_stringIcNS_11char_traitsIcEENS_9allocatorIcEEEEEEEDTclclsr3stdE7declvalIT_EEspclsr3stdE7declvalIT0_EEEEOSA_DpOSB_, symObjAddr: 0xCAB0, symBinAddr: 0x100019BB0, symSize: 0x2C }
  - { offsetInCU: 0x13BCA, offset: 0x47FDC, size: 0x8, addend: 0x0, symName: __ZNSt3__125__throw_bad_function_callB8ue170006Ev, symObjAddr: 0xCDD0, symBinAddr: 0x100019CBC, symSize: 0x38 }
  - { offsetInCU: 0x13FF0, offset: 0x48402, size: 0x8, addend: 0x0, symName: __ZN3icpL6globalE, symObjAddr: 0xA1A08, symBinAddr: 0x10003C158, symSize: 0x0 }
  - { offsetInCU: 0x14267, offset: 0x48679, size: 0x8, addend: 0x0, symName: __ZN3icpL21ensure_methods_existsEv, symObjAddr: 0xB28, symBinAddr: 0x10000FAD8, symSize: 0x64 }
  - { offsetInCU: 0x151D1, offset: 0x495E3, size: 0x8, addend: 0x0, symName: __ZNSt3__16vectorImNS_9allocatorImEEE26__swap_out_circular_bufferERNS_14__split_bufferImRS2_EE, symObjAddr: 0x79F4, symBinAddr: 0x100014BF0, symSize: 0x110 }
  - { offsetInCU: 0x15226, offset: 0x49638, size: 0x8, addend: 0x0, symName: __ZNSt3__16vectorIdNS_9allocatorIdEEE26__swap_out_circular_bufferERNS_14__split_bufferIdRS2_EE, symObjAddr: 0x870C, symBinAddr: 0x100015908, symSize: 0x110 }
  - { offsetInCU: 0x1527B, offset: 0x4968D, size: 0x8, addend: 0x0, symName: __ZNSt3__16vectorINS_8functionIFNS_10unique_ptrIN3icp3ICPENS_14default_deleteIS4_EEEEmdEEENS_9allocatorIS9_EEE26__swap_out_circular_bufferERNS_14__split_bufferIS9_RSB_EE, symObjAddr: 0x99DC, symBinAddr: 0x100016BD8, symSize: 0x110 }
  - { offsetInCU: 0x1530C, offset: 0x4971E, size: 0x8, addend: 0x0, symName: __ZNSt3__16vectorINS_12basic_stringIcNS_11char_traitsIcEENS_9allocatorIcEEEENS4_IS6_EEE26__swap_out_circular_bufferERNS_14__split_bufferIS6_RS7_EE, symObjAddr: 0xB320, symBinAddr: 0x10001851C, symSize: 0x110 }
  - { offsetInCU: 0x1712A, offset: 0x4B53C, size: 0x8, addend: 0x0, symName: __ZN3icp3ICPC2Emd, symObjAddr: 0xB0, symBinAddr: 0x10000F10C, symSize: 0xFC }
  - { offsetInCU: 0x17170, offset: 0x4B582, size: 0x8, addend: 0x0, symName: __ZN3icp11RBTransformC1Ev, symObjAddr: 0x1AC, symBinAddr: 0x10000F208, symSize: 0x2C }
  - { offsetInCU: 0x17198, offset: 0x4B5AA, size: 0x8, addend: 0x0, symName: __ZNSt3__16vectorImNS_9allocatorImEEEC1Em, symObjAddr: 0x230, symBinAddr: 0x10000F234, symSize: 0x34 }
  - { offsetInCU: 0x171D1, offset: 0x4B5E3, size: 0x8, addend: 0x0, symName: __ZNSt3__16vectorIdNS_9allocatorIdEEEC1Em, symObjAddr: 0x264, symBinAddr: 0x10000F268, symSize: 0x34 }
  - { offsetInCU: 0x1720A, offset: 0x4B61C, size: 0x8, addend: 0x0, symName: __ZNSt3__16vectorImNS_9allocatorImEEED1B8ue170006Ev, symObjAddr: 0x298, symBinAddr: 0x10000F29C, symSize: 0x2C }
  - { offsetInCU: 0x17232, offset: 0x4B644, size: 0x8, addend: 0x0, symName: __ZN3icp3ICPC2Ed, symObjAddr: 0x2F0, symBinAddr: 0x10000F2C8, symSize: 0x94 }
  - { offsetInCU: 0x1726A, offset: 0x4B67C, size: 0x8, addend: 0x0, symName: __ZNSt3__16vectorImNS_9allocatorImEEEC1B8ue170006Ev, symObjAddr: 0x384, symBinAddr: 0x10000F35C, symSize: 0x2C }
  - { offsetInCU: 0x17292, offset: 0x4B6A4, size: 0x8, addend: 0x0, symName: __ZNSt3__16vectorIdNS_9allocatorIdEEEC1B8ue170006Ev, symObjAddr: 0x3B0, symBinAddr: 0x10000F388, symSize: 0x2C }
  - { offsetInCU: 0x172BA, offset: 0x4B6CC, size: 0x8, addend: 0x0, symName: __ZN3icp3ICP5setupEv, symObjAddr: 0x3DC, symBinAddr: 0x10000F3B4, symSize: 0x10 }
  - { offsetInCU: 0x172E1, offset: 0x4B6F3, size: 0x8, addend: 0x0, symName: __ZN3icp3ICP5beginERKNSt3__16vectorIN5Eigen6MatrixIdLi2ELi1ELi0ELi2ELi1EEENS1_9allocatorIS5_EEEESA_NS_11RBTransformE, symObjAddr: 0x3EC, symBinAddr: 0x10000F3C4, symSize: 0x1C8 }
  - { offsetInCU: 0x173EB, offset: 0x4B7FD, size: 0x8, addend: 0x0, symName: __ZN3icp11RBTransformaSERKS0_, symObjAddr: 0x5B4, symBinAddr: 0x10000F58C, symSize: 0x48 }
  - { offsetInCU: 0x1741A, offset: 0x4B82C, size: 0x8, addend: 0x0, symName: __ZNSt3__16vectorIN5Eigen6MatrixIdLi2ELi1ELi0ELi2ELi1EEENS_9allocatorIS3_EEEaSB8ue170006ERKS6_, symObjAddr: 0x5FC, symBinAddr: 0x10000F5D4, symSize: 0x68 }
  - { offsetInCU: 0x1744F, offset: 0x4B861, size: 0x8, addend: 0x0, symName: __ZN5Eigen6MatrixIdLi2ELi1ELi0ELi2ELi1EEaSEOS1_, symObjAddr: 0x664, symBinAddr: 0x10000F63C, symSize: 0x34 }
  - { offsetInCU: 0x17482, offset: 0x4B894, size: 0x8, addend: 0x0, symName: __ZNSt3__16vectorIN5Eigen6MatrixIdLi2ELi1ELi0ELi2ELi1EEENS_9allocatorIS3_EEE5beginB8ue170006Ev, symObjAddr: 0x698, symBinAddr: 0x10000F670, symSize: 0x30 }
  - { offsetInCU: 0x174A8, offset: 0x4B8BA, size: 0x8, addend: 0x0, symName: __ZNSt3__16vectorIN5Eigen6MatrixIdLi2ELi1ELi0ELi2ELi1EEENS_9allocatorIS3_EEE3endB8ue170006Ev, symObjAddr: 0x6C8, symBinAddr: 0x10000F6A0, symSize: 0x30 }
  - { offsetInCU: 0x174CE, offset: 0x4B8E0, size: 0x8, addend: 0x0, symName: __ZNKSt3__111__wrap_iterIPN5Eigen6MatrixIdLi2ELi1ELi0ELi2ELi1EEEEdeB8ue170006Ev, symObjAddr: 0x72C, symBinAddr: 0x10000F704, symSize: 0x18 }
  - { offsetInCU: 0x174F2, offset: 0x4B904, size: 0x8, addend: 0x0, symName: __ZN5Eigen10MatrixBaseINS_6MatrixIdLi2ELi1ELi0ELi2ELi1EEEEmIIS2_EERS2_RKNS0_IT_EE, symObjAddr: 0x744, symBinAddr: 0x10000F71C, symSize: 0x64 }
  - { offsetInCU: 0x1752F, offset: 0x4B941, size: 0x8, addend: 0x0, symName: __ZNSt3__111__wrap_iterIPN5Eigen6MatrixIdLi2ELi1ELi0ELi2ELi1EEEEppB8ue170006Ev, symObjAddr: 0x7A8, symBinAddr: 0x10000F780, symSize: 0x20 }
  - { offsetInCU: 0x17553, offset: 0x4B965, size: 0x8, addend: 0x0, symName: __ZNSt3__114numeric_limitsIdE8infinityB8ue170006Ev, symObjAddr: 0x7C8, symBinAddr: 0x10000F7A0, symSize: 0x14 }
  - { offsetInCU: 0x17567, offset: 0x4B979, size: 0x8, addend: 0x0, symName: __ZNSt3__16vectorImNS_9allocatorImEEE7reserveEm, symObjAddr: 0x804, symBinAddr: 0x10000F7B4, symSize: 0xE8 }
  - { offsetInCU: 0x175C1, offset: 0x4B9D3, size: 0x8, addend: 0x0, symName: __ZNSt3__16vectorIdNS_9allocatorIdEEE7reserveEm, symObjAddr: 0x8EC, symBinAddr: 0x10000F89C, symSize: 0xE8 }
  - { offsetInCU: 0x1761B, offset: 0x4BA2D, size: 0x8, addend: 0x0, symName: __ZN3icp3ICP8convergeEd, symObjAddr: 0x9D4, symBinAddr: 0x10000F984, symSize: 0xC8 }
  - { offsetInCU: 0x1764F, offset: 0x4BA61, size: 0x8, addend: 0x0, symName: __ZNK3icp3ICP4costEv, symObjAddr: 0xA9C, symBinAddr: 0x10000FA4C, symSize: 0x18 }
  - { offsetInCU: 0x17676, offset: 0x4BA88, size: 0x8, addend: 0x0, symName: __ZNK3icp3ICP17current_transformEv, symObjAddr: 0xAB4, symBinAddr: 0x10000FA64, symSize: 0x18 }
  - { offsetInCU: 0x1769D, offset: 0x4BAAF, size: 0x8, addend: 0x0, symName: __ZN3icp3ICP15register_methodENSt3__112basic_stringIcNS1_11char_traitsIcEENS1_9allocatorIcEEEENS1_8functionIFNS1_10unique_ptrIS0_NS1_14default_deleteIS0_EEEEmdEEE, symObjAddr: 0xACC, symBinAddr: 0x10000FA7C, symSize: 0x5C }
  - { offsetInCU: 0x176D2, offset: 0x4BAE4, size: 0x8, addend: 0x0, symName: __ZNSt3__16vectorINS_8functionIFNS_10unique_ptrIN3icp3ICPENS_14default_deleteIS4_EEEEmdEEENS_9allocatorIS9_EEE9push_backB8ue170006ERKS9_, symObjAddr: 0xB8C, symBinAddr: 0x10000FB3C, symSize: 0x6C }
  - { offsetInCU: 0x17707, offset: 0x4BB19, size: 0x8, addend: 0x0, symName: __ZNSt3__16vectorINS_12basic_stringIcNS_11char_traitsIcEENS_9allocatorIcEEEENS4_IS6_EEE9push_backB8ue170006ERKS6_, symObjAddr: 0xBF8, symBinAddr: 0x10000FBA8, symSize: 0x6C }
  - { offsetInCU: 0x1773C, offset: 0x4BB4E, size: 0x8, addend: 0x0, symName: __ZN3icp3ICP18registered_methodsEv, symObjAddr: 0xC64, symBinAddr: 0x10000FC14, symSize: 0x1C }
  - { offsetInCU: 0x17752, offset: 0x4BB64, size: 0x8, addend: 0x0, symName: __ZN3icp3ICP11from_methodENSt3__112basic_stringIcNS1_11char_traitsIcEENS1_9allocatorIcEEEEmd, symObjAddr: 0xC80, symBinAddr: 0x10000FC30, symSize: 0xBC }
  - { offsetInCU: 0x177A2, offset: 0x4BBB4, size: 0x8, addend: 0x0, symName: __ZNSt3__16vectorINS_12basic_stringIcNS_11char_traitsIcEENS_9allocatorIcEEEENS4_IS6_EEE5beginB8ue170006Ev, symObjAddr: 0xDFC, symBinAddr: 0x10000FDAC, symSize: 0x30 }
  - { offsetInCU: 0x177C8, offset: 0x4BBDA, size: 0x8, addend: 0x0, symName: __ZNSt3__16vectorINS_12basic_stringIcNS_11char_traitsIcEENS_9allocatorIcEEEENS4_IS6_EEE3endB8ue170006Ev, symObjAddr: 0xE2C, symBinAddr: 0x10000FDDC, symSize: 0x30 }
  - { offsetInCU: 0x177EE, offset: 0x4BC00, size: 0x8, addend: 0x0, symName: __ZNSt3__16vectorINS_8functionIFNS_10unique_ptrIN3icp3ICPENS_14default_deleteIS4_EEEEmdEEENS_9allocatorIS9_EEEixB8ue170006Em, symObjAddr: 0xE5C, symBinAddr: 0x10000FE0C, symSize: 0x24 }
  - { offsetInCU: 0x17824, offset: 0x4BC36, size: 0x8, addend: 0x0, symName: __ZNKSt3__18functionIFNS_10unique_ptrIN3icp3ICPENS_14default_deleteIS3_EEEEmdEEclEmd, symObjAddr: 0xE80, symBinAddr: 0x10000FE30, symSize: 0x40 }
  - { offsetInCU: 0x17868, offset: 0x4BC7A, size: 0x8, addend: 0x0, symName: __ZN3icp3ICPD1Ev, symObjAddr: 0xEC0, symBinAddr: 0x10000FE70, symSize: 0x14 }
  - { offsetInCU: 0x17890, offset: 0x4BCA2, size: 0x8, addend: 0x0, symName: __ZN3icp3ICPD0Ev, symObjAddr: 0xED4, symBinAddr: 0x10000FE84, symSize: 0xC }
  - { offsetInCU: 0x178B8, offset: 0x4BCCA, size: 0x8, addend: 0x0, symName: __ZN3icp11RBTransformC2Ev, symObjAddr: 0xF20, symBinAddr: 0x10000FE90, symSize: 0x54 }
  - { offsetInCU: 0x178E0, offset: 0x4BCF2, size: 0x8, addend: 0x0, symName: __ZN5Eigen6MatrixIdLi2ELi2ELi0ELi2ELi2EEC1Ev, symObjAddr: 0xF74, symBinAddr: 0x10000FEE4, symSize: 0x2C }
  - { offsetInCU: 0x17908, offset: 0x4BD1A, size: 0x8, addend: 0x0, symName: __ZN5Eigen10MatrixBaseINS_6MatrixIdLi2ELi2ELi0ELi2ELi2EEEE8IdentityEv, symObjAddr: 0xFA0, symBinAddr: 0x10000FF10, symSize: 0x40 }
  - { offsetInCU: 0x1791F, offset: 0x4BD31, size: 0x8, addend: 0x0, symName: __ZN5Eigen6MatrixIdLi2ELi2ELi0ELi2ELi2EEaSINS_14CwiseNullaryOpINS_8internal18scalar_identity_opIdEES1_EEEERS1_RKNS_9DenseBaseIT_EE, symObjAddr: 0xFE0, symBinAddr: 0x10000FF50, symSize: 0x2C }
  - { offsetInCU: 0x1795A, offset: 0x4BD6C, size: 0x8, addend: 0x0, symName: __ZN5Eigen6MatrixIdLi2ELi2ELi0ELi2ELi2EEC2Ev, symObjAddr: 0x100C, symBinAddr: 0x10000FF7C, symSize: 0x30 }
  - { offsetInCU: 0x17982, offset: 0x4BD94, size: 0x8, addend: 0x0, symName: __ZN5Eigen15PlainObjectBaseINS_6MatrixIdLi2ELi2ELi0ELi2ELi2EEEEC2Ev, symObjAddr: 0x103C, symBinAddr: 0x10000FFAC, symSize: 0x34 }
  - { offsetInCU: 0x179AA, offset: 0x4BDBC, size: 0x8, addend: 0x0, symName: __ZN5Eigen15PlainObjectBaseINS_6MatrixIdLi2ELi2ELi0ELi2ELi2EEEE22_check_template_paramsEv, symObjAddr: 0x1070, symBinAddr: 0x10000FFE0, symSize: 0x4 }
  - { offsetInCU: 0x179BE, offset: 0x4BDD0, size: 0x8, addend: 0x0, symName: __ZN5Eigen10MatrixBaseINS_6MatrixIdLi2ELi2ELi0ELi2ELi2EEEEC2Ev, symObjAddr: 0x1074, symBinAddr: 0x10000FFE4, symSize: 0x2C }
  - { offsetInCU: 0x179E6, offset: 0x4BDF8, size: 0x8, addend: 0x0, symName: __ZN5Eigen12DenseStorageIdLi4ELi2ELi2ELi0EEC1Ev, symObjAddr: 0x10A0, symBinAddr: 0x100010010, symSize: 0x2C }
  - { offsetInCU: 0x17A0E, offset: 0x4BE20, size: 0x8, addend: 0x0, symName: __ZN5Eigen9DenseBaseINS_6MatrixIdLi2ELi2ELi0ELi2ELi2EEEEC2Ev, symObjAddr: 0x10CC, symBinAddr: 0x10001003C, symSize: 0x14 }
  - { offsetInCU: 0x17A36, offset: 0x4BE48, size: 0x8, addend: 0x0, symName: __ZN5Eigen12DenseStorageIdLi4ELi2ELi2ELi0EEC2Ev, symObjAddr: 0x10E0, symBinAddr: 0x100010050, symSize: 0x2C }
  - { offsetInCU: 0x17A5E, offset: 0x4BE70, size: 0x8, addend: 0x0, symName: __ZN5Eigen8internal11plain_arrayIdLi4ELi0ELi16EEC1Ev, symObjAddr: 0x110C, symBinAddr: 0x10001007C, symSize: 0x2C }
  - { offsetInCU: 0x17A86, offset: 0x4BE98, size: 0x8, addend: 0x0, symName: __ZN5Eigen8internal11plain_arrayIdLi4ELi0ELi16EEC2Ev, symObjAddr: 0x1138, symBinAddr: 0x1000100A8, symSize: 0x80 }
  - { offsetInCU: 0x17AAE, offset: 0x4BEC0, size: 0x8, addend: 0x0, symName: __ZN5Eigen9DenseBaseINS_6MatrixIdLi2ELi2ELi0ELi2ELi2EEEE11NullaryExprINS_8internal18scalar_identity_opIdEEEEKNS_14CwiseNullaryOpIT_S2_EEllRKS9_, symObjAddr: 0x11BC, symBinAddr: 0x10001012C, symSize: 0x48 }
  - { offsetInCU: 0x17AFB, offset: 0x4BF0D, size: 0x8, addend: 0x0, symName: __ZN5Eigen8internal18scalar_identity_opIdEC1Ev, symObjAddr: 0x1204, symBinAddr: 0x100010174, symSize: 0x2C }
  - { offsetInCU: 0x17B23, offset: 0x4BF35, size: 0x8, addend: 0x0, symName: __ZN5Eigen14CwiseNullaryOpINS_8internal18scalar_identity_opIdEENS_6MatrixIdLi2ELi2ELi0ELi2ELi2EEEEC1EllRKS3_, symObjAddr: 0x1230, symBinAddr: 0x1000101A0, symSize: 0x44 }
  - { offsetInCU: 0x17B75, offset: 0x4BF87, size: 0x8, addend: 0x0, symName: __ZN5Eigen14CwiseNullaryOpINS_8internal18scalar_identity_opIdEENS_6MatrixIdLi2ELi2ELi0ELi2ELi2EEEEC2EllRKS3_, symObjAddr: 0x1274, symBinAddr: 0x1000101E4, symSize: 0x108 }
  - { offsetInCU: 0x17BC7, offset: 0x4BFD9, size: 0x8, addend: 0x0, symName: __ZN5Eigen10MatrixBaseINS_14CwiseNullaryOpINS_8internal18scalar_identity_opIdEENS_6MatrixIdLi2ELi2ELi0ELi2ELi2EEEEEEC2Ev, symObjAddr: 0x137C, symBinAddr: 0x1000102EC, symSize: 0x2C }
  - { offsetInCU: 0x17BEF, offset: 0x4C001, size: 0x8, addend: 0x0, symName: __ZN5Eigen8internal19variable_if_dynamicIlLi2EEC1El, symObjAddr: 0x13A8, symBinAddr: 0x100010318, symSize: 0x34 }
  - { offsetInCU: 0x17C25, offset: 0x4C037, size: 0x8, addend: 0x0, symName: __ZN5Eigen8internal18scalar_identity_opIdEC1ERKS2_, symObjAddr: 0x13DC, symBinAddr: 0x10001034C, symSize: 0x34 }
  - { offsetInCU: 0x17C57, offset: 0x4C069, size: 0x8, addend: 0x0, symName: __ZN5Eigen9DenseBaseINS_14CwiseNullaryOpINS_8internal18scalar_identity_opIdEENS_6MatrixIdLi2ELi2ELi0ELi2ELi2EEEEEEC2Ev, symObjAddr: 0x1410, symBinAddr: 0x100010380, symSize: 0x14 }
  - { offsetInCU: 0x17C7F, offset: 0x4C091, size: 0x8, addend: 0x0, symName: __ZN5Eigen8internal19variable_if_dynamicIlLi2EEC2El, symObjAddr: 0x1424, symBinAddr: 0x100010394, symSize: 0x64 }
  - { offsetInCU: 0x17CB5, offset: 0x4C0C7, size: 0x8, addend: 0x0, symName: __ZN5Eigen8internal18scalar_identity_opIdEC2ERKS2_, symObjAddr: 0x1488, symBinAddr: 0x1000103F8, symSize: 0x18 }
  - { offsetInCU: 0x17CE7, offset: 0x4C0F9, size: 0x8, addend: 0x0, symName: __ZN5Eigen8internal18scalar_identity_opIdEC2Ev, symObjAddr: 0x14A0, symBinAddr: 0x100010410, symSize: 0x14 }
  - { offsetInCU: 0x17D0F, offset: 0x4C121, size: 0x8, addend: 0x0, symName: __ZN5Eigen15PlainObjectBaseINS_6MatrixIdLi2ELi2ELi0ELi2ELi2EEEE4_setINS_14CwiseNullaryOpINS_8internal18scalar_identity_opIdEES2_EEEERS2_RKNS_9DenseBaseIT_EE, symObjAddr: 0x14B4, symBinAddr: 0x100010424, symSize: 0x4C }
  - { offsetInCU: 0x17D4B, offset: 0x4C15D, size: 0x8, addend: 0x0, symName: __ZN5Eigen9EigenBaseINS_6MatrixIdLi2ELi2ELi0ELi2ELi2EEEE7derivedEv, symObjAddr: 0x1550, symBinAddr: 0x1000104C0, symSize: 0x14 }
  - { offsetInCU: 0x17D6F, offset: 0x4C181, size: 0x8, addend: 0x0, symName: __ZNK5Eigen9EigenBaseINS_14CwiseNullaryOpINS_8internal18scalar_identity_opIdEENS_6MatrixIdLi2ELi2ELi0ELi2ELi2EEEEEE7derivedEv, symObjAddr: 0x1564, symBinAddr: 0x1000104D4, symSize: 0x14 }
  - { offsetInCU: 0x17D93, offset: 0x4C1A5, size: 0x8, addend: 0x0, symName: __ZN5Eigen8internal9assign_opIddEC1Ev, symObjAddr: 0x15B0, symBinAddr: 0x100010520, symSize: 0x2C }
  - { offsetInCU: 0x17DBB, offset: 0x4C1CD, size: 0x8, addend: 0x0, symName: __ZN5Eigen8internal10AssignmentINS_6MatrixIdLi2ELi2ELi0ELi2ELi2EEENS_14CwiseNullaryOpINS0_18scalar_identity_opIdEES3_EENS0_9assign_opIddEENS0_11Dense2DenseEvE3runERS3_RKS7_RKS9_, symObjAddr: 0x1618, symBinAddr: 0x100010588, symSize: 0x40 }
  - { offsetInCU: 0x17DFC, offset: 0x4C20E, size: 0x8, addend: 0x0, symName: __ZNK5Eigen15PlainObjectBaseINS_6MatrixIdLi2ELi2ELi0ELi2ELi2EEEE4rowsEv, symObjAddr: 0x1798, symBinAddr: 0x100010708, symSize: 0x20 }
  - { offsetInCU: 0x17E20, offset: 0x4C232, size: 0x8, addend: 0x0, symName: __ZNK5Eigen15PlainObjectBaseINS_6MatrixIdLi2ELi2ELi0ELi2ELi2EEEE4colsEv, symObjAddr: 0x17B8, symBinAddr: 0x100010728, symSize: 0x20 }
  - { offsetInCU: 0x17E44, offset: 0x4C256, size: 0x8, addend: 0x0, symName: __ZN5Eigen8internal27checkTransposeAliasing_implINS_6MatrixIdLi2ELi2ELi0ELi2ELi2EEENS_14CwiseNullaryOpINS0_18scalar_identity_opIdEES3_EELb0EE3runERKS3_RKS7_, symObjAddr: 0x17D8, symBinAddr: 0x100010748, symSize: 0x14 }
  - { offsetInCU: 0x17E6E, offset: 0x4C280, size: 0x8, addend: 0x0, symName: __ZN5Eigen12DenseStorageIdLi4ELi2ELi2ELi0EE4rowsEv, symObjAddr: 0x17EC, symBinAddr: 0x10001075C, symSize: 0x8 }
  - { offsetInCU: 0x17E82, offset: 0x4C294, size: 0x8, addend: 0x0, symName: __ZN5Eigen12DenseStorageIdLi4ELi2ELi2ELi0EE4colsEv, symObjAddr: 0x17F4, symBinAddr: 0x100010764, symSize: 0x8 }
  - { offsetInCU: 0x17E96, offset: 0x4C2A8, size: 0x8, addend: 0x0, symName: __ZN5Eigen8internal9evaluatorINS_14CwiseNullaryOpINS0_18scalar_identity_opIdEENS_6MatrixIdLi2ELi2ELi0ELi2ELi2EEEEEEC1ERKS7_, symObjAddr: 0x17FC, symBinAddr: 0x10001076C, symSize: 0x34 }
  - { offsetInCU: 0x17ECD, offset: 0x4C2DF, size: 0x8, addend: 0x0, symName: __ZN5Eigen8internal9evaluatorINS_6MatrixIdLi2ELi2ELi0ELi2ELi2EEEEC1ERKS3_, symObjAddr: 0x1928, symBinAddr: 0x100010898, symSize: 0x34 }
  - { offsetInCU: 0x17F04, offset: 0x4C316, size: 0x8, addend: 0x0, symName: __ZNK5Eigen9EigenBaseINS_6MatrixIdLi2ELi2ELi0ELi2ELi2EEEE18const_cast_derivedEv, symObjAddr: 0x195C, symBinAddr: 0x1000108CC, symSize: 0x14 }
  - { offsetInCU: 0x17F28, offset: 0x4C33A, size: 0x8, addend: 0x0, symName: __ZN5Eigen8internal31generic_dense_assignment_kernelINS0_9evaluatorINS_6MatrixIdLi2ELi2ELi0ELi2ELi2EEEEENS2_INS_14CwiseNullaryOpINS0_18scalar_identity_opIdEES4_EEEENS0_9assign_opIddEELi0EEC1ERS5_RKSA_RKSC_RS4_, symObjAddr: 0x1970, symBinAddr: 0x1000108E0, symSize: 0x4C }
  - { offsetInCU: 0x17F8C, offset: 0x4C39E, size: 0x8, addend: 0x0, symName: __ZN5Eigen8internal21dense_assignment_loopINS0_31generic_dense_assignment_kernelINS0_9evaluatorINS_6MatrixIdLi2ELi2ELi0ELi2ELi2EEEEENS3_INS_14CwiseNullaryOpINS0_18scalar_identity_opIdEES5_EEEENS0_9assign_opIddEELi0EEELi0ELi2EE3runERSE_, symObjAddr: 0x19BC, symBinAddr: 0x10001092C, symSize: 0x24 }
  - { offsetInCU: 0x17FAF, offset: 0x4C3C1, size: 0x8, addend: 0x0, symName: __ZN5Eigen8internal9evaluatorINS_6MatrixIdLi2ELi2ELi0ELi2ELi2EEEED1Ev, symObjAddr: 0x19E0, symBinAddr: 0x100010950, symSize: 0x2C }
  - { offsetInCU: 0x17FDA, offset: 0x4C3EC, size: 0x8, addend: 0x0, symName: __ZN5Eigen8internal9evaluatorINS_14CwiseNullaryOpINS0_18scalar_identity_opIdEENS_6MatrixIdLi2ELi2ELi0ELi2ELi2EEEEEED1Ev, symObjAddr: 0x1A0C, symBinAddr: 0x10001097C, symSize: 0x2C }
  - { offsetInCU: 0x18004, offset: 0x4C416, size: 0x8, addend: 0x0, symName: __ZN5Eigen8internal9evaluatorINS_14CwiseNullaryOpINS0_18scalar_identity_opIdEENS_6MatrixIdLi2ELi2ELi0ELi2ELi2EEEEEEC2ERKS7_, symObjAddr: 0x1A38, symBinAddr: 0x1000109A8, symSize: 0x74 }
  - { offsetInCU: 0x1803B, offset: 0x4C44D, size: 0x8, addend: 0x0, symName: __ZN5Eigen8internal14evaluator_baseINS_14CwiseNullaryOpINS0_18scalar_identity_opIdEENS_6MatrixIdLi2ELi2ELi0ELi2ELi2EEEEEEC2Ev, symObjAddr: 0x1AAC, symBinAddr: 0x100010A1C, symSize: 0x14 }
  - { offsetInCU: 0x18063, offset: 0x4C475, size: 0x8, addend: 0x0, symName: __ZNK5Eigen14CwiseNullaryOpINS_8internal18scalar_identity_opIdEENS_6MatrixIdLi2ELi2ELi0ELi2ELi2EEEE7functorEv, symObjAddr: 0x1AC0, symBinAddr: 0x100010A30, symSize: 0x18 }
  - { offsetInCU: 0x18087, offset: 0x4C499, size: 0x8, addend: 0x0, symName: __ZN5Eigen8internal14evaluator_baseINS_14CwiseNullaryOpINS0_18scalar_identity_opIdEENS_6MatrixIdLi2ELi2ELi0ELi2ELi2EEEEEED2Ev, symObjAddr: 0x1AD8, symBinAddr: 0x100010A48, symSize: 0x14 }
  - { offsetInCU: 0x180AF, offset: 0x4C4C1, size: 0x8, addend: 0x0, symName: __ZNK5Eigen14CwiseNullaryOpINS_8internal18scalar_identity_opIdEENS_6MatrixIdLi2ELi2ELi0ELi2ELi2EEEE4rowsEv, symObjAddr: 0x1AEC, symBinAddr: 0x100010A5C, symSize: 0x20 }
  - { offsetInCU: 0x180D3, offset: 0x4C4E5, size: 0x8, addend: 0x0, symName: __ZNK5Eigen14CwiseNullaryOpINS_8internal18scalar_identity_opIdEENS_6MatrixIdLi2ELi2ELi0ELi2ELi2EEEE4colsEv, symObjAddr: 0x1B0C, symBinAddr: 0x100010A7C, symSize: 0x20 }
  - { offsetInCU: 0x180F7, offset: 0x4C509, size: 0x8, addend: 0x0, symName: __ZN5Eigen15PlainObjectBaseINS_6MatrixIdLi2ELi2ELi0ELi2ELi2EEEE6resizeEll, symObjAddr: 0x1B2C, symBinAddr: 0x100010A9C, symSize: 0x104 }
  - { offsetInCU: 0x18139, offset: 0x4C54B, size: 0x8, addend: 0x0, symName: __ZN5Eigen8internal19variable_if_dynamicIlLi2EE5valueEv, symObjAddr: 0x1C30, symBinAddr: 0x100010BA0, symSize: 0x8 }
  - { offsetInCU: 0x1814D, offset: 0x4C55F, size: 0x8, addend: 0x0, symName: __ZN5Eigen12DenseStorageIdLi4ELi2ELi2ELi0EE6resizeElll, symObjAddr: 0x1C38, symBinAddr: 0x100010BA8, symSize: 0x1C }
  - { offsetInCU: 0x18192, offset: 0x4C5A4, size: 0x8, addend: 0x0, symName: __ZN5Eigen8internal9evaluatorINS_6MatrixIdLi2ELi2ELi0ELi2ELi2EEEEC2ERKS3_, symObjAddr: 0x1C54, symBinAddr: 0x100010BC4, symSize: 0x34 }
  - { offsetInCU: 0x181C9, offset: 0x4C5DB, size: 0x8, addend: 0x0, symName: __ZN5Eigen8internal9evaluatorINS_15PlainObjectBaseINS_6MatrixIdLi2ELi2ELi0ELi2ELi2EEEEEEC2ERKS5_, symObjAddr: 0x1C88, symBinAddr: 0x100010BF8, symSize: 0x80 }
  - { offsetInCU: 0x181FF, offset: 0x4C611, size: 0x8, addend: 0x0, symName: __ZN5Eigen8internal14evaluator_baseINS_6MatrixIdLi2ELi2ELi0ELi2ELi2EEEEC2Ev, symObjAddr: 0x1D08, symBinAddr: 0x100010C78, symSize: 0x14 }
  - { offsetInCU: 0x18227, offset: 0x4C639, size: 0x8, addend: 0x0, symName: __ZNK5Eigen15PlainObjectBaseINS_6MatrixIdLi2ELi2ELi0ELi2ELi2EEEE4dataEv, symObjAddr: 0x1D1C, symBinAddr: 0x100010C8C, symSize: 0x24 }
  - { offsetInCU: 0x1824B, offset: 0x4C65D, size: 0x8, addend: 0x0, symName: __ZNK5Eigen15DenseCoeffsBaseINS_6MatrixIdLi2ELi2ELi0ELi2ELi2EEELi3EE11outerStrideEv, symObjAddr: 0x1D40, symBinAddr: 0x100010CB0, symSize: 0x38 }
  - { offsetInCU: 0x1826F, offset: 0x4C681, size: 0x8, addend: 0x0, symName: __ZN5Eigen8internal30plainobjectbase_evaluator_dataIdLi2EEC1EPKdl, symObjAddr: 0x1D78, symBinAddr: 0x100010CE8, symSize: 0x3C }
  - { offsetInCU: 0x182B3, offset: 0x4C6C5, size: 0x8, addend: 0x0, symName: __ZN5Eigen8internal14evaluator_baseINS_6MatrixIdLi2ELi2ELi0ELi2ELi2EEEED2Ev, symObjAddr: 0x1DB4, symBinAddr: 0x100010D24, symSize: 0x14 }
  - { offsetInCU: 0x182DB, offset: 0x4C6ED, size: 0x8, addend: 0x0, symName: __ZNK5Eigen12DenseStorageIdLi4ELi2ELi2ELi0EE4dataEv, symObjAddr: 0x1DC8, symBinAddr: 0x100010D38, symSize: 0x14 }
  - { offsetInCU: 0x182FF, offset: 0x4C711, size: 0x8, addend: 0x0, symName: __ZNK5Eigen9EigenBaseINS_6MatrixIdLi2ELi2ELi0ELi2ELi2EEEE7derivedEv, symObjAddr: 0x1DDC, symBinAddr: 0x100010D4C, symSize: 0x14 }
  - { offsetInCU: 0x18323, offset: 0x4C735, size: 0x8, addend: 0x0, symName: __ZNK5Eigen6MatrixIdLi2ELi2ELi0ELi2ELi2EE11outerStrideEv, symObjAddr: 0x1DFC, symBinAddr: 0x100010D60, symSize: 0x34 }
  - { offsetInCU: 0x18347, offset: 0x4C759, size: 0x8, addend: 0x0, symName: __ZNK5Eigen9DenseBaseINS_6MatrixIdLi2ELi2ELi0ELi2ELi2EEEE9innerSizeEv, symObjAddr: 0x1E30, symBinAddr: 0x100010D94, symSize: 0x24 }
  - { offsetInCU: 0x1836B, offset: 0x4C77D, size: 0x8, addend: 0x0, symName: __ZNK5Eigen9EigenBaseINS_6MatrixIdLi2ELi2ELi0ELi2ELi2EEEE4rowsEv, symObjAddr: 0x1E54, symBinAddr: 0x100010DB8, symSize: 0x28 }
  - { offsetInCU: 0x1838F, offset: 0x4C7A1, size: 0x8, addend: 0x0, symName: __ZN5Eigen8internal30plainobjectbase_evaluator_dataIdLi2EEC2EPKdl, symObjAddr: 0x1E7C, symBinAddr: 0x100010DE0, symSize: 0x40 }
  - { offsetInCU: 0x183D3, offset: 0x4C7E5, size: 0x8, addend: 0x0, symName: __ZN5Eigen8internal31generic_dense_assignment_kernelINS0_9evaluatorINS_6MatrixIdLi2ELi2ELi0ELi2ELi2EEEEENS2_INS_14CwiseNullaryOpINS0_18scalar_identity_opIdEES4_EEEENS0_9assign_opIddEELi0EEC2ERS5_RKSA_RKSC_RS4_, symObjAddr: 0x1ECC, symBinAddr: 0x100010E20, symSize: 0x44 }
  - { offsetInCU: 0x18437, offset: 0x4C849, size: 0x8, addend: 0x0, symName: __ZN5Eigen8internal55copy_using_evaluator_DefaultTraversal_CompleteUnrollingINS0_31generic_dense_assignment_kernelINS0_9evaluatorINS_6MatrixIdLi2ELi2ELi0ELi2ELi2EEEEENS3_INS_14CwiseNullaryOpINS0_18scalar_identity_opIdEES5_EEEENS0_9assign_opIddEELi0EEELi0ELi4EE3runERSE_, symObjAddr: 0x1F10, symBinAddr: 0x100010E64, symSize: 0x34 }
  - { offsetInCU: 0x18459, offset: 0x4C86B, size: 0x8, addend: 0x0, symName: __ZN5Eigen8internal31generic_dense_assignment_kernelINS0_9evaluatorINS_6MatrixIdLi2ELi2ELi0ELi2ELi2EEEEENS2_INS_14CwiseNullaryOpINS0_18scalar_identity_opIdEES4_EEEENS0_9assign_opIddEELi0EE23assignCoeffByOuterInnerEll, symObjAddr: 0x1F44, symBinAddr: 0x100010E98, symSize: 0x60 }
  - { offsetInCU: 0x184B9, offset: 0x4C8CB, size: 0x8, addend: 0x0, symName: __ZN5Eigen8internal55copy_using_evaluator_DefaultTraversal_CompleteUnrollingINS0_31generic_dense_assignment_kernelINS0_9evaluatorINS_6MatrixIdLi2ELi2ELi0ELi2ELi2EEEEENS3_INS_14CwiseNullaryOpINS0_18scalar_identity_opIdEES5_EEEENS0_9assign_opIddEELi0EEELi1ELi4EE3runERSE_, symObjAddr: 0x1FA4, symBinAddr: 0x100010EF8, symSize: 0x34 }
  - { offsetInCU: 0x184DB, offset: 0x4C8ED, size: 0x8, addend: 0x0, symName: __ZN5Eigen8internal31generic_dense_assignment_kernelINS0_9evaluatorINS_6MatrixIdLi2ELi2ELi0ELi2ELi2EEEEENS2_INS_14CwiseNullaryOpINS0_18scalar_identity_opIdEES4_EEEENS0_9assign_opIddEELi0EE20rowIndexByOuterInnerEll, symObjAddr: 0x1FD8, symBinAddr: 0x100010F2C, symSize: 0x18 }
  - { offsetInCU: 0x1850D, offset: 0x4C91F, size: 0x8, addend: 0x0, symName: __ZN5Eigen8internal31generic_dense_assignment_kernelINS0_9evaluatorINS_6MatrixIdLi2ELi2ELi0ELi2ELi2EEEEENS2_INS_14CwiseNullaryOpINS0_18scalar_identity_opIdEES4_EEEENS0_9assign_opIddEELi0EE20colIndexByOuterInnerEll, symObjAddr: 0x1FF0, symBinAddr: 0x100010F44, symSize: 0x18 }
  - { offsetInCU: 0x1853F, offset: 0x4C951, size: 0x8, addend: 0x0, symName: __ZN5Eigen8internal31generic_dense_assignment_kernelINS0_9evaluatorINS_6MatrixIdLi2ELi2ELi0ELi2ELi2EEEEENS2_INS_14CwiseNullaryOpINS0_18scalar_identity_opIdEES4_EEEENS0_9assign_opIddEELi0EE11assignCoeffEll, symObjAddr: 0x2008, symBinAddr: 0x100010F5C, symSize: 0x70 }
  - { offsetInCU: 0x18581, offset: 0x4C993, size: 0x8, addend: 0x0, symName: __ZNK5Eigen8internal9assign_opIddE11assignCoeffERdRKd, symObjAddr: 0x2078, symBinAddr: 0x100010FCC, symSize: 0x28 }
  - { offsetInCU: 0x185C1, offset: 0x4C9D3, size: 0x8, addend: 0x0, symName: __ZN5Eigen8internal9evaluatorINS_15PlainObjectBaseINS_6MatrixIdLi2ELi2ELi0ELi2ELi2EEEEEE8coeffRefEll, symObjAddr: 0x20A0, symBinAddr: 0x100010FF4, symSize: 0x5C }
  - { offsetInCU: 0x1860B, offset: 0x4CA1D, size: 0x8, addend: 0x0, symName: __ZNK5Eigen8internal9evaluatorINS_14CwiseNullaryOpINS0_18scalar_identity_opIdEENS_6MatrixIdLi2ELi2ELi0ELi2ELi2EEEEEE5coeffIlEEdT_SA_, symObjAddr: 0x20FC, symBinAddr: 0x100011050, symSize: 0x3C }
  - { offsetInCU: 0x18656, offset: 0x4CA68, size: 0x8, addend: 0x0, symName: __ZNK5Eigen8internal30plainobjectbase_evaluator_dataIdLi2EE11outerStrideEv, symObjAddr: 0x2138, symBinAddr: 0x10001108C, symSize: 0x14 }
  - { offsetInCU: 0x1867F, offset: 0x4CA91, size: 0x8, addend: 0x0, symName: __ZNK5Eigen8internal15nullary_wrapperIdNS0_18scalar_identity_opIdEELb0ELb0ELb1EEclIlEEdRKS3_T_S8_, symObjAddr: 0x214C, symBinAddr: 0x1000110A0, symSize: 0x38 }
  - { offsetInCU: 0x186DE, offset: 0x4CAF0, size: 0x8, addend: 0x0, symName: __ZNK5Eigen8internal18scalar_identity_opIdEclIlEEKdT_S5_, symObjAddr: 0x2184, symBinAddr: 0x1000110D8, symSize: 0x3C }
  - { offsetInCU: 0x18727, offset: 0x4CB39, size: 0x8, addend: 0x0, symName: __ZN5Eigen8internal55copy_using_evaluator_DefaultTraversal_CompleteUnrollingINS0_31generic_dense_assignment_kernelINS0_9evaluatorINS_6MatrixIdLi2ELi2ELi0ELi2ELi2EEEEENS3_INS_14CwiseNullaryOpINS0_18scalar_identity_opIdEES5_EEEENS0_9assign_opIddEELi0EEELi2ELi4EE3runERSE_, symObjAddr: 0x21C0, symBinAddr: 0x100011114, symSize: 0x34 }
  - { offsetInCU: 0x18749, offset: 0x4CB5B, size: 0x8, addend: 0x0, symName: __ZN5Eigen8internal55copy_using_evaluator_DefaultTraversal_CompleteUnrollingINS0_31generic_dense_assignment_kernelINS0_9evaluatorINS_6MatrixIdLi2ELi2ELi0ELi2ELi2EEEEENS3_INS_14CwiseNullaryOpINS0_18scalar_identity_opIdEES5_EEEENS0_9assign_opIddEELi0EEELi3ELi4EE3runERSE_, symObjAddr: 0x21F4, symBinAddr: 0x100011148, symSize: 0x34 }
  - { offsetInCU: 0x1876B, offset: 0x4CB7D, size: 0x8, addend: 0x0, symName: __ZN5Eigen8internal55copy_using_evaluator_DefaultTraversal_CompleteUnrollingINS0_31generic_dense_assignment_kernelINS0_9evaluatorINS_6MatrixIdLi2ELi2ELi0ELi2ELi2EEEEENS3_INS_14CwiseNullaryOpINS0_18scalar_identity_opIdEES5_EEEENS0_9assign_opIddEELi0EEELi4ELi4EE3runERSE_, symObjAddr: 0x2228, symBinAddr: 0x10001117C, symSize: 0x10 }
  - { offsetInCU: 0x18789, offset: 0x4CB9B, size: 0x8, addend: 0x0, symName: __ZN5Eigen8internal9evaluatorINS_6MatrixIdLi2ELi2ELi0ELi2ELi2EEEED2Ev, symObjAddr: 0x2238, symBinAddr: 0x10001118C, symSize: 0x2C }
  - { offsetInCU: 0x187B4, offset: 0x4CBC6, size: 0x8, addend: 0x0, symName: __ZN5Eigen8internal9evaluatorINS_15PlainObjectBaseINS_6MatrixIdLi2ELi2ELi0ELi2ELi2EEEEEED2Ev, symObjAddr: 0x2264, symBinAddr: 0x1000111B8, symSize: 0x2C }
  - { offsetInCU: 0x187DE, offset: 0x4CBF0, size: 0x8, addend: 0x0, symName: __ZN5Eigen8internal9evaluatorINS_14CwiseNullaryOpINS0_18scalar_identity_opIdEENS_6MatrixIdLi2ELi2ELi0ELi2ELi2EEEEEED2Ev, symObjAddr: 0x2290, symBinAddr: 0x1000111E4, symSize: 0x2C }
  - { offsetInCU: 0x18808, offset: 0x4CC1A, size: 0x8, addend: 0x0, symName: __ZN5Eigen8internal9assign_opIddEC2Ev, symObjAddr: 0x22BC, symBinAddr: 0x100011210, symSize: 0x14 }
  - { offsetInCU: 0x18830, offset: 0x4CC42, size: 0x8, addend: 0x0, symName: __ZN5Eigen6MatrixIdLi2ELi1ELi0ELi2ELi1EEaSERKS1_, symObjAddr: 0x22D0, symBinAddr: 0x100011224, symSize: 0x2C }
  - { offsetInCU: 0x18862, offset: 0x4CC74, size: 0x8, addend: 0x0, symName: __ZN5Eigen6MatrixIdLi2ELi2ELi0ELi2ELi2EEaSERKS1_, symObjAddr: 0x22FC, symBinAddr: 0x100011250, symSize: 0x2C }
  - { offsetInCU: 0x18894, offset: 0x4CCA6, size: 0x8, addend: 0x0, symName: __ZN5Eigen15PlainObjectBaseINS_6MatrixIdLi2ELi1ELi0ELi2ELi1EEEE4_setIS2_EERS2_RKNS_9DenseBaseIT_EE, symObjAddr: 0x2328, symBinAddr: 0x10001127C, symSize: 0x4C }
  - { offsetInCU: 0x188D0, offset: 0x4CCE2, size: 0x8, addend: 0x0, symName: __ZN5Eigen8internal10AssignmentINS_6MatrixIdLi2ELi1ELi0ELi2ELi1EEES3_NS0_9assign_opIddEENS0_11Dense2DenseEvE3runERS3_RKS3_RKS5_, symObjAddr: 0x2460, symBinAddr: 0x10001138C, symSize: 0x40 }
  - { offsetInCU: 0x18911, offset: 0x4CD23, size: 0x8, addend: 0x0, symName: __ZNK5Eigen9EigenBaseINS_6MatrixIdLi2ELi1ELi0ELi2ELi1EEEE18const_cast_derivedEv, symObjAddr: 0x26C0, symBinAddr: 0x1000115B8, symSize: 0x14 }
  - { offsetInCU: 0x18935, offset: 0x4CD47, size: 0x8, addend: 0x0, symName: __ZN5Eigen8internal31generic_dense_assignment_kernelINS0_9evaluatorINS_6MatrixIdLi2ELi1ELi0ELi2ELi1EEEEES5_NS0_9assign_opIddEELi0EEC1ERS5_RKS5_RKS7_RS4_, symObjAddr: 0x26D4, symBinAddr: 0x1000115CC, symSize: 0x4C }
  - { offsetInCU: 0x18999, offset: 0x4CDAB, size: 0x8, addend: 0x0, symName: __ZN5Eigen8internal21dense_assignment_loopINS0_31generic_dense_assignment_kernelINS0_9evaluatorINS_6MatrixIdLi2ELi1ELi0ELi2ELi1EEEEES6_NS0_9assign_opIddEELi0EEELi2ELi2EE3runERS9_, symObjAddr: 0x2720, symBinAddr: 0x100011618, symSize: 0x24 }
  - { offsetInCU: 0x189BC, offset: 0x4CDCE, size: 0x8, addend: 0x0, symName: __ZN5Eigen15PlainObjectBaseINS_6MatrixIdLi2ELi1ELi0ELi2ELi1EEEE6resizeEll, symObjAddr: 0x2938, symBinAddr: 0x10001163C, symSize: 0x104 }
  - { offsetInCU: 0x189FE, offset: 0x4CE10, size: 0x8, addend: 0x0, symName: __ZN5Eigen12DenseStorageIdLi2ELi2ELi1ELi0EE6resizeElll, symObjAddr: 0x2A4C, symBinAddr: 0x100011740, symSize: 0x1C }
  - { offsetInCU: 0x18A43, offset: 0x4CE55, size: 0x8, addend: 0x0, symName: __ZN5Eigen8internal31generic_dense_assignment_kernelINS0_9evaluatorINS_6MatrixIdLi2ELi1ELi0ELi2ELi1EEEEES5_NS0_9assign_opIddEELi0EEC2ERS5_RKS5_RKS7_RS4_, symObjAddr: 0x2A68, symBinAddr: 0x10001175C, symSize: 0x44 }
  - { offsetInCU: 0x18AA7, offset: 0x4CEB9, size: 0x8, addend: 0x0, symName: __ZN5Eigen8internal47copy_using_evaluator_innervec_CompleteUnrollingINS0_31generic_dense_assignment_kernelINS0_9evaluatorINS_6MatrixIdLi2ELi1ELi0ELi2ELi1EEEEES6_NS0_9assign_opIddEELi0EEELi0ELi2EE3runERS9_, symObjAddr: 0x2AAC, symBinAddr: 0x1000117A0, symSize: 0x34 }
  - { offsetInCU: 0x18AD7, offset: 0x4CEE9, size: 0x8, addend: 0x0, symName: __ZN5Eigen8internal31generic_dense_assignment_kernelINS0_9evaluatorINS_6MatrixIdLi2ELi1ELi0ELi2ELi1EEEEES5_NS0_9assign_opIddEELi0EE24assignPacketByOuterInnerILi16ELi16E19__simd128_float64_tEEvll, symObjAddr: 0x2AE0, symBinAddr: 0x1000117D4, symSize: 0x60 }
  - { offsetInCU: 0x18B54, offset: 0x4CF66, size: 0x8, addend: 0x0, symName: __ZN5Eigen8internal47copy_using_evaluator_innervec_CompleteUnrollingINS0_31generic_dense_assignment_kernelINS0_9evaluatorINS_6MatrixIdLi2ELi1ELi0ELi2ELi1EEEEES6_NS0_9assign_opIddEELi0EEELi2ELi2EE3runERS9_, symObjAddr: 0x2B40, symBinAddr: 0x100011834, symSize: 0x10 }
  - { offsetInCU: 0x18B73, offset: 0x4CF85, size: 0x8, addend: 0x0, symName: __ZN5Eigen8internal31generic_dense_assignment_kernelINS0_9evaluatorINS_6MatrixIdLi2ELi1ELi0ELi2ELi1EEEEES5_NS0_9assign_opIddEELi0EE20rowIndexByOuterInnerEll, symObjAddr: 0x2B50, symBinAddr: 0x100011844, symSize: 0x18 }
  - { offsetInCU: 0x18BA5, offset: 0x4CFB7, size: 0x8, addend: 0x0, symName: __ZN5Eigen8internal31generic_dense_assignment_kernelINS0_9evaluatorINS_6MatrixIdLi2ELi1ELi0ELi2ELi1EEEEES5_NS0_9assign_opIddEELi0EE20colIndexByOuterInnerEll, symObjAddr: 0x2B68, symBinAddr: 0x10001185C, symSize: 0x18 }
  - { offsetInCU: 0x18BD7, offset: 0x4CFE9, size: 0x8, addend: 0x0, symName: __ZN5Eigen8internal31generic_dense_assignment_kernelINS0_9evaluatorINS_6MatrixIdLi2ELi1ELi0ELi2ELi1EEEEES5_NS0_9assign_opIddEELi0EE12assignPacketILi16ELi16E19__simd128_float64_tEEvll, symObjAddr: 0x2B80, symBinAddr: 0x100011874, symSize: 0x70 }
  - { offsetInCU: 0x18C40, offset: 0x4D052, size: 0x8, addend: 0x0, symName: __ZNK5Eigen8internal9assign_opIddE12assignPacketILi16E19__simd128_float64_tEEvPdRKT0_, symObjAddr: 0x2BF0, symBinAddr: 0x1000118E4, symSize: 0x40 }
  - { offsetInCU: 0x18CBB, offset: 0x4D0CD, size: 0x8, addend: 0x0, symName: __ZN5Eigen8internal9evaluatorINS_15PlainObjectBaseINS_6MatrixIdLi2ELi1ELi0ELi2ELi1EEEEEE8coeffRefEll, symObjAddr: 0x2C30, symBinAddr: 0x100011924, symSize: 0x5C }
  - { offsetInCU: 0x18D05, offset: 0x4D117, size: 0x8, addend: 0x0, symName: __ZNK5Eigen8internal9evaluatorINS_15PlainObjectBaseINS_6MatrixIdLi2ELi1ELi0ELi2ELi1EEEEEE6packetILi16E19__simd128_float64_tEET0_ll, symObjAddr: 0x2C8C, symBinAddr: 0x100011980, symSize: 0x60 }
  - { offsetInCU: 0x18D77, offset: 0x4D189, size: 0x8, addend: 0x0, symName: __ZNK5Eigen8internal30plainobjectbase_evaluator_dataIdLi0EE11outerStrideEv, symObjAddr: 0x2D18, symBinAddr: 0x100011A0C, symSize: 0x14 }
  - { offsetInCU: 0x18D9B, offset: 0x4D1AD, size: 0x8, addend: 0x0, symName: __ZN5Eigen15PlainObjectBaseINS_6MatrixIdLi2ELi2ELi0ELi2ELi2EEEE4_setIS2_EERS2_RKNS_9DenseBaseIT_EE, symObjAddr: 0x2DAC, symBinAddr: 0x100011A48, symSize: 0x4C }
  - { offsetInCU: 0x18DD7, offset: 0x4D1E9, size: 0x8, addend: 0x0, symName: __ZN5Eigen8internal10AssignmentINS_6MatrixIdLi2ELi2ELi0ELi2ELi2EEES3_NS0_9assign_opIddEENS0_11Dense2DenseEvE3runERS3_RKS3_RKS5_, symObjAddr: 0x2EBC, symBinAddr: 0x100011B58, symSize: 0x40 }
  - { offsetInCU: 0x18E18, offset: 0x4D22A, size: 0x8, addend: 0x0, symName: __ZN5Eigen8internal27checkTransposeAliasing_implINS_6MatrixIdLi2ELi2ELi0ELi2ELi2EEES3_Lb0EE3runERKS3_S6_, symObjAddr: 0x3034, symBinAddr: 0x100011CD0, symSize: 0x14 }
  - { offsetInCU: 0x18E42, offset: 0x4D254, size: 0x8, addend: 0x0, symName: __ZN5Eigen8internal31generic_dense_assignment_kernelINS0_9evaluatorINS_6MatrixIdLi2ELi2ELi0ELi2ELi2EEEEES5_NS0_9assign_opIddEELi0EEC1ERS5_RKS5_RKS7_RS4_, symObjAddr: 0x3140, symBinAddr: 0x100011DDC, symSize: 0x4C }
  - { offsetInCU: 0x18EA6, offset: 0x4D2B8, size: 0x8, addend: 0x0, symName: __ZN5Eigen8internal21dense_assignment_loopINS0_31generic_dense_assignment_kernelINS0_9evaluatorINS_6MatrixIdLi2ELi2ELi0ELi2ELi2EEEEES6_NS0_9assign_opIddEELi0EEELi2ELi2EE3runERS9_, symObjAddr: 0x318C, symBinAddr: 0x100011E28, symSize: 0x24 }
  - { offsetInCU: 0x18EC9, offset: 0x4D2DB, size: 0x8, addend: 0x0, symName: __ZN5Eigen8internal31generic_dense_assignment_kernelINS0_9evaluatorINS_6MatrixIdLi2ELi2ELi0ELi2ELi2EEEEES5_NS0_9assign_opIddEELi0EEC2ERS5_RKS5_RKS7_RS4_, symObjAddr: 0x31B0, symBinAddr: 0x100011E4C, symSize: 0x44 }
  - { offsetInCU: 0x18F2D, offset: 0x4D33F, size: 0x8, addend: 0x0, symName: __ZN5Eigen8internal47copy_using_evaluator_innervec_CompleteUnrollingINS0_31generic_dense_assignment_kernelINS0_9evaluatorINS_6MatrixIdLi2ELi2ELi0ELi2ELi2EEEEES6_NS0_9assign_opIddEELi0EEELi0ELi4EE3runERS9_, symObjAddr: 0x31F4, symBinAddr: 0x100011E90, symSize: 0x34 }
  - { offsetInCU: 0x18F50, offset: 0x4D362, size: 0x8, addend: 0x0, symName: __ZN5Eigen8internal31generic_dense_assignment_kernelINS0_9evaluatorINS_6MatrixIdLi2ELi2ELi0ELi2ELi2EEEEES5_NS0_9assign_opIddEELi0EE24assignPacketByOuterInnerILi16ELi16E19__simd128_float64_tEEvll, symObjAddr: 0x3228, symBinAddr: 0x100011EC4, symSize: 0x60 }
  - { offsetInCU: 0x18FCD, offset: 0x4D3DF, size: 0x8, addend: 0x0, symName: __ZN5Eigen8internal47copy_using_evaluator_innervec_CompleteUnrollingINS0_31generic_dense_assignment_kernelINS0_9evaluatorINS_6MatrixIdLi2ELi2ELi0ELi2ELi2EEEEES6_NS0_9assign_opIddEELi0EEELi2ELi4EE3runERS9_, symObjAddr: 0x3288, symBinAddr: 0x100011F24, symSize: 0x34 }
  - { offsetInCU: 0x18FF0, offset: 0x4D402, size: 0x8, addend: 0x0, symName: __ZN5Eigen8internal31generic_dense_assignment_kernelINS0_9evaluatorINS_6MatrixIdLi2ELi2ELi0ELi2ELi2EEEEES5_NS0_9assign_opIddEELi0EE20rowIndexByOuterInnerEll, symObjAddr: 0x32BC, symBinAddr: 0x100011F58, symSize: 0x18 }
  - { offsetInCU: 0x19022, offset: 0x4D434, size: 0x8, addend: 0x0, symName: __ZN5Eigen8internal31generic_dense_assignment_kernelINS0_9evaluatorINS_6MatrixIdLi2ELi2ELi0ELi2ELi2EEEEES5_NS0_9assign_opIddEELi0EE20colIndexByOuterInnerEll, symObjAddr: 0x32D4, symBinAddr: 0x100011F70, symSize: 0x18 }
  - { offsetInCU: 0x19054, offset: 0x4D466, size: 0x8, addend: 0x0, symName: __ZN5Eigen8internal31generic_dense_assignment_kernelINS0_9evaluatorINS_6MatrixIdLi2ELi2ELi0ELi2ELi2EEEEES5_NS0_9assign_opIddEELi0EE12assignPacketILi16ELi16E19__simd128_float64_tEEvll, symObjAddr: 0x32EC, symBinAddr: 0x100011F88, symSize: 0x70 }
  - { offsetInCU: 0x190B3, offset: 0x4D4C5, size: 0x8, addend: 0x0, symName: __ZNK5Eigen8internal9evaluatorINS_15PlainObjectBaseINS_6MatrixIdLi2ELi2ELi0ELi2ELi2EEEEEE6packetILi16E19__simd128_float64_tEET0_ll, symObjAddr: 0x335C, symBinAddr: 0x100011FF8, symSize: 0x60 }
  - { offsetInCU: 0x19125, offset: 0x4D537, size: 0x8, addend: 0x0, symName: __ZN5Eigen8internal47copy_using_evaluator_innervec_CompleteUnrollingINS0_31generic_dense_assignment_kernelINS0_9evaluatorINS_6MatrixIdLi2ELi2ELi0ELi2ELi2EEEEES6_NS0_9assign_opIddEELi0EEELi4ELi4EE3runERS9_, symObjAddr: 0x33BC, symBinAddr: 0x100012058, symSize: 0x10 }
  - { offsetInCU: 0x19144, offset: 0x4D556, size: 0x8, addend: 0x0, symName: __ZNKSt3__111__wrap_iterIPN5Eigen6MatrixIdLi2ELi1ELi0ELi2ELi1EEEE4baseB8ue170006Ev, symObjAddr: 0x3414, symBinAddr: 0x1000120B0, symSize: 0x18 }
  - { offsetInCU: 0x19168, offset: 0x4D57A, size: 0x8, addend: 0x0, symName: __ZNSt3__123__libcpp_numeric_limitsIdLb1EE8infinityB8ue170006Ev, symObjAddr: 0x342C, symBinAddr: 0x1000120C8, symSize: 0xC }
  - { offsetInCU: 0x19181, offset: 0x4D593, size: 0x8, addend: 0x0, symName: __ZN3icp7MethodsC1Ev, symObjAddr: 0x3438, symBinAddr: 0x1000120D4, symSize: 0x2C }
  - { offsetInCU: 0x191AB, offset: 0x4D5BD, size: 0x8, addend: 0x0, symName: __ZN3icp7MethodsC2Ev, symObjAddr: 0x3464, symBinAddr: 0x100012100, symSize: 0x38 }
  - { offsetInCU: 0x191D5, offset: 0x4D5E7, size: 0x8, addend: 0x0, symName: __ZNSt3__16vectorINS_12basic_stringIcNS_11char_traitsIcEENS_9allocatorIcEEEENS4_IS6_EEEC1B8ue170006Ev, symObjAddr: 0x349C, symBinAddr: 0x100012138, symSize: 0x2C }
  - { offsetInCU: 0x191FD, offset: 0x4D60F, size: 0x8, addend: 0x0, symName: __ZNSt3__16vectorINS_8functionIFNS_10unique_ptrIN3icp3ICPENS_14default_deleteIS4_EEEEmdEEENS_9allocatorIS9_EEEC1B8ue170006Ev, symObjAddr: 0x34C8, symBinAddr: 0x100012164, symSize: 0x2C }
  - { offsetInCU: 0x19225, offset: 0x4D637, size: 0x8, addend: 0x0, symName: __ZNSt3__16vectorINS_12basic_stringIcNS_11char_traitsIcEENS_9allocatorIcEEEENS4_IS6_EEEC2B8ue170006Ev, symObjAddr: 0x34F4, symBinAddr: 0x100012190, symSize: 0x4C }
  - { offsetInCU: 0x19257, offset: 0x4D669, size: 0x8, addend: 0x0, symName: __ZNSt3__117__compressed_pairIPNS_12basic_stringIcNS_11char_traitsIcEENS_9allocatorIcEEEENS4_IS6_EEEC1B8ue170006IDnNS_18__default_init_tagEEEOT_OT0_, symObjAddr: 0x3540, symBinAddr: 0x1000121DC, symSize: 0x3C }
  - { offsetInCU: 0x192AD, offset: 0x4D6BF, size: 0x8, addend: 0x0, symName: __ZNSt3__117__compressed_pairIPNS_12basic_stringIcNS_11char_traitsIcEENS_9allocatorIcEEEENS4_IS6_EEEC2B8ue170006IDnNS_18__default_init_tagEEEOT_OT0_, symObjAddr: 0x357C, symBinAddr: 0x100012218, symSize: 0x40 }
  - { offsetInCU: 0x19303, offset: 0x4D715, size: 0x8, addend: 0x0, symName: __ZNSt3__122__compressed_pair_elemIPNS_12basic_stringIcNS_11char_traitsIcEENS_9allocatorIcEEEELi0ELb0EEC2B8ue170006IDnvEEOT_, symObjAddr: 0x35BC, symBinAddr: 0x100012258, symSize: 0x1C }
  - { offsetInCU: 0x19343, offset: 0x4D755, size: 0x8, addend: 0x0, symName: __ZNSt3__122__compressed_pair_elemINS_9allocatorINS_12basic_stringIcNS_11char_traitsIcEENS1_IcEEEEEELi1ELb1EEC2B8ue170006ENS_18__default_init_tagE, symObjAddr: 0x35D8, symBinAddr: 0x100012274, symSize: 0x2C }
  - { offsetInCU: 0x19375, offset: 0x4D787, size: 0x8, addend: 0x0, symName: __ZNSt3__19allocatorINS_12basic_stringIcNS_11char_traitsIcEENS0_IcEEEEEC2B8ue170006Ev, symObjAddr: 0x3604, symBinAddr: 0x1000122A0, symSize: 0x2C }
  - { offsetInCU: 0x1939D, offset: 0x4D7AF, size: 0x8, addend: 0x0, symName: __ZNSt3__116__non_trivial_ifILb1ENS_9allocatorINS_12basic_stringIcNS_11char_traitsIcEENS1_IcEEEEEEEC2B8ue170006Ev, symObjAddr: 0x3630, symBinAddr: 0x1000122CC, symSize: 0x14 }
  - { offsetInCU: 0x193C5, offset: 0x4D7D7, size: 0x8, addend: 0x0, symName: __ZNSt3__16vectorINS_8functionIFNS_10unique_ptrIN3icp3ICPENS_14default_deleteIS4_EEEEmdEEENS_9allocatorIS9_EEEC2B8ue170006Ev, symObjAddr: 0x3644, symBinAddr: 0x1000122E0, symSize: 0x4C }
  - { offsetInCU: 0x193ED, offset: 0x4D7FF, size: 0x8, addend: 0x0, symName: __ZNSt3__117__compressed_pairIPNS_8functionIFNS_10unique_ptrIN3icp3ICPENS_14default_deleteIS4_EEEEmdEEENS_9allocatorIS9_EEEC1B8ue170006IDnNS_18__default_init_tagEEEOT_OT0_, symObjAddr: 0x3690, symBinAddr: 0x10001232C, symSize: 0x3C }
  - { offsetInCU: 0x19443, offset: 0x4D855, size: 0x8, addend: 0x0, symName: __ZNSt3__117__compressed_pairIPNS_8functionIFNS_10unique_ptrIN3icp3ICPENS_14default_deleteIS4_EEEEmdEEENS_9allocatorIS9_EEEC2B8ue170006IDnNS_18__default_init_tagEEEOT_OT0_, symObjAddr: 0x36CC, symBinAddr: 0x100012368, symSize: 0x40 }
  - { offsetInCU: 0x19499, offset: 0x4D8AB, size: 0x8, addend: 0x0, symName: __ZNSt3__122__compressed_pair_elemIPNS_8functionIFNS_10unique_ptrIN3icp3ICPENS_14default_deleteIS4_EEEEmdEEELi0ELb0EEC2B8ue170006IDnvEEOT_, symObjAddr: 0x370C, symBinAddr: 0x1000123A8, symSize: 0x1C }
  - { offsetInCU: 0x194D9, offset: 0x4D8EB, size: 0x8, addend: 0x0, symName: __ZNSt3__122__compressed_pair_elemINS_9allocatorINS_8functionIFNS_10unique_ptrIN3icp3ICPENS_14default_deleteIS5_EEEEmdEEEEELi1ELb1EEC2B8ue170006ENS_18__default_init_tagE, symObjAddr: 0x3728, symBinAddr: 0x1000123C4, symSize: 0x2C }
  - { offsetInCU: 0x1950B, offset: 0x4D91D, size: 0x8, addend: 0x0, symName: __ZNSt3__19allocatorINS_8functionIFNS_10unique_ptrIN3icp3ICPENS_14default_deleteIS4_EEEEmdEEEEC2B8ue170006Ev, symObjAddr: 0x3754, symBinAddr: 0x1000123F0, symSize: 0x2C }
  - { offsetInCU: 0x19533, offset: 0x4D945, size: 0x8, addend: 0x0, symName: __ZNSt3__116__non_trivial_ifILb1ENS_9allocatorINS_8functionIFNS_10unique_ptrIN3icp3ICPENS_14default_deleteIS5_EEEEmdEEEEEEC2B8ue170006Ev, symObjAddr: 0x3780, symBinAddr: 0x10001241C, symSize: 0x14 }
  - { offsetInCU: 0x1955B, offset: 0x4D96D, size: 0x8, addend: 0x0, symName: __ZNKSt3__111__wrap_iterIPNS_12basic_stringIcNS_11char_traitsIcEENS_9allocatorIcEEEEE4baseB8ue170006Ev, symObjAddr: 0x3794, symBinAddr: 0x100012430, symSize: 0x18 }
  - { offsetInCU: 0x1957F, offset: 0x4D991, size: 0x8, addend: 0x0, symName: __ZNSt3__16vectorImNS_9allocatorImEEEC2Em, symObjAddr: 0x3A30, symBinAddr: 0x100012448, symSize: 0xD4 }
  - { offsetInCU: 0x195CD, offset: 0x4D9DF, size: 0x8, addend: 0x0, symName: __ZNSt3__117__compressed_pairIPmNS_9allocatorImEEEC1B8ue170006IDnNS_18__default_init_tagEEEOT_OT0_, symObjAddr: 0x3B04, symBinAddr: 0x10001251C, symSize: 0x3C }
  - { offsetInCU: 0x19623, offset: 0x4DA35, size: 0x8, addend: 0x0, symName: __ZNSt3__16vectorImNS_9allocatorImEEE16__destroy_vectorC1B8ue170006ERS3_, symObjAddr: 0x3B80, symBinAddr: 0x100012598, symSize: 0x34 }
  - { offsetInCU: 0x1965A, offset: 0x4DA6C, size: 0x8, addend: 0x0, symName: __ZNSt3__16vectorImNS_9allocatorImEEE11__vallocateB8ue170006Em, symObjAddr: 0x3BB4, symBinAddr: 0x1000125CC, symSize: 0xAC }
  - { offsetInCU: 0x1969C, offset: 0x4DAAE, size: 0x8, addend: 0x0, symName: __ZNSt3__16vectorImNS_9allocatorImEEE18__construct_at_endEm, symObjAddr: 0x3C60, symBinAddr: 0x100012678, symSize: 0xC8 }
  - { offsetInCU: 0x1970C, offset: 0x4DB1E, size: 0x8, addend: 0x0, symName: __ZNSt3__128__exception_guard_exceptionsINS_6vectorImNS_9allocatorImEEE16__destroy_vectorEE10__completeB8ue170006Ev, symObjAddr: 0x3D28, symBinAddr: 0x100012740, symSize: 0x1C }
  - { offsetInCU: 0x19730, offset: 0x4DB42, size: 0x8, addend: 0x0, symName: __ZNSt3__128__exception_guard_exceptionsINS_6vectorImNS_9allocatorImEEE16__destroy_vectorEED1B8ue170006Ev, symObjAddr: 0x3D44, symBinAddr: 0x10001275C, symSize: 0x2C }
  - { offsetInCU: 0x19758, offset: 0x4DB6A, size: 0x8, addend: 0x0, symName: __ZNSt3__117__compressed_pairIPmNS_9allocatorImEEEC2B8ue170006IDnNS_18__default_init_tagEEEOT_OT0_, symObjAddr: 0x3D70, symBinAddr: 0x100012788, symSize: 0x40 }
  - { offsetInCU: 0x197AE, offset: 0x4DBC0, size: 0x8, addend: 0x0, symName: __ZNSt3__122__compressed_pair_elemIPmLi0ELb0EEC2B8ue170006IDnvEEOT_, symObjAddr: 0x3DB0, symBinAddr: 0x1000127C8, symSize: 0x1C }
  - { offsetInCU: 0x197EE, offset: 0x4DC00, size: 0x8, addend: 0x0, symName: __ZNSt3__122__compressed_pair_elemINS_9allocatorImEELi1ELb1EEC2B8ue170006ENS_18__default_init_tagE, symObjAddr: 0x3DCC, symBinAddr: 0x1000127E4, symSize: 0x2C }
  - { offsetInCU: 0x19820, offset: 0x4DC32, size: 0x8, addend: 0x0, symName: __ZNSt3__19allocatorImEC2B8ue170006Ev, symObjAddr: 0x3DF8, symBinAddr: 0x100012810, symSize: 0x2C }
  - { offsetInCU: 0x19848, offset: 0x4DC5A, size: 0x8, addend: 0x0, symName: __ZNSt3__116__non_trivial_ifILb1ENS_9allocatorImEEEC2B8ue170006Ev, symObjAddr: 0x3E24, symBinAddr: 0x10001283C, symSize: 0x14 }
  - { offsetInCU: 0x19870, offset: 0x4DC82, size: 0x8, addend: 0x0, symName: __ZNSt3__128__exception_guard_exceptionsINS_6vectorImNS_9allocatorImEEE16__destroy_vectorEEC1B8ue170006ES5_, symObjAddr: 0x3E38, symBinAddr: 0x100012850, symSize: 0x34 }
  - { offsetInCU: 0x198A6, offset: 0x4DCB8, size: 0x8, addend: 0x0, symName: __ZNSt3__128__exception_guard_exceptionsINS_6vectorImNS_9allocatorImEEE16__destroy_vectorEEC2B8ue170006ES5_, symObjAddr: 0x3E6C, symBinAddr: 0x100012884, symSize: 0x24 }
  - { offsetInCU: 0x198DC, offset: 0x4DCEE, size: 0x8, addend: 0x0, symName: __ZNSt3__16vectorImNS_9allocatorImEEE16__destroy_vectorC2B8ue170006ERS3_, symObjAddr: 0x3E90, symBinAddr: 0x1000128A8, symSize: 0x20 }
  - { offsetInCU: 0x19913, offset: 0x4DD25, size: 0x8, addend: 0x0, symName: __ZNKSt3__16vectorImNS_9allocatorImEEE8max_sizeEv, symObjAddr: 0x3EB0, symBinAddr: 0x1000128C8, symSize: 0x60 }
  - { offsetInCU: 0x19939, offset: 0x4DD4B, size: 0x8, addend: 0x0, symName: __ZNKSt3__16vectorImNS_9allocatorImEEE20__throw_length_errorB8ue170006Ev, symObjAddr: 0x3F10, symBinAddr: 0x100012928, symSize: 0x1C }
  - { offsetInCU: 0x1995D, offset: 0x4DD6F, size: 0x8, addend: 0x0, symName: __ZNSt3__16vectorImNS_9allocatorImEEE7__allocB8ue170006Ev, symObjAddr: 0x3F6C, symBinAddr: 0x100012984, symSize: 0x28 }
  - { offsetInCU: 0x19981, offset: 0x4DD93, size: 0x8, addend: 0x0, symName: __ZNSt3__16vectorImNS_9allocatorImEEE9__end_capB8ue170006Ev, symObjAddr: 0x3F94, symBinAddr: 0x1000129AC, symSize: 0x28 }
  - { offsetInCU: 0x199A5, offset: 0x4DDB7, size: 0x8, addend: 0x0, symName: __ZNKSt3__16vectorImNS_9allocatorImEEE14__annotate_newB8ue170006Em, symObjAddr: 0x3FBC, symBinAddr: 0x1000129D4, symSize: 0xAC }
  - { offsetInCU: 0x199E2, offset: 0x4DDF4, size: 0x8, addend: 0x0, symName: __ZNSt3__116allocator_traitsINS_9allocatorImEEE8max_sizeB8ue170006IS2_vEEmRKS2_, symObjAddr: 0x4094, symBinAddr: 0x100012A80, symSize: 0x24 }
  - { offsetInCU: 0x19A0F, offset: 0x4DE21, size: 0x8, addend: 0x0, symName: __ZNKSt3__16vectorImNS_9allocatorImEEE7__allocB8ue170006Ev, symObjAddr: 0x40B8, symBinAddr: 0x100012AA4, symSize: 0x28 }
  - { offsetInCU: 0x19A33, offset: 0x4DE45, size: 0x8, addend: 0x0, symName: __ZNKSt3__19allocatorImE8max_sizeB8ue170006Ev, symObjAddr: 0x417C, symBinAddr: 0x100012ACC, symSize: 0x14 }
  - { offsetInCU: 0x19A57, offset: 0x4DE69, size: 0x8, addend: 0x0, symName: __ZNKSt3__117__compressed_pairIPmNS_9allocatorImEEE6secondB8ue170006Ev, symObjAddr: 0x4190, symBinAddr: 0x100012AE0, symSize: 0x24 }
  - { offsetInCU: 0x19A7B, offset: 0x4DE8D, size: 0x8, addend: 0x0, symName: __ZNKSt3__122__compressed_pair_elemINS_9allocatorImEELi1ELb1EE5__getB8ue170006Ev, symObjAddr: 0x41B4, symBinAddr: 0x100012B04, symSize: 0x14 }
  - { offsetInCU: 0x19A9F, offset: 0x4DEB1, size: 0x8, addend: 0x0, symName: __ZNSt3__19allocatorImE8allocateB8ue170006Em, symObjAddr: 0x42B4, symBinAddr: 0x100012B18, symSize: 0x58 }
  - { offsetInCU: 0x19AD1, offset: 0x4DEE3, size: 0x8, addend: 0x0, symName: __ZNSt3__117__compressed_pairIPmNS_9allocatorImEEE6secondB8ue170006Ev, symObjAddr: 0x4410, symBinAddr: 0x100012B70, symSize: 0x24 }
  - { offsetInCU: 0x19AF5, offset: 0x4DF07, size: 0x8, addend: 0x0, symName: __ZNSt3__122__compressed_pair_elemINS_9allocatorImEELi1ELb1EE5__getB8ue170006Ev, symObjAddr: 0x4434, symBinAddr: 0x100012B94, symSize: 0x14 }
  - { offsetInCU: 0x19B19, offset: 0x4DF2B, size: 0x8, addend: 0x0, symName: __ZNSt3__117__compressed_pairIPmNS_9allocatorImEEE5firstB8ue170006Ev, symObjAddr: 0x4448, symBinAddr: 0x100012BA8, symSize: 0x24 }
  - { offsetInCU: 0x19B3D, offset: 0x4DF4F, size: 0x8, addend: 0x0, symName: __ZNSt3__122__compressed_pair_elemIPmLi0ELb0EE5__getB8ue170006Ev, symObjAddr: 0x446C, symBinAddr: 0x100012BCC, symSize: 0x14 }
  - { offsetInCU: 0x19B61, offset: 0x4DF73, size: 0x8, addend: 0x0, symName: __ZNKSt3__16vectorImNS_9allocatorImEEE31__annotate_contiguous_containerB8ue170006EPKvS5_S5_S5_, symObjAddr: 0x4480, symBinAddr: 0x100012BE0, symSize: 0x20 }
  - { offsetInCU: 0x19BB1, offset: 0x4DFC3, size: 0x8, addend: 0x0, symName: __ZNKSt3__16vectorImNS_9allocatorImEEE4dataB8ue170006Ev, symObjAddr: 0x44A0, symBinAddr: 0x100012C00, symSize: 0x28 }
  - { offsetInCU: 0x19BD5, offset: 0x4DFE7, size: 0x8, addend: 0x0, symName: __ZNKSt3__16vectorImNS_9allocatorImEEE8capacityB8ue170006Ev, symObjAddr: 0x44C8, symBinAddr: 0x100012C28, symSize: 0x40 }
  - { offsetInCU: 0x19BF9, offset: 0x4E00B, size: 0x8, addend: 0x0, symName: __ZNKSt3__16vectorImNS_9allocatorImEEE9__end_capB8ue170006Ev, symObjAddr: 0x451C, symBinAddr: 0x100012C7C, symSize: 0x28 }
  - { offsetInCU: 0x19C1D, offset: 0x4E02F, size: 0x8, addend: 0x0, symName: __ZNKSt3__117__compressed_pairIPmNS_9allocatorImEEE5firstB8ue170006Ev, symObjAddr: 0x4544, symBinAddr: 0x100012CA4, symSize: 0x24 }
  - { offsetInCU: 0x19C41, offset: 0x4E053, size: 0x8, addend: 0x0, symName: __ZNKSt3__122__compressed_pair_elemIPmLi0ELb0EE5__getB8ue170006Ev, symObjAddr: 0x4568, symBinAddr: 0x100012CC8, symSize: 0x14 }
  - { offsetInCU: 0x19C7E, offset: 0x4E090, size: 0x8, addend: 0x0, symName: __ZNSt3__16vectorImNS_9allocatorImEEE21_ConstructTransactionC1B8ue170006ERS3_m, symObjAddr: 0x457C, symBinAddr: 0x100012CDC, symSize: 0x3C }
  - { offsetInCU: 0x19CC4, offset: 0x4E0D6, size: 0x8, addend: 0x0, symName: __ZNSt3__116allocator_traitsINS_9allocatorImEEE9constructB8ue170006ImJEvEEvRS2_PT_DpOT0_, symObjAddr: 0x45B8, symBinAddr: 0x100012D18, symSize: 0x2C }
  - { offsetInCU: 0x19D05, offset: 0x4E117, size: 0x8, addend: 0x0, symName: __ZNSt3__16vectorImNS_9allocatorImEEE21_ConstructTransactionD1B8ue170006Ev, symObjAddr: 0x45E4, symBinAddr: 0x100012D44, symSize: 0x2C }
  - { offsetInCU: 0x19D2D, offset: 0x4E13F, size: 0x8, addend: 0x0, symName: __ZNSt3__16vectorImNS_9allocatorImEEE21_ConstructTransactionC2B8ue170006ERS3_m, symObjAddr: 0x4610, symBinAddr: 0x100012D70, symSize: 0x44 }
  - { offsetInCU: 0x19D73, offset: 0x4E185, size: 0x8, addend: 0x0, symName: __ZNSt3__19allocatorImE9constructB8ue170006ImJEEEvPT_DpOT0_, symObjAddr: 0x4654, symBinAddr: 0x100012DB4, symSize: 0x1C }
  - { offsetInCU: 0x19DB3, offset: 0x4E1C5, size: 0x8, addend: 0x0, symName: __ZNSt3__16vectorImNS_9allocatorImEEE21_ConstructTransactionD2B8ue170006Ev, symObjAddr: 0x4670, symBinAddr: 0x100012DD0, symSize: 0x20 }
  - { offsetInCU: 0x19DDB, offset: 0x4E1ED, size: 0x8, addend: 0x0, symName: __ZNSt3__128__exception_guard_exceptionsINS_6vectorImNS_9allocatorImEEE16__destroy_vectorEED2B8ue170006Ev, symObjAddr: 0x4690, symBinAddr: 0x100012DF0, symSize: 0x50 }
  - { offsetInCU: 0x19E03, offset: 0x4E215, size: 0x8, addend: 0x0, symName: __ZNSt3__16vectorImNS_9allocatorImEEE16__destroy_vectorclB8ue170006Ev, symObjAddr: 0x46E0, symBinAddr: 0x100012E40, symSize: 0x90 }
  - { offsetInCU: 0x19E27, offset: 0x4E239, size: 0x8, addend: 0x0, symName: __ZNSt3__16vectorImNS_9allocatorImEEE7__clearB8ue170006Ev, symObjAddr: 0x4770, symBinAddr: 0x100012ED0, symSize: 0x28 }
  - { offsetInCU: 0x19E4B, offset: 0x4E25D, size: 0x8, addend: 0x0, symName: __ZNKSt3__16vectorImNS_9allocatorImEEE17__annotate_deleteB8ue170006Ev, symObjAddr: 0x4798, symBinAddr: 0x100012EF8, symSize: 0xB8 }
  - { offsetInCU: 0x19E6F, offset: 0x4E281, size: 0x8, addend: 0x0, symName: __ZNSt3__116allocator_traitsINS_9allocatorImEEE10deallocateB8ue170006ERS2_Pmm, symObjAddr: 0x4850, symBinAddr: 0x100012FB0, symSize: 0x34 }
  - { offsetInCU: 0x19EB0, offset: 0x4E2C2, size: 0x8, addend: 0x0, symName: __ZNSt3__16vectorImNS_9allocatorImEEE22__base_destruct_at_endB8ue170006EPm, symObjAddr: 0x4884, symBinAddr: 0x100012FE4, symSize: 0x8C }
  - { offsetInCU: 0x19EF2, offset: 0x4E304, size: 0x8, addend: 0x0, symName: __ZNSt3__116allocator_traitsINS_9allocatorImEEE7destroyB8ue170006ImvEEvRS2_PT_, symObjAddr: 0x4910, symBinAddr: 0x100013070, symSize: 0x2C }
  - { offsetInCU: 0x19F2E, offset: 0x4E340, size: 0x8, addend: 0x0, symName: __ZNSt3__19allocatorImE7destroyB8ue170006EPm, symObjAddr: 0x493C, symBinAddr: 0x10001309C, symSize: 0x14 }
  - { offsetInCU: 0x19F60, offset: 0x4E372, size: 0x8, addend: 0x0, symName: __ZNKSt3__16vectorImNS_9allocatorImEEE4sizeB8ue170006Ev, symObjAddr: 0x4950, symBinAddr: 0x1000130B0, symSize: 0x28 }
  - { offsetInCU: 0x19F84, offset: 0x4E396, size: 0x8, addend: 0x0, symName: __ZNSt3__19allocatorImE10deallocateB8ue170006EPmm, symObjAddr: 0x4978, symBinAddr: 0x1000130D8, symSize: 0x40 }
  - { offsetInCU: 0x19FC4, offset: 0x4E3D6, size: 0x8, addend: 0x0, symName: __ZNSt3__16vectorIdNS_9allocatorIdEEEC2Em, symObjAddr: 0x4AC0, symBinAddr: 0x100013118, symSize: 0xD4 }
  - { offsetInCU: 0x1A012, offset: 0x4E424, size: 0x8, addend: 0x0, symName: __ZNSt3__117__compressed_pairIPdNS_9allocatorIdEEEC1B8ue170006IDnNS_18__default_init_tagEEEOT_OT0_, symObjAddr: 0x4B94, symBinAddr: 0x1000131EC, symSize: 0x3C }
  - { offsetInCU: 0x1A068, offset: 0x4E47A, size: 0x8, addend: 0x0, symName: __ZNSt3__16vectorIdNS_9allocatorIdEEE16__destroy_vectorC1B8ue170006ERS3_, symObjAddr: 0x4C10, symBinAddr: 0x100013268, symSize: 0x34 }
  - { offsetInCU: 0x1A09F, offset: 0x4E4B1, size: 0x8, addend: 0x0, symName: __ZNSt3__16vectorIdNS_9allocatorIdEEE11__vallocateB8ue170006Em, symObjAddr: 0x4C44, symBinAddr: 0x10001329C, symSize: 0xAC }
  - { offsetInCU: 0x1A0E1, offset: 0x4E4F3, size: 0x8, addend: 0x0, symName: __ZNSt3__16vectorIdNS_9allocatorIdEEE18__construct_at_endEm, symObjAddr: 0x4CF0, symBinAddr: 0x100013348, symSize: 0xC8 }
  - { offsetInCU: 0x1A151, offset: 0x4E563, size: 0x8, addend: 0x0, symName: __ZNSt3__128__exception_guard_exceptionsINS_6vectorIdNS_9allocatorIdEEE16__destroy_vectorEE10__completeB8ue170006Ev, symObjAddr: 0x4DB8, symBinAddr: 0x100013410, symSize: 0x1C }
  - { offsetInCU: 0x1A175, offset: 0x4E587, size: 0x8, addend: 0x0, symName: __ZNSt3__128__exception_guard_exceptionsINS_6vectorIdNS_9allocatorIdEEE16__destroy_vectorEED1B8ue170006Ev, symObjAddr: 0x4DD4, symBinAddr: 0x10001342C, symSize: 0x2C }
  - { offsetInCU: 0x1A19D, offset: 0x4E5AF, size: 0x8, addend: 0x0, symName: __ZNSt3__117__compressed_pairIPdNS_9allocatorIdEEEC2B8ue170006IDnNS_18__default_init_tagEEEOT_OT0_, symObjAddr: 0x4E00, symBinAddr: 0x100013458, symSize: 0x40 }
  - { offsetInCU: 0x1A1F3, offset: 0x4E605, size: 0x8, addend: 0x0, symName: __ZNSt3__122__compressed_pair_elemIPdLi0ELb0EEC2B8ue170006IDnvEEOT_, symObjAddr: 0x4E40, symBinAddr: 0x100013498, symSize: 0x1C }
  - { offsetInCU: 0x1A233, offset: 0x4E645, size: 0x8, addend: 0x0, symName: __ZNSt3__122__compressed_pair_elemINS_9allocatorIdEELi1ELb1EEC2B8ue170006ENS_18__default_init_tagE, symObjAddr: 0x4E5C, symBinAddr: 0x1000134B4, symSize: 0x2C }
  - { offsetInCU: 0x1A265, offset: 0x4E677, size: 0x8, addend: 0x0, symName: __ZNSt3__19allocatorIdEC2B8ue170006Ev, symObjAddr: 0x4E88, symBinAddr: 0x1000134E0, symSize: 0x2C }
  - { offsetInCU: 0x1A28D, offset: 0x4E69F, size: 0x8, addend: 0x0, symName: __ZNSt3__116__non_trivial_ifILb1ENS_9allocatorIdEEEC2B8ue170006Ev, symObjAddr: 0x4EB4, symBinAddr: 0x10001350C, symSize: 0x14 }
  - { offsetInCU: 0x1A2B5, offset: 0x4E6C7, size: 0x8, addend: 0x0, symName: __ZNSt3__128__exception_guard_exceptionsINS_6vectorIdNS_9allocatorIdEEE16__destroy_vectorEEC1B8ue170006ES5_, symObjAddr: 0x4EC8, symBinAddr: 0x100013520, symSize: 0x34 }
  - { offsetInCU: 0x1A2EB, offset: 0x4E6FD, size: 0x8, addend: 0x0, symName: __ZNSt3__128__exception_guard_exceptionsINS_6vectorIdNS_9allocatorIdEEE16__destroy_vectorEEC2B8ue170006ES5_, symObjAddr: 0x4EFC, symBinAddr: 0x100013554, symSize: 0x24 }
  - { offsetInCU: 0x1A321, offset: 0x4E733, size: 0x8, addend: 0x0, symName: __ZNSt3__16vectorIdNS_9allocatorIdEEE16__destroy_vectorC2B8ue170006ERS3_, symObjAddr: 0x4F20, symBinAddr: 0x100013578, symSize: 0x20 }
  - { offsetInCU: 0x1A358, offset: 0x4E76A, size: 0x8, addend: 0x0, symName: __ZNKSt3__16vectorIdNS_9allocatorIdEEE8max_sizeEv, symObjAddr: 0x4F40, symBinAddr: 0x100013598, symSize: 0x60 }
  - { offsetInCU: 0x1A37E, offset: 0x4E790, size: 0x8, addend: 0x0, symName: __ZNKSt3__16vectorIdNS_9allocatorIdEEE20__throw_length_errorB8ue170006Ev, symObjAddr: 0x4FA0, symBinAddr: 0x1000135F8, symSize: 0x1C }
  - { offsetInCU: 0x1A3A2, offset: 0x4E7B4, size: 0x8, addend: 0x0, symName: __ZNSt3__16vectorIdNS_9allocatorIdEEE7__allocB8ue170006Ev, symObjAddr: 0x4FFC, symBinAddr: 0x100013654, symSize: 0x28 }
  - { offsetInCU: 0x1A3C6, offset: 0x4E7D8, size: 0x8, addend: 0x0, symName: __ZNSt3__16vectorIdNS_9allocatorIdEEE9__end_capB8ue170006Ev, symObjAddr: 0x5024, symBinAddr: 0x10001367C, symSize: 0x28 }
  - { offsetInCU: 0x1A3EA, offset: 0x4E7FC, size: 0x8, addend: 0x0, symName: __ZNKSt3__16vectorIdNS_9allocatorIdEEE14__annotate_newB8ue170006Em, symObjAddr: 0x504C, symBinAddr: 0x1000136A4, symSize: 0xAC }
  - { offsetInCU: 0x1A427, offset: 0x4E839, size: 0x8, addend: 0x0, symName: __ZNSt3__116allocator_traitsINS_9allocatorIdEEE8max_sizeB8ue170006IS2_vEEmRKS2_, symObjAddr: 0x50F8, symBinAddr: 0x100013750, symSize: 0x24 }
  - { offsetInCU: 0x1A454, offset: 0x4E866, size: 0x8, addend: 0x0, symName: __ZNKSt3__16vectorIdNS_9allocatorIdEEE7__allocB8ue170006Ev, symObjAddr: 0x511C, symBinAddr: 0x100013774, symSize: 0x28 }
  - { offsetInCU: 0x1A478, offset: 0x4E88A, size: 0x8, addend: 0x0, symName: __ZNKSt3__19allocatorIdE8max_sizeB8ue170006Ev, symObjAddr: 0x5144, symBinAddr: 0x10001379C, symSize: 0x14 }
  - { offsetInCU: 0x1A49C, offset: 0x4E8AE, size: 0x8, addend: 0x0, symName: __ZNKSt3__117__compressed_pairIPdNS_9allocatorIdEEE6secondB8ue170006Ev, symObjAddr: 0x5158, symBinAddr: 0x1000137B0, symSize: 0x24 }
  - { offsetInCU: 0x1A4C0, offset: 0x4E8D2, size: 0x8, addend: 0x0, symName: __ZNKSt3__122__compressed_pair_elemINS_9allocatorIdEELi1ELb1EE5__getB8ue170006Ev, symObjAddr: 0x517C, symBinAddr: 0x1000137D4, symSize: 0x14 }
  - { offsetInCU: 0x1A4E4, offset: 0x4E8F6, size: 0x8, addend: 0x0, symName: __ZNSt3__19allocatorIdE8allocateB8ue170006Em, symObjAddr: 0x5190, symBinAddr: 0x1000137E8, symSize: 0x58 }
  - { offsetInCU: 0x1A516, offset: 0x4E928, size: 0x8, addend: 0x0, symName: __ZNSt3__117__compressed_pairIPdNS_9allocatorIdEEE6secondB8ue170006Ev, symObjAddr: 0x51E8, symBinAddr: 0x100013840, symSize: 0x24 }
  - { offsetInCU: 0x1A53A, offset: 0x4E94C, size: 0x8, addend: 0x0, symName: __ZNSt3__122__compressed_pair_elemINS_9allocatorIdEELi1ELb1EE5__getB8ue170006Ev, symObjAddr: 0x520C, symBinAddr: 0x100013864, symSize: 0x14 }
  - { offsetInCU: 0x1A55E, offset: 0x4E970, size: 0x8, addend: 0x0, symName: __ZNSt3__117__compressed_pairIPdNS_9allocatorIdEEE5firstB8ue170006Ev, symObjAddr: 0x5220, symBinAddr: 0x100013878, symSize: 0x24 }
  - { offsetInCU: 0x1A582, offset: 0x4E994, size: 0x8, addend: 0x0, symName: __ZNSt3__122__compressed_pair_elemIPdLi0ELb0EE5__getB8ue170006Ev, symObjAddr: 0x5244, symBinAddr: 0x10001389C, symSize: 0x14 }
  - { offsetInCU: 0x1A5A6, offset: 0x4E9B8, size: 0x8, addend: 0x0, symName: __ZNKSt3__16vectorIdNS_9allocatorIdEEE31__annotate_contiguous_containerB8ue170006EPKvS5_S5_S5_, symObjAddr: 0x5258, symBinAddr: 0x1000138B0, symSize: 0x20 }
  - { offsetInCU: 0x1A5F6, offset: 0x4EA08, size: 0x8, addend: 0x0, symName: __ZNKSt3__16vectorIdNS_9allocatorIdEEE4dataB8ue170006Ev, symObjAddr: 0x5278, symBinAddr: 0x1000138D0, symSize: 0x28 }
  - { offsetInCU: 0x1A61A, offset: 0x4EA2C, size: 0x8, addend: 0x0, symName: __ZNKSt3__16vectorIdNS_9allocatorIdEEE8capacityB8ue170006Ev, symObjAddr: 0x52A0, symBinAddr: 0x1000138F8, symSize: 0x40 }
  - { offsetInCU: 0x1A63E, offset: 0x4EA50, size: 0x8, addend: 0x0, symName: __ZNKSt3__16vectorIdNS_9allocatorIdEEE9__end_capB8ue170006Ev, symObjAddr: 0x52F4, symBinAddr: 0x10001394C, symSize: 0x28 }
  - { offsetInCU: 0x1A662, offset: 0x4EA74, size: 0x8, addend: 0x0, symName: __ZNKSt3__117__compressed_pairIPdNS_9allocatorIdEEE5firstB8ue170006Ev, symObjAddr: 0x531C, symBinAddr: 0x100013974, symSize: 0x24 }
  - { offsetInCU: 0x1A686, offset: 0x4EA98, size: 0x8, addend: 0x0, symName: __ZNKSt3__122__compressed_pair_elemIPdLi0ELb0EE5__getB8ue170006Ev, symObjAddr: 0x5340, symBinAddr: 0x100013998, symSize: 0x14 }
  - { offsetInCU: 0x1A6C3, offset: 0x4EAD5, size: 0x8, addend: 0x0, symName: __ZNSt3__16vectorIdNS_9allocatorIdEEE21_ConstructTransactionC1B8ue170006ERS3_m, symObjAddr: 0x5354, symBinAddr: 0x1000139AC, symSize: 0x3C }
  - { offsetInCU: 0x1A709, offset: 0x4EB1B, size: 0x8, addend: 0x0, symName: __ZNSt3__116allocator_traitsINS_9allocatorIdEEE9constructB8ue170006IdJEvEEvRS2_PT_DpOT0_, symObjAddr: 0x5390, symBinAddr: 0x1000139E8, symSize: 0x2C }
  - { offsetInCU: 0x1A74A, offset: 0x4EB5C, size: 0x8, addend: 0x0, symName: __ZNSt3__16vectorIdNS_9allocatorIdEEE21_ConstructTransactionD1B8ue170006Ev, symObjAddr: 0x53BC, symBinAddr: 0x100013A14, symSize: 0x2C }
  - { offsetInCU: 0x1A772, offset: 0x4EB84, size: 0x8, addend: 0x0, symName: __ZNSt3__16vectorIdNS_9allocatorIdEEE21_ConstructTransactionC2B8ue170006ERS3_m, symObjAddr: 0x53E8, symBinAddr: 0x100013A40, symSize: 0x44 }
  - { offsetInCU: 0x1A7B8, offset: 0x4EBCA, size: 0x8, addend: 0x0, symName: __ZNSt3__19allocatorIdE9constructB8ue170006IdJEEEvPT_DpOT0_, symObjAddr: 0x542C, symBinAddr: 0x100013A84, symSize: 0x20 }
  - { offsetInCU: 0x1A7F8, offset: 0x4EC0A, size: 0x8, addend: 0x0, symName: __ZNSt3__16vectorIdNS_9allocatorIdEEE21_ConstructTransactionD2B8ue170006Ev, symObjAddr: 0x544C, symBinAddr: 0x100013AA4, symSize: 0x20 }
  - { offsetInCU: 0x1A820, offset: 0x4EC32, size: 0x8, addend: 0x0, symName: __ZNSt3__128__exception_guard_exceptionsINS_6vectorIdNS_9allocatorIdEEE16__destroy_vectorEED2B8ue170006Ev, symObjAddr: 0x546C, symBinAddr: 0x100013AC4, symSize: 0x50 }
  - { offsetInCU: 0x1A848, offset: 0x4EC5A, size: 0x8, addend: 0x0, symName: __ZNSt3__16vectorIdNS_9allocatorIdEEE16__destroy_vectorclB8ue170006Ev, symObjAddr: 0x54BC, symBinAddr: 0x100013B14, symSize: 0x90 }
  - { offsetInCU: 0x1A86C, offset: 0x4EC7E, size: 0x8, addend: 0x0, symName: __ZNSt3__16vectorIdNS_9allocatorIdEEE7__clearB8ue170006Ev, symObjAddr: 0x554C, symBinAddr: 0x100013BA4, symSize: 0x28 }
  - { offsetInCU: 0x1A890, offset: 0x4ECA2, size: 0x8, addend: 0x0, symName: __ZNKSt3__16vectorIdNS_9allocatorIdEEE17__annotate_deleteB8ue170006Ev, symObjAddr: 0x5574, symBinAddr: 0x100013BCC, symSize: 0xB8 }
  - { offsetInCU: 0x1A8B4, offset: 0x4ECC6, size: 0x8, addend: 0x0, symName: __ZNSt3__116allocator_traitsINS_9allocatorIdEEE10deallocateB8ue170006ERS2_Pdm, symObjAddr: 0x562C, symBinAddr: 0x100013C84, symSize: 0x34 }
  - { offsetInCU: 0x1A8F5, offset: 0x4ED07, size: 0x8, addend: 0x0, symName: __ZNSt3__16vectorIdNS_9allocatorIdEEE22__base_destruct_at_endB8ue170006EPd, symObjAddr: 0x5660, symBinAddr: 0x100013CB8, symSize: 0x8C }
  - { offsetInCU: 0x1A937, offset: 0x4ED49, size: 0x8, addend: 0x0, symName: __ZNSt3__116allocator_traitsINS_9allocatorIdEEE7destroyB8ue170006IdvEEvRS2_PT_, symObjAddr: 0x56EC, symBinAddr: 0x100013D44, symSize: 0x2C }
  - { offsetInCU: 0x1A973, offset: 0x4ED85, size: 0x8, addend: 0x0, symName: __ZNSt3__19allocatorIdE7destroyB8ue170006EPd, symObjAddr: 0x5718, symBinAddr: 0x100013D70, symSize: 0x14 }
  - { offsetInCU: 0x1A9A5, offset: 0x4EDB7, size: 0x8, addend: 0x0, symName: __ZNKSt3__16vectorIdNS_9allocatorIdEEE4sizeB8ue170006Ev, symObjAddr: 0x572C, symBinAddr: 0x100013D84, symSize: 0x28 }
  - { offsetInCU: 0x1A9C9, offset: 0x4EDDB, size: 0x8, addend: 0x0, symName: __ZNSt3__19allocatorIdE10deallocateB8ue170006EPdm, symObjAddr: 0x5754, symBinAddr: 0x100013DAC, symSize: 0x40 }
  - { offsetInCU: 0x1AA09, offset: 0x4EE1B, size: 0x8, addend: 0x0, symName: __ZNSt3__16vectorImNS_9allocatorImEEED2B8ue170006Ev, symObjAddr: 0x5D88, symBinAddr: 0x100013DEC, symSize: 0x40 }
  - { offsetInCU: 0x1AA31, offset: 0x4EE43, size: 0x8, addend: 0x0, symName: __ZNSt3__16vectorImNS_9allocatorImEEEC2B8ue170006Ev, symObjAddr: 0x5DC8, symBinAddr: 0x100013E2C, symSize: 0x4C }
  - { offsetInCU: 0x1AA59, offset: 0x4EE6B, size: 0x8, addend: 0x0, symName: __ZNSt3__16vectorIdNS_9allocatorIdEEEC2B8ue170006Ev, symObjAddr: 0x5E14, symBinAddr: 0x100013E78, symSize: 0x4C }
  - { offsetInCU: 0x1AA81, offset: 0x4EE93, size: 0x8, addend: 0x0, symName: __ZNSt3__16vectorIN5Eigen6MatrixIdLi2ELi1ELi0ELi2ELi1EEENS_9allocatorIS3_EEE19__copy_assign_allocB8ue170006ERKS6_, symObjAddr: 0x5E60, symBinAddr: 0x100013EC4, symSize: 0x2C }
  - { offsetInCU: 0x1AAB4, offset: 0x4EEC6, size: 0x8, addend: 0x0, symName: __ZNSt3__16vectorIN5Eigen6MatrixIdLi2ELi1ELi0ELi2ELi1EEENS_9allocatorIS3_EEE6assignIPS3_Li0EEEvT_S9_, symObjAddr: 0x5E8C, symBinAddr: 0x100013EF0, symSize: 0x5C }
  - { offsetInCU: 0x1AB07, offset: 0x4EF19, size: 0x8, addend: 0x0, symName: __ZNSt3__16vectorIN5Eigen6MatrixIdLi2ELi1ELi0ELi2ELi1EEENS_9allocatorIS3_EEE19__copy_assign_allocB8ue170006ERKS6_NS_17integral_constantIbLb0EEE, symObjAddr: 0x5EE8, symBinAddr: 0x100013F4C, symSize: 0x14 }
  - { offsetInCU: 0x1AB41, offset: 0x4EF53, size: 0x8, addend: 0x0, symName: __ZNSt3__16vectorIN5Eigen6MatrixIdLi2ELi1ELi0ELi2ELi1EEENS_9allocatorIS3_EEE18__assign_with_sizeB8ue170006IPS3_S8_EEvT_T0_l, symObjAddr: 0x5EFC, symBinAddr: 0x100013F60, symSize: 0x164 }
  - { offsetInCU: 0x1ABEF, offset: 0x4F001, size: 0x8, addend: 0x0, symName: __ZNSt3__16vectorIN5Eigen6MatrixIdLi2ELi1ELi0ELi2ELi1EEENS_9allocatorIS3_EEE17__destruct_at_endB8ue170006EPS3_, symObjAddr: 0x61D0, symBinAddr: 0x1000141A8, symSize: 0x4C }
  - { offsetInCU: 0x1AC31, offset: 0x4F043, size: 0x8, addend: 0x0, symName: __ZNSt3__16vectorIN5Eigen6MatrixIdLi2ELi1ELi0ELi2ELi1EEENS_9allocatorIS3_EEE13__vdeallocateEv, symObjAddr: 0x621C, symBinAddr: 0x1000141F4, symSize: 0x94 }
  - { offsetInCU: 0x1AC7A, offset: 0x4F08C, size: 0x8, addend: 0x0, symName: __ZNKSt3__111__copy_loopINS_17_ClassicAlgPolicyEEclB8ue170006IPN5Eigen6MatrixIdLi2ELi1ELi0ELi2ELi1EEES7_S7_EENS_4pairIT_T1_EES9_T0_SA_, symObjAddr: 0x6EC0, symBinAddr: 0x1000143F4, symSize: 0x88 }
  - { offsetInCU: 0x1ACE3, offset: 0x4F0F5, size: 0x8, addend: 0x0, symName: __ZNKSt3__16vectorIN5Eigen6MatrixIdLi2ELi1ELi0ELi2ELi1EEENS_9allocatorIS3_EEE17__annotate_shrinkB8ue170006Em, symObjAddr: 0x6F74, symBinAddr: 0x1000144A8, symSize: 0xB4 }
  - { offsetInCU: 0x1AD16, offset: 0x4F128, size: 0x8, addend: 0x0, symName: __ZNSt3__16vectorIN5Eigen6MatrixIdLi2ELi1ELi0ELi2ELi1EEENS_9allocatorIS3_EEE5clearB8ue170006Ev, symObjAddr: 0x7028, symBinAddr: 0x10001455C, symSize: 0x44 }
  - { offsetInCU: 0x1AD53, offset: 0x4F165, size: 0x8, addend: 0x0, symName: __ZN5Eigen15PlainObjectBaseINS_6MatrixIdLi2ELi1ELi0ELi2ELi1EEEEaSEOS3_, symObjAddr: 0x73CC, symBinAddr: 0x1000145C8, symSize: 0x3C }
  - { offsetInCU: 0x1AD86, offset: 0x4F198, size: 0x8, addend: 0x0, symName: __ZNSt3__16vectorIN5Eigen6MatrixIdLi2ELi1ELi0ELi2ELi1EEENS_9allocatorIS3_EEE11__make_iterB8ue170006EPS3_, symObjAddr: 0x7408, symBinAddr: 0x100014604, symSize: 0x30 }
  - { offsetInCU: 0x1ADB9, offset: 0x4F1CB, size: 0x8, addend: 0x0, symName: __ZNSt3__111__wrap_iterIPN5Eigen6MatrixIdLi2ELi1ELi0ELi2ELi1EEEEC1B8ue170006ES4_, symObjAddr: 0x7438, symBinAddr: 0x100014634, symSize: 0x34 }
  - { offsetInCU: 0x1ADEF, offset: 0x4F201, size: 0x8, addend: 0x0, symName: __ZNSt3__111__wrap_iterIPN5Eigen6MatrixIdLi2ELi1ELi0ELi2ELi1EEEEC2B8ue170006ES4_, symObjAddr: 0x746C, symBinAddr: 0x100014668, symSize: 0x20 }
  - { offsetInCU: 0x1AE25, offset: 0x4F237, size: 0x8, addend: 0x0, symName: __ZN5Eigen8internal13sub_assign_opIddEC1Ev, symObjAddr: 0x74C4, symBinAddr: 0x1000146C0, symSize: 0x2C }
  - { offsetInCU: 0x1AE4D, offset: 0x4F25F, size: 0x8, addend: 0x0, symName: __ZN5Eigen8internal10AssignmentINS_6MatrixIdLi2ELi1ELi0ELi2ELi1EEES3_NS0_13sub_assign_opIddEENS0_11Dense2DenseEvE3runERS3_RKS3_RKS5_, symObjAddr: 0x752C, symBinAddr: 0x100014728, symSize: 0x40 }
  - { offsetInCU: 0x1AE8E, offset: 0x4F2A0, size: 0x8, addend: 0x0, symName: __ZN5Eigen8internal31generic_dense_assignment_kernelINS0_9evaluatorINS_6MatrixIdLi2ELi1ELi0ELi2ELi1EEEEES5_NS0_13sub_assign_opIddEELi0EEC1ERS5_RKS5_RKS7_RS4_, symObjAddr: 0x76F8, symBinAddr: 0x1000148F4, symSize: 0x4C }
  - { offsetInCU: 0x1AEF2, offset: 0x4F304, size: 0x8, addend: 0x0, symName: __ZN5Eigen8internal21dense_assignment_loopINS0_31generic_dense_assignment_kernelINS0_9evaluatorINS_6MatrixIdLi2ELi1ELi0ELi2ELi1EEEEES6_NS0_13sub_assign_opIddEELi0EEELi2ELi2EE3runERS9_, symObjAddr: 0x7744, symBinAddr: 0x100014940, symSize: 0x24 }
  - { offsetInCU: 0x1AF15, offset: 0x4F327, size: 0x8, addend: 0x0, symName: __ZN5Eigen8internal31generic_dense_assignment_kernelINS0_9evaluatorINS_6MatrixIdLi2ELi1ELi0ELi2ELi1EEEEES5_NS0_13sub_assign_opIddEELi0EEC2ERS5_RKS5_RKS7_RS4_, symObjAddr: 0x7768, symBinAddr: 0x100014964, symSize: 0x44 }
  - { offsetInCU: 0x1AF79, offset: 0x4F38B, size: 0x8, addend: 0x0, symName: __ZN5Eigen8internal47copy_using_evaluator_innervec_CompleteUnrollingINS0_31generic_dense_assignment_kernelINS0_9evaluatorINS_6MatrixIdLi2ELi1ELi0ELi2ELi1EEEEES6_NS0_13sub_assign_opIddEELi0EEELi0ELi2EE3runERS9_, symObjAddr: 0x77AC, symBinAddr: 0x1000149A8, symSize: 0x34 }
  - { offsetInCU: 0x1AF9C, offset: 0x4F3AE, size: 0x8, addend: 0x0, symName: __ZN5Eigen8internal31generic_dense_assignment_kernelINS0_9evaluatorINS_6MatrixIdLi2ELi1ELi0ELi2ELi1EEEEES5_NS0_13sub_assign_opIddEELi0EE24assignPacketByOuterInnerILi16ELi16E19__simd128_float64_tEEvll, symObjAddr: 0x77E0, symBinAddr: 0x1000149DC, symSize: 0x60 }
  - { offsetInCU: 0x1B019, offset: 0x4F42B, size: 0x8, addend: 0x0, symName: __ZN5Eigen8internal47copy_using_evaluator_innervec_CompleteUnrollingINS0_31generic_dense_assignment_kernelINS0_9evaluatorINS_6MatrixIdLi2ELi1ELi0ELi2ELi1EEEEES6_NS0_13sub_assign_opIddEELi0EEELi2ELi2EE3runERS9_, symObjAddr: 0x7840, symBinAddr: 0x100014A3C, symSize: 0x10 }
  - { offsetInCU: 0x1B038, offset: 0x4F44A, size: 0x8, addend: 0x0, symName: __ZN5Eigen8internal31generic_dense_assignment_kernelINS0_9evaluatorINS_6MatrixIdLi2ELi1ELi0ELi2ELi1EEEEES5_NS0_13sub_assign_opIddEELi0EE20rowIndexByOuterInnerEll, symObjAddr: 0x7850, symBinAddr: 0x100014A4C, symSize: 0x18 }
  - { offsetInCU: 0x1B06A, offset: 0x4F47C, size: 0x8, addend: 0x0, symName: __ZN5Eigen8internal31generic_dense_assignment_kernelINS0_9evaluatorINS_6MatrixIdLi2ELi1ELi0ELi2ELi1EEEEES5_NS0_13sub_assign_opIddEELi0EE20colIndexByOuterInnerEll, symObjAddr: 0x7868, symBinAddr: 0x100014A64, symSize: 0x18 }
  - { offsetInCU: 0x1B09C, offset: 0x4F4AE, size: 0x8, addend: 0x0, symName: __ZN5Eigen8internal31generic_dense_assignment_kernelINS0_9evaluatorINS_6MatrixIdLi2ELi1ELi0ELi2ELi1EEEEES5_NS0_13sub_assign_opIddEELi0EE12assignPacketILi16ELi16E19__simd128_float64_tEEvll, symObjAddr: 0x7880, symBinAddr: 0x100014A7C, symSize: 0x70 }
  - { offsetInCU: 0x1B0FB, offset: 0x4F50D, size: 0x8, addend: 0x0, symName: __ZNK5Eigen8internal13sub_assign_opIddE12assignPacketILi16E19__simd128_float64_tEEvPdRKT0_, symObjAddr: 0x78F0, symBinAddr: 0x100014AEC, symSize: 0x6C }
  - { offsetInCU: 0x1B195, offset: 0x4F5A7, size: 0x8, addend: 0x0, symName: __ZN5Eigen8internal13sub_assign_opIddEC2Ev, symObjAddr: 0x799C, symBinAddr: 0x100014B98, symSize: 0x14 }
  - { offsetInCU: 0x1B1BD, offset: 0x4F5CF, size: 0x8, addend: 0x0, symName: __ZNSt3__114__split_bufferImRNS_9allocatorImEEEC1EmmS3_, symObjAddr: 0x79B0, symBinAddr: 0x100014BAC, symSize: 0x44 }
  - { offsetInCU: 0x1B211, offset: 0x4F623, size: 0x8, addend: 0x0, symName: __ZNSt3__114__split_bufferImRNS_9allocatorImEEED1Ev, symObjAddr: 0x7B04, symBinAddr: 0x100014D00, symSize: 0x2C }
  - { offsetInCU: 0x1B23B, offset: 0x4F64D, size: 0x8, addend: 0x0, symName: __ZNSt3__114__split_bufferImRNS_9allocatorImEEEC2EmmS3_, symObjAddr: 0x7B30, symBinAddr: 0x100014D2C, symSize: 0xD4 }
  - { offsetInCU: 0x1B2AC, offset: 0x4F6BE, size: 0x8, addend: 0x0, symName: __ZNSt3__117__compressed_pairIPmRNS_9allocatorImEEEC1B8ue170006IDnS4_EEOT_OT0_, symObjAddr: 0x7C04, symBinAddr: 0x100014E00, symSize: 0x3C }
  - { offsetInCU: 0x1B302, offset: 0x4F714, size: 0x8, addend: 0x0, symName: __ZNSt3__114__split_bufferImRNS_9allocatorImEEE7__allocB8ue170006Ev, symObjAddr: 0x7C40, symBinAddr: 0x100014E3C, symSize: 0x28 }
  - { offsetInCU: 0x1B326, offset: 0x4F738, size: 0x8, addend: 0x0, symName: __ZNSt3__114__split_bufferImRNS_9allocatorImEEE9__end_capB8ue170006Ev, symObjAddr: 0x7C68, symBinAddr: 0x100014E64, symSize: 0x28 }
  - { offsetInCU: 0x1B34A, offset: 0x4F75C, size: 0x8, addend: 0x0, symName: __ZNSt3__117__compressed_pairIPmRNS_9allocatorImEEEC2B8ue170006IDnS4_EEOT_OT0_, symObjAddr: 0x7C90, symBinAddr: 0x100014E8C, symSize: 0x48 }
  - { offsetInCU: 0x1B3A0, offset: 0x4F7B2, size: 0x8, addend: 0x0, symName: __ZNSt3__122__compressed_pair_elemIRNS_9allocatorImEELi1ELb0EEC2B8ue170006IS3_vEEOT_, symObjAddr: 0x7CD8, symBinAddr: 0x100014ED4, symSize: 0x20 }
  - { offsetInCU: 0x1B3E0, offset: 0x4F7F2, size: 0x8, addend: 0x0, symName: __ZNSt3__117__compressed_pairIPmRNS_9allocatorImEEE6secondB8ue170006Ev, symObjAddr: 0x7CF8, symBinAddr: 0x100014EF4, symSize: 0x28 }
  - { offsetInCU: 0x1B404, offset: 0x4F816, size: 0x8, addend: 0x0, symName: __ZNSt3__122__compressed_pair_elemIRNS_9allocatorImEELi1ELb0EE5__getB8ue170006Ev, symObjAddr: 0x7D20, symBinAddr: 0x100014F1C, symSize: 0x18 }
  - { offsetInCU: 0x1B428, offset: 0x4F83A, size: 0x8, addend: 0x0, symName: __ZNSt3__117__compressed_pairIPmRNS_9allocatorImEEE5firstB8ue170006Ev, symObjAddr: 0x7D38, symBinAddr: 0x100014F34, symSize: 0x24 }
  - { offsetInCU: 0x1B44C, offset: 0x4F85E, size: 0x8, addend: 0x0, symName: __ZNSt3__116reverse_iteratorIPmEC1B8ue170006ES1_, symObjAddr: 0x7DD4, symBinAddr: 0x100014FD0, symSize: 0x34 }
  - { offsetInCU: 0x1B482, offset: 0x4F894, size: 0x8, addend: 0x0, symName: __ZNKSt3__116reverse_iteratorIPmE4baseB8ue170006Ev, symObjAddr: 0x7E08, symBinAddr: 0x100015004, symSize: 0x18 }
  - { offsetInCU: 0x1B4C9, offset: 0x4F8DB, size: 0x8, addend: 0x0, symName: __ZNKSt3__111__move_loopINS_17_ClassicAlgPolicyEEclB8ue170006INS_16reverse_iteratorIPmEES6_S6_EENS_4pairIT_T1_EES8_T0_S9_, symObjAddr: 0x814C, symBinAddr: 0x100015348, symSize: 0xA0 }
  - { offsetInCU: 0x1B532, offset: 0x4F944, size: 0x8, addend: 0x0, symName: __ZNSt3__18_IterOpsINS_17_ClassicAlgPolicyEE11__iter_moveB8ue170006IRNS_16reverse_iteratorIPmEEEENS_9enable_ifIXsr12is_referenceIDTdeclsr3stdE7declvalIRT_EEEEE5valueEDTclsr3stdE4movedeclsr3stdE7declvalISA_EEEEE4typeEOS9_, symObjAddr: 0x8380, symBinAddr: 0x10001557C, symSize: 0x28 }
  - { offsetInCU: 0x1B55D, offset: 0x4F96F, size: 0x8, addend: 0x0, symName: __ZNKSt3__116reverse_iteratorIPmEdeB8ue170006Ev, symObjAddr: 0x83A8, symBinAddr: 0x1000155A4, symSize: 0x28 }
  - { offsetInCU: 0x1B58F, offset: 0x4F9A1, size: 0x8, addend: 0x0, symName: __ZNSt3__116reverse_iteratorIPmEppB8ue170006Ev, symObjAddr: 0x83D0, symBinAddr: 0x1000155CC, symSize: 0x20 }
  - { offsetInCU: 0x1B5B3, offset: 0x4F9C5, size: 0x8, addend: 0x0, symName: __ZNSt3__18_IterOpsINS_17_ClassicAlgPolicyEE25__validate_iter_referenceB8ue170006IRNS_16reverse_iteratorIPmEEEEvv, symObjAddr: 0x83F0, symBinAddr: 0x1000155EC, symSize: 0x4 }
  - { offsetInCU: 0x1B5D0, offset: 0x4F9E2, size: 0x8, addend: 0x0, symName: __ZNSt3__118__unwrap_iter_implINS_16reverse_iteratorIPmEELb0EE8__unwrapB8ue170006ES3_, symObjAddr: 0x83F4, symBinAddr: 0x1000155F0, symSize: 0x24 }
  - { offsetInCU: 0x1B5F7, offset: 0x4FA09, size: 0x8, addend: 0x0, symName: __ZNSt3__14pairINS_16reverse_iteratorIPmEES3_EC1B8ue170006IS3_S3_LPv0EEEOT_OT0_, symObjAddr: 0x8418, symBinAddr: 0x100015614, symSize: 0x3C }
  - { offsetInCU: 0x1B653, offset: 0x4FA65, size: 0x8, addend: 0x0, symName: __ZNSt3__14pairINS_16reverse_iteratorIPmEES3_EC2B8ue170006IS3_S3_LPv0EEEOT_OT0_, symObjAddr: 0x8454, symBinAddr: 0x100015650, symSize: 0x34 }
  - { offsetInCU: 0x1B6AF, offset: 0x4FAC1, size: 0x8, addend: 0x0, symName: __ZNSt3__118__unwrap_iter_implINS_16reverse_iteratorIPmEELb0EE8__rewrapB8ue170006ES3_S3_, symObjAddr: 0x8488, symBinAddr: 0x100015684, symSize: 0x2C }
  - { offsetInCU: 0x1B6DB, offset: 0x4FAED, size: 0x8, addend: 0x0, symName: __ZNSt3__116reverse_iteratorIPmEC2B8ue170006ES1_, symObjAddr: 0x84B4, symBinAddr: 0x1000156B0, symSize: 0x28 }
  - { offsetInCU: 0x1B711, offset: 0x4FB23, size: 0x8, addend: 0x0, symName: __ZNSt3__114__split_bufferImRNS_9allocatorImEEED2Ev, symObjAddr: 0x84DC, symBinAddr: 0x1000156D8, symSize: 0x8C }
  - { offsetInCU: 0x1B73B, offset: 0x4FB4D, size: 0x8, addend: 0x0, symName: __ZNSt3__114__split_bufferImRNS_9allocatorImEEE5clearB8ue170006Ev, symObjAddr: 0x8568, symBinAddr: 0x100015764, symSize: 0x28 }
  - { offsetInCU: 0x1B75F, offset: 0x4FB71, size: 0x8, addend: 0x0, symName: __ZNKSt3__114__split_bufferImRNS_9allocatorImEEE8capacityB8ue170006Ev, symObjAddr: 0x8590, symBinAddr: 0x10001578C, symSize: 0x40 }
  - { offsetInCU: 0x1B783, offset: 0x4FB95, size: 0x8, addend: 0x0, symName: __ZNSt3__114__split_bufferImRNS_9allocatorImEEE17__destruct_at_endB8ue170006EPm, symObjAddr: 0x85D0, symBinAddr: 0x1000157CC, symSize: 0x2C }
  - { offsetInCU: 0x1B7B5, offset: 0x4FBC7, size: 0x8, addend: 0x0, symName: __ZNSt3__114__split_bufferImRNS_9allocatorImEEE17__destruct_at_endB8ue170006EPmNS_17integral_constantIbLb0EEE, symObjAddr: 0x85FC, symBinAddr: 0x1000157F8, symSize: 0x80 }
  - { offsetInCU: 0x1B7F3, offset: 0x4FC05, size: 0x8, addend: 0x0, symName: __ZNKSt3__114__split_bufferImRNS_9allocatorImEEE9__end_capB8ue170006Ev, symObjAddr: 0x867C, symBinAddr: 0x100015878, symSize: 0x28 }
  - { offsetInCU: 0x1B817, offset: 0x4FC29, size: 0x8, addend: 0x0, symName: __ZNKSt3__117__compressed_pairIPmRNS_9allocatorImEEE5firstB8ue170006Ev, symObjAddr: 0x86A4, symBinAddr: 0x1000158A0, symSize: 0x24 }
  - { offsetInCU: 0x1B83B, offset: 0x4FC4D, size: 0x8, addend: 0x0, symName: __ZNSt3__114__split_bufferIdRNS_9allocatorIdEEEC1EmmS3_, symObjAddr: 0x86C8, symBinAddr: 0x1000158C4, symSize: 0x44 }
  - { offsetInCU: 0x1B88F, offset: 0x4FCA1, size: 0x8, addend: 0x0, symName: __ZNSt3__114__split_bufferIdRNS_9allocatorIdEEED1Ev, symObjAddr: 0x881C, symBinAddr: 0x100015A18, symSize: 0x2C }
  - { offsetInCU: 0x1B8B9, offset: 0x4FCCB, size: 0x8, addend: 0x0, symName: __ZNSt3__114__split_bufferIdRNS_9allocatorIdEEEC2EmmS3_, symObjAddr: 0x8848, symBinAddr: 0x100015A44, symSize: 0xD4 }
  - { offsetInCU: 0x1B92A, offset: 0x4FD3C, size: 0x8, addend: 0x0, symName: __ZNSt3__117__compressed_pairIPdRNS_9allocatorIdEEEC1B8ue170006IDnS4_EEOT_OT0_, symObjAddr: 0x891C, symBinAddr: 0x100015B18, symSize: 0x3C }
  - { offsetInCU: 0x1B980, offset: 0x4FD92, size: 0x8, addend: 0x0, symName: __ZNSt3__114__split_bufferIdRNS_9allocatorIdEEE7__allocB8ue170006Ev, symObjAddr: 0x8958, symBinAddr: 0x100015B54, symSize: 0x28 }
  - { offsetInCU: 0x1B9A4, offset: 0x4FDB6, size: 0x8, addend: 0x0, symName: __ZNSt3__114__split_bufferIdRNS_9allocatorIdEEE9__end_capB8ue170006Ev, symObjAddr: 0x8980, symBinAddr: 0x100015B7C, symSize: 0x28 }
  - { offsetInCU: 0x1B9C8, offset: 0x4FDDA, size: 0x8, addend: 0x0, symName: __ZNSt3__117__compressed_pairIPdRNS_9allocatorIdEEEC2B8ue170006IDnS4_EEOT_OT0_, symObjAddr: 0x89A8, symBinAddr: 0x100015BA4, symSize: 0x48 }
  - { offsetInCU: 0x1BA1E, offset: 0x4FE30, size: 0x8, addend: 0x0, symName: __ZNSt3__122__compressed_pair_elemIRNS_9allocatorIdEELi1ELb0EEC2B8ue170006IS3_vEEOT_, symObjAddr: 0x89F0, symBinAddr: 0x100015BEC, symSize: 0x20 }
  - { offsetInCU: 0x1BA5E, offset: 0x4FE70, size: 0x8, addend: 0x0, symName: __ZNSt3__117__compressed_pairIPdRNS_9allocatorIdEEE6secondB8ue170006Ev, symObjAddr: 0x8A10, symBinAddr: 0x100015C0C, symSize: 0x28 }
  - { offsetInCU: 0x1BA82, offset: 0x4FE94, size: 0x8, addend: 0x0, symName: __ZNSt3__122__compressed_pair_elemIRNS_9allocatorIdEELi1ELb0EE5__getB8ue170006Ev, symObjAddr: 0x8A38, symBinAddr: 0x100015C34, symSize: 0x18 }
  - { offsetInCU: 0x1BAA6, offset: 0x4FEB8, size: 0x8, addend: 0x0, symName: __ZNSt3__117__compressed_pairIPdRNS_9allocatorIdEEE5firstB8ue170006Ev, symObjAddr: 0x8A50, symBinAddr: 0x100015C4C, symSize: 0x24 }
  - { offsetInCU: 0x1BACA, offset: 0x4FEDC, size: 0x8, addend: 0x0, symName: __ZNSt3__116reverse_iteratorIPdEC1B8ue170006ES1_, symObjAddr: 0x8AEC, symBinAddr: 0x100015CE8, symSize: 0x34 }
  - { offsetInCU: 0x1BB00, offset: 0x4FF12, size: 0x8, addend: 0x0, symName: __ZNKSt3__116reverse_iteratorIPdE4baseB8ue170006Ev, symObjAddr: 0x8B20, symBinAddr: 0x100015D1C, symSize: 0x18 }
  - { offsetInCU: 0x1BB3D, offset: 0x4FF4F, size: 0x8, addend: 0x0, symName: __ZNKSt3__111__move_loopINS_17_ClassicAlgPolicyEEclB8ue170006INS_16reverse_iteratorIPdEES6_S6_EENS_4pairIT_T1_EES8_T0_S9_, symObjAddr: 0x8E64, symBinAddr: 0x100016060, symSize: 0xA0 }
  - { offsetInCU: 0x1BBA6, offset: 0x4FFB8, size: 0x8, addend: 0x0, symName: __ZNSt3__18_IterOpsINS_17_ClassicAlgPolicyEE11__iter_moveB8ue170006IRNS_16reverse_iteratorIPdEEEENS_9enable_ifIXsr12is_referenceIDTdeclsr3stdE7declvalIRT_EEEEE5valueEDTclsr3stdE4movedeclsr3stdE7declvalISA_EEEEE4typeEOS9_, symObjAddr: 0x9098, symBinAddr: 0x100016294, symSize: 0x28 }
  - { offsetInCU: 0x1BBD1, offset: 0x4FFE3, size: 0x8, addend: 0x0, symName: __ZNKSt3__116reverse_iteratorIPdEdeB8ue170006Ev, symObjAddr: 0x90C0, symBinAddr: 0x1000162BC, symSize: 0x28 }
  - { offsetInCU: 0x1BC03, offset: 0x50015, size: 0x8, addend: 0x0, symName: __ZNSt3__116reverse_iteratorIPdEppB8ue170006Ev, symObjAddr: 0x90E8, symBinAddr: 0x1000162E4, symSize: 0x20 }
  - { offsetInCU: 0x1BC27, offset: 0x50039, size: 0x8, addend: 0x0, symName: __ZNSt3__18_IterOpsINS_17_ClassicAlgPolicyEE25__validate_iter_referenceB8ue170006IRNS_16reverse_iteratorIPdEEEEvv, symObjAddr: 0x9108, symBinAddr: 0x100016304, symSize: 0x4 }
  - { offsetInCU: 0x1BC44, offset: 0x50056, size: 0x8, addend: 0x0, symName: __ZNSt3__118__unwrap_iter_implINS_16reverse_iteratorIPdEELb0EE8__unwrapB8ue170006ES3_, symObjAddr: 0x910C, symBinAddr: 0x100016308, symSize: 0x24 }
  - { offsetInCU: 0x1BC6B, offset: 0x5007D, size: 0x8, addend: 0x0, symName: __ZNSt3__14pairINS_16reverse_iteratorIPdEES3_EC1B8ue170006IS3_S3_LPv0EEEOT_OT0_, symObjAddr: 0x9130, symBinAddr: 0x10001632C, symSize: 0x3C }
  - { offsetInCU: 0x1BCC7, offset: 0x500D9, size: 0x8, addend: 0x0, symName: __ZNSt3__14pairINS_16reverse_iteratorIPdEES3_EC2B8ue170006IS3_S3_LPv0EEEOT_OT0_, symObjAddr: 0x916C, symBinAddr: 0x100016368, symSize: 0x34 }
  - { offsetInCU: 0x1BD23, offset: 0x50135, size: 0x8, addend: 0x0, symName: __ZNSt3__118__unwrap_iter_implINS_16reverse_iteratorIPdEELb0EE8__rewrapB8ue170006ES3_S3_, symObjAddr: 0x91A0, symBinAddr: 0x10001639C, symSize: 0x2C }
  - { offsetInCU: 0x1BD4F, offset: 0x50161, size: 0x8, addend: 0x0, symName: __ZNSt3__116reverse_iteratorIPdEC2B8ue170006ES1_, symObjAddr: 0x91CC, symBinAddr: 0x1000163C8, symSize: 0x28 }
  - { offsetInCU: 0x1BD85, offset: 0x50197, size: 0x8, addend: 0x0, symName: __ZNSt3__114__split_bufferIdRNS_9allocatorIdEEED2Ev, symObjAddr: 0x91F4, symBinAddr: 0x1000163F0, symSize: 0x8C }
  - { offsetInCU: 0x1BDAF, offset: 0x501C1, size: 0x8, addend: 0x0, symName: __ZNSt3__114__split_bufferIdRNS_9allocatorIdEEE5clearB8ue170006Ev, symObjAddr: 0x9280, symBinAddr: 0x10001647C, symSize: 0x28 }
  - { offsetInCU: 0x1BDD3, offset: 0x501E5, size: 0x8, addend: 0x0, symName: __ZNKSt3__114__split_bufferIdRNS_9allocatorIdEEE8capacityB8ue170006Ev, symObjAddr: 0x92A8, symBinAddr: 0x1000164A4, symSize: 0x40 }
  - { offsetInCU: 0x1BDF7, offset: 0x50209, size: 0x8, addend: 0x0, symName: __ZNSt3__114__split_bufferIdRNS_9allocatorIdEEE17__destruct_at_endB8ue170006EPd, symObjAddr: 0x92E8, symBinAddr: 0x1000164E4, symSize: 0x2C }
  - { offsetInCU: 0x1BE29, offset: 0x5023B, size: 0x8, addend: 0x0, symName: __ZNSt3__114__split_bufferIdRNS_9allocatorIdEEE17__destruct_at_endB8ue170006EPdNS_17integral_constantIbLb0EEE, symObjAddr: 0x9314, symBinAddr: 0x100016510, symSize: 0x80 }
  - { offsetInCU: 0x1BE67, offset: 0x50279, size: 0x8, addend: 0x0, symName: __ZNKSt3__114__split_bufferIdRNS_9allocatorIdEEE9__end_capB8ue170006Ev, symObjAddr: 0x9394, symBinAddr: 0x100016590, symSize: 0x28 }
  - { offsetInCU: 0x1BE8B, offset: 0x5029D, size: 0x8, addend: 0x0, symName: __ZNKSt3__117__compressed_pairIPdRNS_9allocatorIdEEE5firstB8ue170006Ev, symObjAddr: 0x93BC, symBinAddr: 0x1000165B8, symSize: 0x24 }
  - { offsetInCU: 0x1BEAF, offset: 0x502C1, size: 0x8, addend: 0x0, symName: __ZNSt3__16vectorINS_8functionIFNS_10unique_ptrIN3icp3ICPENS_14default_deleteIS4_EEEEmdEEENS_9allocatorIS9_EEE9__end_capB8ue170006Ev, symObjAddr: 0x93E0, symBinAddr: 0x1000165DC, symSize: 0x28 }
  - { offsetInCU: 0x1BED3, offset: 0x502E5, size: 0x8, addend: 0x0, symName: __ZNSt3__16vectorINS_8functionIFNS_10unique_ptrIN3icp3ICPENS_14default_deleteIS4_EEEEmdEEENS_9allocatorIS9_EEE22__construct_one_at_endB8ue170006IJRKS9_EEEvDpOT_, symObjAddr: 0x9408, symBinAddr: 0x100016604, symSize: 0x90 }
  - { offsetInCU: 0x1BF20, offset: 0x50332, size: 0x8, addend: 0x0, symName: __ZNSt3__16vectorINS_8functionIFNS_10unique_ptrIN3icp3ICPENS_14default_deleteIS4_EEEEmdEEENS_9allocatorIS9_EEE21__push_back_slow_pathIRKS9_EEvOT_, symObjAddr: 0x9498, symBinAddr: 0x100016694, symSize: 0xD8 }
  - { offsetInCU: 0x1BF7C, offset: 0x5038E, size: 0x8, addend: 0x0, symName: __ZNSt3__117__compressed_pairIPNS_8functionIFNS_10unique_ptrIN3icp3ICPENS_14default_deleteIS4_EEEEmdEEENS_9allocatorIS9_EEE5firstB8ue170006Ev, symObjAddr: 0x9570, symBinAddr: 0x10001676C, symSize: 0x24 }
  - { offsetInCU: 0x1BFA0, offset: 0x503B2, size: 0x8, addend: 0x0, symName: __ZNSt3__122__compressed_pair_elemIPNS_8functionIFNS_10unique_ptrIN3icp3ICPENS_14default_deleteIS4_EEEEmdEEELi0ELb0EE5__getB8ue170006Ev, symObjAddr: 0x9594, symBinAddr: 0x100016790, symSize: 0x14 }
  - { offsetInCU: 0x1BFDD, offset: 0x503EF, size: 0x8, addend: 0x0, symName: __ZNSt3__16vectorINS_8functionIFNS_10unique_ptrIN3icp3ICPENS_14default_deleteIS4_EEEEmdEEENS_9allocatorIS9_EEE21_ConstructTransactionC1B8ue170006ERSC_m, symObjAddr: 0x95A8, symBinAddr: 0x1000167A4, symSize: 0x3C }
  - { offsetInCU: 0x1C023, offset: 0x50435, size: 0x8, addend: 0x0, symName: __ZNSt3__116allocator_traitsINS_9allocatorINS_8functionIFNS_10unique_ptrIN3icp3ICPENS_14default_deleteIS5_EEEEmdEEEEEE9constructB8ue170006ISA_JRKSA_EvEEvRSB_PT_DpOT0_, symObjAddr: 0x95E4, symBinAddr: 0x1000167E0, symSize: 0x34 }
  - { offsetInCU: 0x1C079, offset: 0x5048B, size: 0x8, addend: 0x0, symName: __ZNSt3__16vectorINS_8functionIFNS_10unique_ptrIN3icp3ICPENS_14default_deleteIS4_EEEEmdEEENS_9allocatorIS9_EEE7__allocB8ue170006Ev, symObjAddr: 0x9618, symBinAddr: 0x100016814, symSize: 0x28 }
  - { offsetInCU: 0x1C09D, offset: 0x504AF, size: 0x8, addend: 0x0, symName: __ZNSt3__16vectorINS_8functionIFNS_10unique_ptrIN3icp3ICPENS_14default_deleteIS4_EEEEmdEEENS_9allocatorIS9_EEE21_ConstructTransactionD1B8ue170006Ev, symObjAddr: 0x9654, symBinAddr: 0x100016850, symSize: 0x2C }
  - { offsetInCU: 0x1C0C5, offset: 0x504D7, size: 0x8, addend: 0x0, symName: __ZNSt3__16vectorINS_8functionIFNS_10unique_ptrIN3icp3ICPENS_14default_deleteIS4_EEEEmdEEENS_9allocatorIS9_EEE21_ConstructTransactionC2B8ue170006ERSC_m, symObjAddr: 0x9680, symBinAddr: 0x10001687C, symSize: 0x44 }
  - { offsetInCU: 0x1C10B, offset: 0x5051D, size: 0x8, addend: 0x0, symName: __ZNSt3__19allocatorINS_8functionIFNS_10unique_ptrIN3icp3ICPENS_14default_deleteIS4_EEEEmdEEEE9constructB8ue170006IS9_JRKS9_EEEvPT_DpOT0_, symObjAddr: 0x96C4, symBinAddr: 0x1000168C0, symSize: 0x30 }
  - { offsetInCU: 0x1C15F, offset: 0x50571, size: 0x8, addend: 0x0, symName: __ZNSt3__18functionIFNS_10unique_ptrIN3icp3ICPENS_14default_deleteIS3_EEEEmdEEC1ERKS8_, symObjAddr: 0x96F4, symBinAddr: 0x1000168F0, symSize: 0x34 }
  - { offsetInCU: 0x1C198, offset: 0x505AA, size: 0x8, addend: 0x0, symName: __ZNSt3__18functionIFNS_10unique_ptrIN3icp3ICPENS_14default_deleteIS3_EEEEmdEEC2ERKS8_, symObjAddr: 0x9728, symBinAddr: 0x100016924, symSize: 0x34 }
  - { offsetInCU: 0x1C1D1, offset: 0x505E3, size: 0x8, addend: 0x0, symName: __ZNSt3__110__function12__value_funcIFNS_10unique_ptrIN3icp3ICPENS_14default_deleteIS4_EEEEmdEEC1B8ue170006ERKS9_, symObjAddr: 0x975C, symBinAddr: 0x100016958, symSize: 0x34 }
  - { offsetInCU: 0x1C208, offset: 0x5061A, size: 0x8, addend: 0x0, symName: __ZNSt3__110__function12__value_funcIFNS_10unique_ptrIN3icp3ICPENS_14default_deleteIS4_EEEEmdEEC2B8ue170006ERKS9_, symObjAddr: 0x9790, symBinAddr: 0x10001698C, symSize: 0xC0 }
  - { offsetInCU: 0x1C23F, offset: 0x50651, size: 0x8, addend: 0x0, symName: __ZNSt3__110__function12__value_funcIFNS_10unique_ptrIN3icp3ICPENS_14default_deleteIS4_EEEEmdEE9__as_baseB8ue170006EPv, symObjAddr: 0x9850, symBinAddr: 0x100016A4C, symSize: 0x14 }
  - { offsetInCU: 0x1C262, offset: 0x50674, size: 0x8, addend: 0x0, symName: __ZNSt3__117__compressed_pairIPNS_8functionIFNS_10unique_ptrIN3icp3ICPENS_14default_deleteIS4_EEEEmdEEENS_9allocatorIS9_EEE6secondB8ue170006Ev, symObjAddr: 0x9864, symBinAddr: 0x100016A60, symSize: 0x24 }
  - { offsetInCU: 0x1C286, offset: 0x50698, size: 0x8, addend: 0x0, symName: __ZNSt3__122__compressed_pair_elemINS_9allocatorINS_8functionIFNS_10unique_ptrIN3icp3ICPENS_14default_deleteIS5_EEEEmdEEEEELi1ELb1EE5__getB8ue170006Ev, symObjAddr: 0x9888, symBinAddr: 0x100016A84, symSize: 0x14 }
  - { offsetInCU: 0x1C2AA, offset: 0x506BC, size: 0x8, addend: 0x0, symName: __ZNSt3__16vectorINS_8functionIFNS_10unique_ptrIN3icp3ICPENS_14default_deleteIS4_EEEEmdEEENS_9allocatorIS9_EEE21_ConstructTransactionD2B8ue170006Ev, symObjAddr: 0x989C, symBinAddr: 0x100016A98, symSize: 0x20 }
  - { offsetInCU: 0x1C2D2, offset: 0x506E4, size: 0x8, addend: 0x0, symName: __ZNKSt3__16vectorINS_8functionIFNS_10unique_ptrIN3icp3ICPENS_14default_deleteIS4_EEEEmdEEENS_9allocatorIS9_EEE11__recommendB8ue170006Em, symObjAddr: 0x98BC, symBinAddr: 0x100016AB8, symSize: 0xB4 }
  - { offsetInCU: 0x1C325, offset: 0x50737, size: 0x8, addend: 0x0, symName: __ZNKSt3__16vectorINS_8functionIFNS_10unique_ptrIN3icp3ICPENS_14default_deleteIS4_EEEEmdEEENS_9allocatorIS9_EEE4sizeB8ue170006Ev, symObjAddr: 0x9970, symBinAddr: 0x100016B6C, symSize: 0x28 }
  - { offsetInCU: 0x1C349, offset: 0x5075B, size: 0x8, addend: 0x0, symName: __ZNSt3__114__split_bufferINS_8functionIFNS_10unique_ptrIN3icp3ICPENS_14default_deleteIS4_EEEEmdEEERNS_9allocatorIS9_EEEC1EmmSC_, symObjAddr: 0x9998, symBinAddr: 0x100016B94, symSize: 0x44 }
  - { offsetInCU: 0x1C39D, offset: 0x507AF, size: 0x8, addend: 0x0, symName: __ZNSt3__114__split_bufferINS_8functionIFNS_10unique_ptrIN3icp3ICPENS_14default_deleteIS4_EEEEmdEEERNS_9allocatorIS9_EEED1Ev, symObjAddr: 0x9AEC, symBinAddr: 0x100016CE8, symSize: 0x2C }
  - { offsetInCU: 0x1C3C7, offset: 0x507D9, size: 0x8, addend: 0x0, symName: __ZNKSt3__16vectorINS_8functionIFNS_10unique_ptrIN3icp3ICPENS_14default_deleteIS4_EEEEmdEEENS_9allocatorIS9_EEE8max_sizeEv, symObjAddr: 0x9B18, symBinAddr: 0x100016D14, symSize: 0x60 }
  - { offsetInCU: 0x1C3ED, offset: 0x507FF, size: 0x8, addend: 0x0, symName: __ZNKSt3__16vectorINS_8functionIFNS_10unique_ptrIN3icp3ICPENS_14default_deleteIS4_EEEEmdEEENS_9allocatorIS9_EEE20__throw_length_errorB8ue170006Ev, symObjAddr: 0x9B78, symBinAddr: 0x100016D74, symSize: 0x1C }
  - { offsetInCU: 0x1C411, offset: 0x50823, size: 0x8, addend: 0x0, symName: __ZNKSt3__16vectorINS_8functionIFNS_10unique_ptrIN3icp3ICPENS_14default_deleteIS4_EEEEmdEEENS_9allocatorIS9_EEE8capacityB8ue170006Ev, symObjAddr: 0x9B94, symBinAddr: 0x100016D90, symSize: 0x40 }
  - { offsetInCU: 0x1C43F, offset: 0x50851, size: 0x8, addend: 0x0, symName: __ZNSt3__116allocator_traitsINS_9allocatorINS_8functionIFNS_10unique_ptrIN3icp3ICPENS_14default_deleteIS5_EEEEmdEEEEEE8max_sizeB8ue170006ISB_vEEmRKSB_, symObjAddr: 0x9BD4, symBinAddr: 0x100016DD0, symSize: 0x24 }
  - { offsetInCU: 0x1C46C, offset: 0x5087E, size: 0x8, addend: 0x0, symName: __ZNKSt3__16vectorINS_8functionIFNS_10unique_ptrIN3icp3ICPENS_14default_deleteIS4_EEEEmdEEENS_9allocatorIS9_EEE7__allocB8ue170006Ev, symObjAddr: 0x9BF8, symBinAddr: 0x100016DF4, symSize: 0x28 }
  - { offsetInCU: 0x1C490, offset: 0x508A2, size: 0x8, addend: 0x0, symName: __ZNKSt3__19allocatorINS_8functionIFNS_10unique_ptrIN3icp3ICPENS_14default_deleteIS4_EEEEmdEEEE8max_sizeB8ue170006Ev, symObjAddr: 0x9C20, symBinAddr: 0x100016E1C, symSize: 0x14 }
  - { offsetInCU: 0x1C4B4, offset: 0x508C6, size: 0x8, addend: 0x0, symName: __ZNKSt3__117__compressed_pairIPNS_8functionIFNS_10unique_ptrIN3icp3ICPENS_14default_deleteIS4_EEEEmdEEENS_9allocatorIS9_EEE6secondB8ue170006Ev, symObjAddr: 0x9C34, symBinAddr: 0x100016E30, symSize: 0x24 }
  - { offsetInCU: 0x1C4D8, offset: 0x508EA, size: 0x8, addend: 0x0, symName: __ZNKSt3__122__compressed_pair_elemINS_9allocatorINS_8functionIFNS_10unique_ptrIN3icp3ICPENS_14default_deleteIS5_EEEEmdEEEEELi1ELb1EE5__getB8ue170006Ev, symObjAddr: 0x9C58, symBinAddr: 0x100016E54, symSize: 0x14 }
  - { offsetInCU: 0x1C4FC, offset: 0x5090E, size: 0x8, addend: 0x0, symName: __ZNKSt3__16vectorINS_8functionIFNS_10unique_ptrIN3icp3ICPENS_14default_deleteIS4_EEEEmdEEENS_9allocatorIS9_EEE9__end_capB8ue170006Ev, symObjAddr: 0x9C6C, symBinAddr: 0x100016E68, symSize: 0x28 }
  - { offsetInCU: 0x1C520, offset: 0x50932, size: 0x8, addend: 0x0, symName: __ZNKSt3__117__compressed_pairIPNS_8functionIFNS_10unique_ptrIN3icp3ICPENS_14default_deleteIS4_EEEEmdEEENS_9allocatorIS9_EEE5firstB8ue170006Ev, symObjAddr: 0x9C94, symBinAddr: 0x100016E90, symSize: 0x24 }
  - { offsetInCU: 0x1C544, offset: 0x50956, size: 0x8, addend: 0x0, symName: __ZNKSt3__122__compressed_pair_elemIPNS_8functionIFNS_10unique_ptrIN3icp3ICPENS_14default_deleteIS4_EEEEmdEEELi0ELb0EE5__getB8ue170006Ev, symObjAddr: 0x9CB8, symBinAddr: 0x100016EB4, symSize: 0x14 }
  - { offsetInCU: 0x1C568, offset: 0x5097A, size: 0x8, addend: 0x0, symName: __ZNSt3__114__split_bufferINS_8functionIFNS_10unique_ptrIN3icp3ICPENS_14default_deleteIS4_EEEEmdEEERNS_9allocatorIS9_EEEC2EmmSC_, symObjAddr: 0x9CCC, symBinAddr: 0x100016EC8, symSize: 0xD4 }
  - { offsetInCU: 0x1C5D9, offset: 0x509EB, size: 0x8, addend: 0x0, symName: __ZNSt3__117__compressed_pairIPNS_8functionIFNS_10unique_ptrIN3icp3ICPENS_14default_deleteIS4_EEEEmdEEERNS_9allocatorIS9_EEEC1B8ue170006IDnSD_EEOT_OT0_, symObjAddr: 0x9DA0, symBinAddr: 0x100016F9C, symSize: 0x3C }
  - { offsetInCU: 0x1C62F, offset: 0x50A41, size: 0x8, addend: 0x0, symName: __ZNSt3__114__split_bufferINS_8functionIFNS_10unique_ptrIN3icp3ICPENS_14default_deleteIS4_EEEEmdEEERNS_9allocatorIS9_EEE7__allocB8ue170006Ev, symObjAddr: 0x9E1C, symBinAddr: 0x100017018, symSize: 0x28 }
  - { offsetInCU: 0x1C653, offset: 0x50A65, size: 0x8, addend: 0x0, symName: __ZNSt3__114__split_bufferINS_8functionIFNS_10unique_ptrIN3icp3ICPENS_14default_deleteIS4_EEEEmdEEERNS_9allocatorIS9_EEE9__end_capB8ue170006Ev, symObjAddr: 0x9E44, symBinAddr: 0x100017040, symSize: 0x28 }
  - { offsetInCU: 0x1C677, offset: 0x50A89, size: 0x8, addend: 0x0, symName: __ZNSt3__117__compressed_pairIPNS_8functionIFNS_10unique_ptrIN3icp3ICPENS_14default_deleteIS4_EEEEmdEEERNS_9allocatorIS9_EEEC2B8ue170006IDnSD_EEOT_OT0_, symObjAddr: 0x9E6C, symBinAddr: 0x100017068, symSize: 0x48 }
  - { offsetInCU: 0x1C6CD, offset: 0x50ADF, size: 0x8, addend: 0x0, symName: __ZNSt3__122__compressed_pair_elemIRNS_9allocatorINS_8functionIFNS_10unique_ptrIN3icp3ICPENS_14default_deleteIS5_EEEEmdEEEEELi1ELb0EEC2B8ue170006ISC_vEEOT_, symObjAddr: 0x9EB4, symBinAddr: 0x1000170B0, symSize: 0x20 }
  - { offsetInCU: 0x1C70D, offset: 0x50B1F, size: 0x8, addend: 0x0, symName: __ZNSt3__19allocatorINS_8functionIFNS_10unique_ptrIN3icp3ICPENS_14default_deleteIS4_EEEEmdEEEE8allocateB8ue170006Em, symObjAddr: 0x9ED4, symBinAddr: 0x1000170D0, symSize: 0x58 }
  - { offsetInCU: 0x1C73F, offset: 0x50B51, size: 0x8, addend: 0x0, symName: __ZNSt3__117__compressed_pairIPNS_8functionIFNS_10unique_ptrIN3icp3ICPENS_14default_deleteIS4_EEEEmdEEERNS_9allocatorIS9_EEE6secondB8ue170006Ev, symObjAddr: 0x9F2C, symBinAddr: 0x100017128, symSize: 0x28 }
  - { offsetInCU: 0x1C763, offset: 0x50B75, size: 0x8, addend: 0x0, symName: __ZNSt3__122__compressed_pair_elemIRNS_9allocatorINS_8functionIFNS_10unique_ptrIN3icp3ICPENS_14default_deleteIS5_EEEEmdEEEEELi1ELb0EE5__getB8ue170006Ev, symObjAddr: 0x9F54, symBinAddr: 0x100017150, symSize: 0x18 }
  - { offsetInCU: 0x1C787, offset: 0x50B99, size: 0x8, addend: 0x0, symName: __ZNSt3__117__compressed_pairIPNS_8functionIFNS_10unique_ptrIN3icp3ICPENS_14default_deleteIS4_EEEEmdEEERNS_9allocatorIS9_EEE5firstB8ue170006Ev, symObjAddr: 0x9F6C, symBinAddr: 0x100017168, symSize: 0x24 }
  - { offsetInCU: 0x1C7AB, offset: 0x50BBD, size: 0x8, addend: 0x0, symName: __ZNKSt3__16vectorINS_8functionIFNS_10unique_ptrIN3icp3ICPENS_14default_deleteIS4_EEEEmdEEENS_9allocatorIS9_EEE17__annotate_deleteB8ue170006Ev, symObjAddr: 0x9F90, symBinAddr: 0x10001718C, symSize: 0xB8 }
  - { offsetInCU: 0x1C7CF, offset: 0x50BE1, size: 0x8, addend: 0x0, symName: __ZNSt3__116reverse_iteratorIPNS_8functionIFNS_10unique_ptrIN3icp3ICPENS_14default_deleteIS4_EEEEmdEEEEC1B8ue170006ESA_, symObjAddr: 0xA174, symBinAddr: 0x100017370, symSize: 0x34 }
  - { offsetInCU: 0x1C805, offset: 0x50C17, size: 0x8, addend: 0x0, symName: __ZNKSt3__116reverse_iteratorIPNS_8functionIFNS_10unique_ptrIN3icp3ICPENS_14default_deleteIS4_EEEEmdEEEE4baseB8ue170006Ev, symObjAddr: 0xA1A8, symBinAddr: 0x1000173A4, symSize: 0x18 }
  - { offsetInCU: 0x1C829, offset: 0x50C3B, size: 0x8, addend: 0x0, symName: __ZNKSt3__16vectorINS_8functionIFNS_10unique_ptrIN3icp3ICPENS_14default_deleteIS4_EEEEmdEEENS_9allocatorIS9_EEE14__annotate_newB8ue170006Em, symObjAddr: 0xA1FC, symBinAddr: 0x1000173F8, symSize: 0xAC }
  - { offsetInCU: 0x1C85C, offset: 0x50C6E, size: 0x8, addend: 0x0, symName: __ZNKSt3__16vectorINS_8functionIFNS_10unique_ptrIN3icp3ICPENS_14default_deleteIS4_EEEEmdEEENS_9allocatorIS9_EEE31__annotate_contiguous_containerB8ue170006EPKvSE_SE_SE_, symObjAddr: 0xA2A8, symBinAddr: 0x1000174A4, symSize: 0x20 }
  - { offsetInCU: 0x1C8AC, offset: 0x50CBE, size: 0x8, addend: 0x0, symName: __ZNKSt3__16vectorINS_8functionIFNS_10unique_ptrIN3icp3ICPENS_14default_deleteIS4_EEEEmdEEENS_9allocatorIS9_EEE4dataB8ue170006Ev, symObjAddr: 0xA2C8, symBinAddr: 0x1000174C4, symSize: 0x28 }
  - { offsetInCU: 0x1C8D0, offset: 0x50CE2, size: 0x8, addend: 0x0, symName: __ZNSt3__129_AllocatorDestroyRangeReverseINS_9allocatorINS_8functionIFNS_10unique_ptrIN3icp3ICPENS_14default_deleteIS5_EEEEmdEEEEENS_16reverse_iteratorIPSA_EEEC1B8ue170006ERSB_RSE_SH_, symObjAddr: 0xA33C, symBinAddr: 0x100017538, symSize: 0x44 }
  - { offsetInCU: 0x1C925, offset: 0x50D37, size: 0x8, addend: 0x0, symName: __ZNSt3__116allocator_traitsINS_9allocatorINS_8functionIFNS_10unique_ptrIN3icp3ICPENS_14default_deleteIS5_EEEEmdEEEEEE9constructB8ue170006ISA_JSA_EvEEvRSB_PT_DpOT0_, symObjAddr: 0xA3C8, symBinAddr: 0x1000175C4, symSize: 0x34 }
  - { offsetInCU: 0x1C97B, offset: 0x50D8D, size: 0x8, addend: 0x0, symName: __ZNKSt3__116reverse_iteratorIPNS_8functionIFNS_10unique_ptrIN3icp3ICPENS_14default_deleteIS4_EEEEmdEEEEdeB8ue170006Ev, symObjAddr: 0xA420, symBinAddr: 0x10001761C, symSize: 0x28 }
  - { offsetInCU: 0x1C9AD, offset: 0x50DBF, size: 0x8, addend: 0x0, symName: __ZNSt3__116reverse_iteratorIPNS_8functionIFNS_10unique_ptrIN3icp3ICPENS_14default_deleteIS4_EEEEmdEEEEppB8ue170006Ev, symObjAddr: 0xA448, symBinAddr: 0x100017644, symSize: 0x20 }
  - { offsetInCU: 0x1C9D1, offset: 0x50DE3, size: 0x8, addend: 0x0, symName: __ZNSt3__128__exception_guard_exceptionsINS_29_AllocatorDestroyRangeReverseINS_9allocatorINS_8functionIFNS_10unique_ptrIN3icp3ICPENS_14default_deleteIS6_EEEEmdEEEEENS_16reverse_iteratorIPSB_EEEEE10__completeB8ue170006Ev, symObjAddr: 0xA468, symBinAddr: 0x100017664, symSize: 0x1C }
  - { offsetInCU: 0x1C9F5, offset: 0x50E07, size: 0x8, addend: 0x0, symName: __ZNSt3__128__exception_guard_exceptionsINS_29_AllocatorDestroyRangeReverseINS_9allocatorINS_8functionIFNS_10unique_ptrIN3icp3ICPENS_14default_deleteIS6_EEEEmdEEEEENS_16reverse_iteratorIPSB_EEEEED1B8ue170006Ev, symObjAddr: 0xA484, symBinAddr: 0x100017680, symSize: 0x2C }
  - { offsetInCU: 0x1CA1D, offset: 0x50E2F, size: 0x8, addend: 0x0, symName: __ZNSt3__128__exception_guard_exceptionsINS_29_AllocatorDestroyRangeReverseINS_9allocatorINS_8functionIFNS_10unique_ptrIN3icp3ICPENS_14default_deleteIS6_EEEEmdEEEEENS_16reverse_iteratorIPSB_EEEEEC1B8ue170006ESG_, symObjAddr: 0xA4B0, symBinAddr: 0x1000176AC, symSize: 0x34 }
  - { offsetInCU: 0x1CA54, offset: 0x50E66, size: 0x8, addend: 0x0, symName: __ZNSt3__128__exception_guard_exceptionsINS_29_AllocatorDestroyRangeReverseINS_9allocatorINS_8functionIFNS_10unique_ptrIN3icp3ICPENS_14default_deleteIS6_EEEEmdEEEEENS_16reverse_iteratorIPSB_EEEEEC2B8ue170006ESG_, symObjAddr: 0xA4E4, symBinAddr: 0x1000176E0, symSize: 0x30 }
  - { offsetInCU: 0x1CA8B, offset: 0x50E9D, size: 0x8, addend: 0x0, symName: __ZNSt3__129_AllocatorDestroyRangeReverseINS_9allocatorINS_8functionIFNS_10unique_ptrIN3icp3ICPENS_14default_deleteIS5_EEEEmdEEEEENS_16reverse_iteratorIPSA_EEEC2B8ue170006ERSB_RSE_SH_, symObjAddr: 0xA514, symBinAddr: 0x100017710, symSize: 0x38 }
  - { offsetInCU: 0x1CAE0, offset: 0x50EF2, size: 0x8, addend: 0x0, symName: __ZNSt3__19allocatorINS_8functionIFNS_10unique_ptrIN3icp3ICPENS_14default_deleteIS4_EEEEmdEEEE9constructB8ue170006IS9_JS9_EEEvPT_DpOT0_, symObjAddr: 0xA54C, symBinAddr: 0x100017748, symSize: 0x30 }
  - { offsetInCU: 0x1CB34, offset: 0x50F46, size: 0x8, addend: 0x0, symName: __ZNSt3__18functionIFNS_10unique_ptrIN3icp3ICPENS_14default_deleteIS3_EEEEmdEEC1EOS8_, symObjAddr: 0xA57C, symBinAddr: 0x100017778, symSize: 0x34 }
  - { offsetInCU: 0x1CB6D, offset: 0x50F7F, size: 0x8, addend: 0x0, symName: __ZNSt3__18functionIFNS_10unique_ptrIN3icp3ICPENS_14default_deleteIS3_EEEEmdEEC2EOS8_, symObjAddr: 0xA5B0, symBinAddr: 0x1000177AC, symSize: 0x34 }
  - { offsetInCU: 0x1CBA6, offset: 0x50FB8, size: 0x8, addend: 0x0, symName: __ZNSt3__110__function12__value_funcIFNS_10unique_ptrIN3icp3ICPENS_14default_deleteIS4_EEEEmdEEC1B8ue170006EOS9_, symObjAddr: 0xA5E4, symBinAddr: 0x1000177E0, symSize: 0x34 }
  - { offsetInCU: 0x1CBDD, offset: 0x50FEF, size: 0x8, addend: 0x0, symName: __ZNSt3__110__function12__value_funcIFNS_10unique_ptrIN3icp3ICPENS_14default_deleteIS4_EEEEmdEEC2B8ue170006EOS9_, symObjAddr: 0xA618, symBinAddr: 0x100017814, symSize: 0xC4 }
  - { offsetInCU: 0x1CC19, offset: 0x5102B, size: 0x8, addend: 0x0, symName: __ZNSt3__119__to_address_helperINS_16reverse_iteratorIPNS_8functionIFNS_10unique_ptrIN3icp3ICPENS_14default_deleteIS5_EEEEmdEEEEEvE6__callB8ue170006ERKSC_, symObjAddr: 0xA6DC, symBinAddr: 0x1000178D8, symSize: 0x38 }
  - { offsetInCU: 0x1CC3B, offset: 0x5104D, size: 0x8, addend: 0x0, symName: __ZNKSt3__116reverse_iteratorIPNS_8functionIFNS_10unique_ptrIN3icp3ICPENS_14default_deleteIS4_EEEEmdEEEEptB8ue170006Ev, symObjAddr: 0xA714, symBinAddr: 0x100017910, symSize: 0x24 }
  - { offsetInCU: 0x1CC5F, offset: 0x51071, size: 0x8, addend: 0x0, symName: __ZNSt3__128__exception_guard_exceptionsINS_29_AllocatorDestroyRangeReverseINS_9allocatorINS_8functionIFNS_10unique_ptrIN3icp3ICPENS_14default_deleteIS6_EEEEmdEEEEENS_16reverse_iteratorIPSB_EEEEED2B8ue170006Ev, symObjAddr: 0xA738, symBinAddr: 0x100017934, symSize: 0x50 }
  - { offsetInCU: 0x1CC87, offset: 0x51099, size: 0x8, addend: 0x0, symName: __ZNKSt3__129_AllocatorDestroyRangeReverseINS_9allocatorINS_8functionIFNS_10unique_ptrIN3icp3ICPENS_14default_deleteIS5_EEEEmdEEEEENS_16reverse_iteratorIPSA_EEEclB8ue170006Ev, symObjAddr: 0xA788, symBinAddr: 0x100017984, symSize: 0xB4 }
  - { offsetInCU: 0x1CCAC, offset: 0x510BE, size: 0x8, addend: 0x0, symName: __ZNSt3__116reverse_iteratorINS0_IPNS_8functionIFNS_10unique_ptrIN3icp3ICPENS_14default_deleteIS4_EEEEmdEEEEEEC1B8ue170006ESB_, symObjAddr: 0xA8AC, symBinAddr: 0x100017AA8, symSize: 0x3C }
  - { offsetInCU: 0x1CCE2, offset: 0x510F4, size: 0x8, addend: 0x0, symName: __ZNSt3__116allocator_traitsINS_9allocatorINS_8functionIFNS_10unique_ptrIN3icp3ICPENS_14default_deleteIS5_EEEEmdEEEEEE7destroyB8ue170006ISA_vEEvRSB_PT_, symObjAddr: 0xA948, symBinAddr: 0x100017B44, symSize: 0x2C }
  - { offsetInCU: 0x1CD1E, offset: 0x51130, size: 0x8, addend: 0x0, symName: __ZNSt3__116reverse_iteratorINS0_IPNS_8functionIFNS_10unique_ptrIN3icp3ICPENS_14default_deleteIS4_EEEEmdEEEEEEppB8ue170006Ev, symObjAddr: 0xA998, symBinAddr: 0x100017B94, symSize: 0x30 }
  - { offsetInCU: 0x1CD42, offset: 0x51154, size: 0x8, addend: 0x0, symName: __ZNKSt3__116reverse_iteratorINS0_IPNS_8functionIFNS_10unique_ptrIN3icp3ICPENS_14default_deleteIS4_EEEEmdEEEEEE4baseB8ue170006Ev, symObjAddr: 0xA9C8, symBinAddr: 0x100017BC4, symSize: 0x24 }
  - { offsetInCU: 0x1CD66, offset: 0x51178, size: 0x8, addend: 0x0, symName: __ZNSt3__19allocatorINS_8functionIFNS_10unique_ptrIN3icp3ICPENS_14default_deleteIS4_EEEEmdEEEE7destroyB8ue170006EPS9_, symObjAddr: 0xA9EC, symBinAddr: 0x100017BE8, symSize: 0x28 }
  - { offsetInCU: 0x1CD98, offset: 0x511AA, size: 0x8, addend: 0x0, symName: __ZNSt3__18functionIFNS_10unique_ptrIN3icp3ICPENS_14default_deleteIS3_EEEEmdEED1Ev, symObjAddr: 0xAA14, symBinAddr: 0x100017C10, symSize: 0x2C }
  - { offsetInCU: 0x1CDC2, offset: 0x511D4, size: 0x8, addend: 0x0, symName: __ZNSt3__18functionIFNS_10unique_ptrIN3icp3ICPENS_14default_deleteIS3_EEEEmdEED2Ev, symObjAddr: 0xAA40, symBinAddr: 0x100017C3C, symSize: 0x2C }
  - { offsetInCU: 0x1CDEC, offset: 0x511FE, size: 0x8, addend: 0x0, symName: __ZNSt3__110__function12__value_funcIFNS_10unique_ptrIN3icp3ICPENS_14default_deleteIS4_EEEEmdEED1B8ue170006Ev, symObjAddr: 0xAA6C, symBinAddr: 0x100017C68, symSize: 0x2C }
  - { offsetInCU: 0x1CE14, offset: 0x51226, size: 0x8, addend: 0x0, symName: __ZNSt3__110__function12__value_funcIFNS_10unique_ptrIN3icp3ICPENS_14default_deleteIS4_EEEEmdEED2B8ue170006Ev, symObjAddr: 0xAA98, symBinAddr: 0x100017C94, symSize: 0x90 }
  - { offsetInCU: 0x1CE41, offset: 0x51253, size: 0x8, addend: 0x0, symName: __ZNSt3__119__to_address_helperINS_16reverse_iteratorINS1_IPNS_8functionIFNS_10unique_ptrIN3icp3ICPENS_14default_deleteIS5_EEEEmdEEEEEEEvE6__callB8ue170006ERKSD_, symObjAddr: 0xAB28, symBinAddr: 0x100017D24, symSize: 0x38 }
  - { offsetInCU: 0x1CE63, offset: 0x51275, size: 0x8, addend: 0x0, symName: __ZNKSt3__116reverse_iteratorINS0_IPNS_8functionIFNS_10unique_ptrIN3icp3ICPENS_14default_deleteIS4_EEEEmdEEEEEEptB8ue170006Ev, symObjAddr: 0xAB60, symBinAddr: 0x100017D5C, symSize: 0x24 }
  - { offsetInCU: 0x1CE87, offset: 0x51299, size: 0x8, addend: 0x0, symName: __ZNKSt3__116reverse_iteratorINS0_IPNS_8functionIFNS_10unique_ptrIN3icp3ICPENS_14default_deleteIS4_EEEEmdEEEEEEdeB8ue170006Ev, symObjAddr: 0xAB84, symBinAddr: 0x100017D80, symSize: 0x34 }
  - { offsetInCU: 0x1CEB9, offset: 0x512CB, size: 0x8, addend: 0x0, symName: __ZNSt3__116reverse_iteratorIPNS_8functionIFNS_10unique_ptrIN3icp3ICPENS_14default_deleteIS4_EEEEmdEEEEmmB8ue170006Ev, symObjAddr: 0xABB8, symBinAddr: 0x100017DB4, symSize: 0x20 }
  - { offsetInCU: 0x1CEDD, offset: 0x512EF, size: 0x8, addend: 0x0, symName: __ZNSt3__116reverse_iteratorINS0_IPNS_8functionIFNS_10unique_ptrIN3icp3ICPENS_14default_deleteIS4_EEEEmdEEEEEEC2B8ue170006ESB_, symObjAddr: 0xABD8, symBinAddr: 0x100017DD4, symSize: 0x2C }
  - { offsetInCU: 0x1CF13, offset: 0x51325, size: 0x8, addend: 0x0, symName: __ZNSt3__116reverse_iteratorIPNS_8functionIFNS_10unique_ptrIN3icp3ICPENS_14default_deleteIS4_EEEEmdEEEEC2B8ue170006ESA_, symObjAddr: 0xAC04, symBinAddr: 0x100017E00, symSize: 0x28 }
  - { offsetInCU: 0x1CF49, offset: 0x5135B, size: 0x8, addend: 0x0, symName: __ZNSt3__114__split_bufferINS_8functionIFNS_10unique_ptrIN3icp3ICPENS_14default_deleteIS4_EEEEmdEEERNS_9allocatorIS9_EEED2Ev, symObjAddr: 0xAC2C, symBinAddr: 0x100017E28, symSize: 0x8C }
  - { offsetInCU: 0x1CF73, offset: 0x51385, size: 0x8, addend: 0x0, symName: __ZNSt3__114__split_bufferINS_8functionIFNS_10unique_ptrIN3icp3ICPENS_14default_deleteIS4_EEEEmdEEERNS_9allocatorIS9_EEE5clearB8ue170006Ev, symObjAddr: 0xACB8, symBinAddr: 0x100017EB4, symSize: 0x28 }
  - { offsetInCU: 0x1CF97, offset: 0x513A9, size: 0x8, addend: 0x0, symName: __ZNSt3__116allocator_traitsINS_9allocatorINS_8functionIFNS_10unique_ptrIN3icp3ICPENS_14default_deleteIS5_EEEEmdEEEEEE10deallocateB8ue170006ERSB_PSA_m, symObjAddr: 0xACE0, symBinAddr: 0x100017EDC, symSize: 0x34 }
  - { offsetInCU: 0x1CFD8, offset: 0x513EA, size: 0x8, addend: 0x0, symName: __ZNKSt3__114__split_bufferINS_8functionIFNS_10unique_ptrIN3icp3ICPENS_14default_deleteIS4_EEEEmdEEERNS_9allocatorIS9_EEE8capacityB8ue170006Ev, symObjAddr: 0xAD14, symBinAddr: 0x100017F10, symSize: 0x40 }
  - { offsetInCU: 0x1CFFC, offset: 0x5140E, size: 0x8, addend: 0x0, symName: __ZNSt3__114__split_bufferINS_8functionIFNS_10unique_ptrIN3icp3ICPENS_14default_deleteIS4_EEEEmdEEERNS_9allocatorIS9_EEE17__destruct_at_endB8ue170006EPS9_, symObjAddr: 0xAD54, symBinAddr: 0x100017F50, symSize: 0x2C }
  - { offsetInCU: 0x1D02E, offset: 0x51440, size: 0x8, addend: 0x0, symName: __ZNSt3__114__split_bufferINS_8functionIFNS_10unique_ptrIN3icp3ICPENS_14default_deleteIS4_EEEEmdEEERNS_9allocatorIS9_EEE17__destruct_at_endB8ue170006EPS9_NS_17integral_constantIbLb0EEE, symObjAddr: 0xAD80, symBinAddr: 0x100017F7C, symSize: 0x80 }
  - { offsetInCU: 0x1D06C, offset: 0x5147E, size: 0x8, addend: 0x0, symName: __ZNSt3__19allocatorINS_8functionIFNS_10unique_ptrIN3icp3ICPENS_14default_deleteIS4_EEEEmdEEEE10deallocateB8ue170006EPS9_m, symObjAddr: 0xAE00, symBinAddr: 0x100017FFC, symSize: 0x40 }
  - { offsetInCU: 0x1D0AC, offset: 0x514BE, size: 0x8, addend: 0x0, symName: __ZNKSt3__114__split_bufferINS_8functionIFNS_10unique_ptrIN3icp3ICPENS_14default_deleteIS4_EEEEmdEEERNS_9allocatorIS9_EEE9__end_capB8ue170006Ev, symObjAddr: 0xAE40, symBinAddr: 0x10001803C, symSize: 0x28 }
  - { offsetInCU: 0x1D0D0, offset: 0x514E2, size: 0x8, addend: 0x0, symName: __ZNKSt3__117__compressed_pairIPNS_8functionIFNS_10unique_ptrIN3icp3ICPENS_14default_deleteIS4_EEEEmdEEERNS_9allocatorIS9_EEE5firstB8ue170006Ev, symObjAddr: 0xAE68, symBinAddr: 0x100018064, symSize: 0x24 }
  - { offsetInCU: 0x1D0F4, offset: 0x51506, size: 0x8, addend: 0x0, symName: __ZNSt3__16vectorINS_12basic_stringIcNS_11char_traitsIcEENS_9allocatorIcEEEENS4_IS6_EEE9__end_capB8ue170006Ev, symObjAddr: 0xAE8C, symBinAddr: 0x100018088, symSize: 0x28 }
  - { offsetInCU: 0x1D118, offset: 0x5152A, size: 0x8, addend: 0x0, symName: __ZNSt3__16vectorINS_12basic_stringIcNS_11char_traitsIcEENS_9allocatorIcEEEENS4_IS6_EEE22__construct_one_at_endB8ue170006IJRKS6_EEEvDpOT_, symObjAddr: 0xAEB4, symBinAddr: 0x1000180B0, symSize: 0x90 }
  - { offsetInCU: 0x1D165, offset: 0x51577, size: 0x8, addend: 0x0, symName: __ZNSt3__16vectorINS_12basic_stringIcNS_11char_traitsIcEENS_9allocatorIcEEEENS4_IS6_EEE21__push_back_slow_pathIRKS6_EEvOT_, symObjAddr: 0xAF44, symBinAddr: 0x100018140, symSize: 0xD8 }
  - { offsetInCU: 0x1D1C1, offset: 0x515D3, size: 0x8, addend: 0x0, symName: __ZNSt3__117__compressed_pairIPNS_12basic_stringIcNS_11char_traitsIcEENS_9allocatorIcEEEENS4_IS6_EEE5firstB8ue170006Ev, symObjAddr: 0xB01C, symBinAddr: 0x100018218, symSize: 0x24 }
  - { offsetInCU: 0x1D1E5, offset: 0x515F7, size: 0x8, addend: 0x0, symName: __ZNSt3__122__compressed_pair_elemIPNS_12basic_stringIcNS_11char_traitsIcEENS_9allocatorIcEEEELi0ELb0EE5__getB8ue170006Ev, symObjAddr: 0xB040, symBinAddr: 0x10001823C, symSize: 0x14 }
  - { offsetInCU: 0x1D222, offset: 0x51634, size: 0x8, addend: 0x0, symName: __ZNSt3__16vectorINS_12basic_stringIcNS_11char_traitsIcEENS_9allocatorIcEEEENS4_IS6_EEE21_ConstructTransactionC1B8ue170006ERS8_m, symObjAddr: 0xB054, symBinAddr: 0x100018250, symSize: 0x3C }
  - { offsetInCU: 0x1D268, offset: 0x5167A, size: 0x8, addend: 0x0, symName: __ZNSt3__116allocator_traitsINS_9allocatorINS_12basic_stringIcNS_11char_traitsIcEENS1_IcEEEEEEE9constructB8ue170006IS6_JRKS6_EvEEvRS7_PT_DpOT0_, symObjAddr: 0xB090, symBinAddr: 0x10001828C, symSize: 0x34 }
  - { offsetInCU: 0x1D2BE, offset: 0x516D0, size: 0x8, addend: 0x0, symName: __ZNSt3__16vectorINS_12basic_stringIcNS_11char_traitsIcEENS_9allocatorIcEEEENS4_IS6_EEE7__allocB8ue170006Ev, symObjAddr: 0xB0C4, symBinAddr: 0x1000182C0, symSize: 0x28 }
  - { offsetInCU: 0x1D2E2, offset: 0x516F4, size: 0x8, addend: 0x0, symName: __ZNSt3__16vectorINS_12basic_stringIcNS_11char_traitsIcEENS_9allocatorIcEEEENS4_IS6_EEE21_ConstructTransactionD1B8ue170006Ev, symObjAddr: 0xB100, symBinAddr: 0x1000182FC, symSize: 0x2C }
  - { offsetInCU: 0x1D30A, offset: 0x5171C, size: 0x8, addend: 0x0, symName: __ZNSt3__16vectorINS_12basic_stringIcNS_11char_traitsIcEENS_9allocatorIcEEEENS4_IS6_EEE21_ConstructTransactionC2B8ue170006ERS8_m, symObjAddr: 0xB12C, symBinAddr: 0x100018328, symSize: 0x4C }
  - { offsetInCU: 0x1D350, offset: 0x51762, size: 0x8, addend: 0x0, symName: __ZNSt3__19allocatorINS_12basic_stringIcNS_11char_traitsIcEENS0_IcEEEEE9constructB8ue170006IS5_JRKS5_EEEvPT_DpOT0_, symObjAddr: 0xB178, symBinAddr: 0x100018374, symSize: 0x30 }
  - { offsetInCU: 0x1D3A4, offset: 0x517B6, size: 0x8, addend: 0x0, symName: __ZNSt3__117__compressed_pairIPNS_12basic_stringIcNS_11char_traitsIcEENS_9allocatorIcEEEENS4_IS6_EEE6secondB8ue170006Ev, symObjAddr: 0xB1A8, symBinAddr: 0x1000183A4, symSize: 0x24 }
  - { offsetInCU: 0x1D3C8, offset: 0x517DA, size: 0x8, addend: 0x0, symName: __ZNSt3__122__compressed_pair_elemINS_9allocatorINS_12basic_stringIcNS_11char_traitsIcEENS1_IcEEEEEELi1ELb1EE5__getB8ue170006Ev, symObjAddr: 0xB1CC, symBinAddr: 0x1000183C8, symSize: 0x14 }
  - { offsetInCU: 0x1D3EC, offset: 0x517FE, size: 0x8, addend: 0x0, symName: __ZNSt3__16vectorINS_12basic_stringIcNS_11char_traitsIcEENS_9allocatorIcEEEENS4_IS6_EEE21_ConstructTransactionD2B8ue170006Ev, symObjAddr: 0xB1E0, symBinAddr: 0x1000183DC, symSize: 0x20 }
  - { offsetInCU: 0x1D414, offset: 0x51826, size: 0x8, addend: 0x0, symName: __ZNKSt3__16vectorINS_12basic_stringIcNS_11char_traitsIcEENS_9allocatorIcEEEENS4_IS6_EEE11__recommendB8ue170006Em, symObjAddr: 0xB200, symBinAddr: 0x1000183FC, symSize: 0xB4 }
  - { offsetInCU: 0x1D467, offset: 0x51879, size: 0x8, addend: 0x0, symName: __ZNKSt3__16vectorINS_12basic_stringIcNS_11char_traitsIcEENS_9allocatorIcEEEENS4_IS6_EEE4sizeB8ue170006Ev, symObjAddr: 0xB2B4, symBinAddr: 0x1000184B0, symSize: 0x28 }
  - { offsetInCU: 0x1D48B, offset: 0x5189D, size: 0x8, addend: 0x0, symName: __ZNSt3__114__split_bufferINS_12basic_stringIcNS_11char_traitsIcEENS_9allocatorIcEEEERNS4_IS6_EEEC1EmmS8_, symObjAddr: 0xB2DC, symBinAddr: 0x1000184D8, symSize: 0x44 }
  - { offsetInCU: 0x1D4DF, offset: 0x518F1, size: 0x8, addend: 0x0, symName: __ZNSt3__114__split_bufferINS_12basic_stringIcNS_11char_traitsIcEENS_9allocatorIcEEEERNS4_IS6_EEED1Ev, symObjAddr: 0xB430, symBinAddr: 0x10001862C, symSize: 0x2C }
  - { offsetInCU: 0x1D509, offset: 0x5191B, size: 0x8, addend: 0x0, symName: __ZNKSt3__16vectorINS_12basic_stringIcNS_11char_traitsIcEENS_9allocatorIcEEEENS4_IS6_EEE8max_sizeEv, symObjAddr: 0xB45C, symBinAddr: 0x100018658, symSize: 0x60 }
  - { offsetInCU: 0x1D52F, offset: 0x51941, size: 0x8, addend: 0x0, symName: __ZNKSt3__16vectorINS_12basic_stringIcNS_11char_traitsIcEENS_9allocatorIcEEEENS4_IS6_EEE20__throw_length_errorB8ue170006Ev, symObjAddr: 0xB4BC, symBinAddr: 0x1000186B8, symSize: 0x1C }
  - { offsetInCU: 0x1D553, offset: 0x51965, size: 0x8, addend: 0x0, symName: __ZNKSt3__16vectorINS_12basic_stringIcNS_11char_traitsIcEENS_9allocatorIcEEEENS4_IS6_EEE8capacityB8ue170006Ev, symObjAddr: 0xB4D8, symBinAddr: 0x1000186D4, symSize: 0x40 }
  - { offsetInCU: 0x1D581, offset: 0x51993, size: 0x8, addend: 0x0, symName: __ZNSt3__116allocator_traitsINS_9allocatorINS_12basic_stringIcNS_11char_traitsIcEENS1_IcEEEEEEE8max_sizeB8ue170006IS7_vEEmRKS7_, symObjAddr: 0xB518, symBinAddr: 0x100018714, symSize: 0x24 }
  - { offsetInCU: 0x1D5AE, offset: 0x519C0, size: 0x8, addend: 0x0, symName: __ZNKSt3__16vectorINS_12basic_stringIcNS_11char_traitsIcEENS_9allocatorIcEEEENS4_IS6_EEE7__allocB8ue170006Ev, symObjAddr: 0xB53C, symBinAddr: 0x100018738, symSize: 0x28 }
  - { offsetInCU: 0x1D5D2, offset: 0x519E4, size: 0x8, addend: 0x0, symName: __ZNKSt3__19allocatorINS_12basic_stringIcNS_11char_traitsIcEENS0_IcEEEEE8max_sizeB8ue170006Ev, symObjAddr: 0xB564, symBinAddr: 0x100018760, symSize: 0x18 }
  - { offsetInCU: 0x1D5F6, offset: 0x51A08, size: 0x8, addend: 0x0, symName: __ZNKSt3__117__compressed_pairIPNS_12basic_stringIcNS_11char_traitsIcEENS_9allocatorIcEEEENS4_IS6_EEE6secondB8ue170006Ev, symObjAddr: 0xB57C, symBinAddr: 0x100018778, symSize: 0x24 }
  - { offsetInCU: 0x1D61A, offset: 0x51A2C, size: 0x8, addend: 0x0, symName: __ZNKSt3__122__compressed_pair_elemINS_9allocatorINS_12basic_stringIcNS_11char_traitsIcEENS1_IcEEEEEELi1ELb1EE5__getB8ue170006Ev, symObjAddr: 0xB5A0, symBinAddr: 0x10001879C, symSize: 0x14 }
  - { offsetInCU: 0x1D63E, offset: 0x51A50, size: 0x8, addend: 0x0, symName: __ZNKSt3__16vectorINS_12basic_stringIcNS_11char_traitsIcEENS_9allocatorIcEEEENS4_IS6_EEE9__end_capB8ue170006Ev, symObjAddr: 0xB5B4, symBinAddr: 0x1000187B0, symSize: 0x28 }
  - { offsetInCU: 0x1D662, offset: 0x51A74, size: 0x8, addend: 0x0, symName: __ZNKSt3__117__compressed_pairIPNS_12basic_stringIcNS_11char_traitsIcEENS_9allocatorIcEEEENS4_IS6_EEE5firstB8ue170006Ev, symObjAddr: 0xB5DC, symBinAddr: 0x1000187D8, symSize: 0x24 }
  - { offsetInCU: 0x1D686, offset: 0x51A98, size: 0x8, addend: 0x0, symName: __ZNKSt3__122__compressed_pair_elemIPNS_12basic_stringIcNS_11char_traitsIcEENS_9allocatorIcEEEELi0ELb0EE5__getB8ue170006Ev, symObjAddr: 0xB600, symBinAddr: 0x1000187FC, symSize: 0x14 }
  - { offsetInCU: 0x1D6AA, offset: 0x51ABC, size: 0x8, addend: 0x0, symName: __ZNSt3__114__split_bufferINS_12basic_stringIcNS_11char_traitsIcEENS_9allocatorIcEEEERNS4_IS6_EEEC2EmmS8_, symObjAddr: 0xB614, symBinAddr: 0x100018810, symSize: 0xE0 }
  - { offsetInCU: 0x1D71B, offset: 0x51B2D, size: 0x8, addend: 0x0, symName: __ZNSt3__117__compressed_pairIPNS_12basic_stringIcNS_11char_traitsIcEENS_9allocatorIcEEEERNS4_IS6_EEEC1B8ue170006IDnS9_EEOT_OT0_, symObjAddr: 0xB6F4, symBinAddr: 0x1000188F0, symSize: 0x3C }
  - { offsetInCU: 0x1D771, offset: 0x51B83, size: 0x8, addend: 0x0, symName: __ZNSt3__114__split_bufferINS_12basic_stringIcNS_11char_traitsIcEENS_9allocatorIcEEEERNS4_IS6_EEE7__allocB8ue170006Ev, symObjAddr: 0xB770, symBinAddr: 0x10001896C, symSize: 0x28 }
  - { offsetInCU: 0x1D795, offset: 0x51BA7, size: 0x8, addend: 0x0, symName: __ZNSt3__114__split_bufferINS_12basic_stringIcNS_11char_traitsIcEENS_9allocatorIcEEEERNS4_IS6_EEE9__end_capB8ue170006Ev, symObjAddr: 0xB798, symBinAddr: 0x100018994, symSize: 0x28 }
  - { offsetInCU: 0x1D7B9, offset: 0x51BCB, size: 0x8, addend: 0x0, symName: __ZNSt3__117__compressed_pairIPNS_12basic_stringIcNS_11char_traitsIcEENS_9allocatorIcEEEERNS4_IS6_EEEC2B8ue170006IDnS9_EEOT_OT0_, symObjAddr: 0xB7C0, symBinAddr: 0x1000189BC, symSize: 0x48 }
  - { offsetInCU: 0x1D80F, offset: 0x51C21, size: 0x8, addend: 0x0, symName: __ZNSt3__122__compressed_pair_elemIRNS_9allocatorINS_12basic_stringIcNS_11char_traitsIcEENS1_IcEEEEEELi1ELb0EEC2B8ue170006IS8_vEEOT_, symObjAddr: 0xB808, symBinAddr: 0x100018A04, symSize: 0x20 }
  - { offsetInCU: 0x1D84F, offset: 0x51C61, size: 0x8, addend: 0x0, symName: __ZNSt3__19allocatorINS_12basic_stringIcNS_11char_traitsIcEENS0_IcEEEEE8allocateB8ue170006Em, symObjAddr: 0xB828, symBinAddr: 0x100018A24, symSize: 0x5C }
  - { offsetInCU: 0x1D881, offset: 0x51C93, size: 0x8, addend: 0x0, symName: __ZNSt3__117__compressed_pairIPNS_12basic_stringIcNS_11char_traitsIcEENS_9allocatorIcEEEERNS4_IS6_EEE6secondB8ue170006Ev, symObjAddr: 0xB884, symBinAddr: 0x100018A80, symSize: 0x28 }
  - { offsetInCU: 0x1D8A5, offset: 0x51CB7, size: 0x8, addend: 0x0, symName: __ZNSt3__122__compressed_pair_elemIRNS_9allocatorINS_12basic_stringIcNS_11char_traitsIcEENS1_IcEEEEEELi1ELb0EE5__getB8ue170006Ev, symObjAddr: 0xB8AC, symBinAddr: 0x100018AA8, symSize: 0x18 }
  - { offsetInCU: 0x1D8C9, offset: 0x51CDB, size: 0x8, addend: 0x0, symName: __ZNSt3__117__compressed_pairIPNS_12basic_stringIcNS_11char_traitsIcEENS_9allocatorIcEEEERNS4_IS6_EEE5firstB8ue170006Ev, symObjAddr: 0xB8C4, symBinAddr: 0x100018AC0, symSize: 0x24 }
  - { offsetInCU: 0x1D8ED, offset: 0x51CFF, size: 0x8, addend: 0x0, symName: __ZNKSt3__16vectorINS_12basic_stringIcNS_11char_traitsIcEENS_9allocatorIcEEEENS4_IS6_EEE17__annotate_deleteB8ue170006Ev, symObjAddr: 0xB8E8, symBinAddr: 0x100018AE4, symSize: 0xD4 }
  - { offsetInCU: 0x1D911, offset: 0x51D23, size: 0x8, addend: 0x0, symName: __ZNSt3__116reverse_iteratorIPNS_12basic_stringIcNS_11char_traitsIcEENS_9allocatorIcEEEEEC1B8ue170006ES7_, symObjAddr: 0xBAE8, symBinAddr: 0x100018CE4, symSize: 0x34 }
  - { offsetInCU: 0x1D947, offset: 0x51D59, size: 0x8, addend: 0x0, symName: __ZNKSt3__116reverse_iteratorIPNS_12basic_stringIcNS_11char_traitsIcEENS_9allocatorIcEEEEE4baseB8ue170006Ev, symObjAddr: 0xBB1C, symBinAddr: 0x100018D18, symSize: 0x18 }
  - { offsetInCU: 0x1D96B, offset: 0x51D7D, size: 0x8, addend: 0x0, symName: __ZNKSt3__16vectorINS_12basic_stringIcNS_11char_traitsIcEENS_9allocatorIcEEEENS4_IS6_EEE14__annotate_newB8ue170006Em, symObjAddr: 0xBB70, symBinAddr: 0x100018D6C, symSize: 0xC8 }
  - { offsetInCU: 0x1D99E, offset: 0x51DB0, size: 0x8, addend: 0x0, symName: __ZNKSt3__16vectorINS_12basic_stringIcNS_11char_traitsIcEENS_9allocatorIcEEEENS4_IS6_EEE31__annotate_contiguous_containerB8ue170006EPKvSA_SA_SA_, symObjAddr: 0xBC38, symBinAddr: 0x100018E34, symSize: 0x20 }
  - { offsetInCU: 0x1D9EE, offset: 0x51E00, size: 0x8, addend: 0x0, symName: __ZNKSt3__16vectorINS_12basic_stringIcNS_11char_traitsIcEENS_9allocatorIcEEEENS4_IS6_EEE4dataB8ue170006Ev, symObjAddr: 0xBC58, symBinAddr: 0x100018E54, symSize: 0x28 }
  - { offsetInCU: 0x1DA12, offset: 0x51E24, size: 0x8, addend: 0x0, symName: __ZNSt3__129_AllocatorDestroyRangeReverseINS_9allocatorINS_12basic_stringIcNS_11char_traitsIcEENS1_IcEEEEEENS_16reverse_iteratorIPS6_EEEC1B8ue170006ERS7_RSA_SD_, symObjAddr: 0xBCCC, symBinAddr: 0x100018EC8, symSize: 0x44 }
  - { offsetInCU: 0x1DA6C, offset: 0x51E7E, size: 0x8, addend: 0x0, symName: __ZNSt3__116allocator_traitsINS_9allocatorINS_12basic_stringIcNS_11char_traitsIcEENS1_IcEEEEEEE9constructB8ue170006IS6_JS6_EvEEvRS7_PT_DpOT0_, symObjAddr: 0xBD58, symBinAddr: 0x100018F54, symSize: 0x34 }
  - { offsetInCU: 0x1DAC2, offset: 0x51ED4, size: 0x8, addend: 0x0, symName: __ZNKSt3__116reverse_iteratorIPNS_12basic_stringIcNS_11char_traitsIcEENS_9allocatorIcEEEEEdeB8ue170006Ev, symObjAddr: 0xBDB0, symBinAddr: 0x100018FAC, symSize: 0x28 }
  - { offsetInCU: 0x1DAF4, offset: 0x51F06, size: 0x8, addend: 0x0, symName: __ZNSt3__116reverse_iteratorIPNS_12basic_stringIcNS_11char_traitsIcEENS_9allocatorIcEEEEEppB8ue170006Ev, symObjAddr: 0xBDD8, symBinAddr: 0x100018FD4, symSize: 0x20 }
  - { offsetInCU: 0x1DB18, offset: 0x51F2A, size: 0x8, addend: 0x0, symName: __ZNSt3__128__exception_guard_exceptionsINS_29_AllocatorDestroyRangeReverseINS_9allocatorINS_12basic_stringIcNS_11char_traitsIcEENS2_IcEEEEEENS_16reverse_iteratorIPS7_EEEEE10__completeB8ue170006Ev, symObjAddr: 0xBDF8, symBinAddr: 0x100018FF4, symSize: 0x1C }
  - { offsetInCU: 0x1DB3C, offset: 0x51F4E, size: 0x8, addend: 0x0, symName: __ZNSt3__128__exception_guard_exceptionsINS_29_AllocatorDestroyRangeReverseINS_9allocatorINS_12basic_stringIcNS_11char_traitsIcEENS2_IcEEEEEENS_16reverse_iteratorIPS7_EEEEED1B8ue170006Ev, symObjAddr: 0xBE14, symBinAddr: 0x100019010, symSize: 0x2C }
  - { offsetInCU: 0x1DB64, offset: 0x51F76, size: 0x8, addend: 0x0, symName: __ZNSt3__128__exception_guard_exceptionsINS_29_AllocatorDestroyRangeReverseINS_9allocatorINS_12basic_stringIcNS_11char_traitsIcEENS2_IcEEEEEENS_16reverse_iteratorIPS7_EEEEEC1B8ue170006ESC_, symObjAddr: 0xBE40, symBinAddr: 0x10001903C, symSize: 0x34 }
  - { offsetInCU: 0x1DB9B, offset: 0x51FAD, size: 0x8, addend: 0x0, symName: __ZNSt3__128__exception_guard_exceptionsINS_29_AllocatorDestroyRangeReverseINS_9allocatorINS_12basic_stringIcNS_11char_traitsIcEENS2_IcEEEEEENS_16reverse_iteratorIPS7_EEEEEC2B8ue170006ESC_, symObjAddr: 0xBE74, symBinAddr: 0x100019070, symSize: 0x30 }
  - { offsetInCU: 0x1DBD2, offset: 0x51FE4, size: 0x8, addend: 0x0, symName: __ZNSt3__129_AllocatorDestroyRangeReverseINS_9allocatorINS_12basic_stringIcNS_11char_traitsIcEENS1_IcEEEEEENS_16reverse_iteratorIPS6_EEEC2B8ue170006ERS7_RSA_SD_, symObjAddr: 0xBEA4, symBinAddr: 0x1000190A0, symSize: 0x38 }
  - { offsetInCU: 0x1DC27, offset: 0x52039, size: 0x8, addend: 0x0, symName: __ZNSt3__19allocatorINS_12basic_stringIcNS_11char_traitsIcEENS0_IcEEEEE9constructB8ue170006IS5_JS5_EEEvPT_DpOT0_, symObjAddr: 0xBEDC, symBinAddr: 0x1000190D8, symSize: 0x30 }
  - { offsetInCU: 0x1DC80, offset: 0x52092, size: 0x8, addend: 0x0, symName: __ZNSt3__119__to_address_helperINS_16reverse_iteratorIPNS_12basic_stringIcNS_11char_traitsIcEENS_9allocatorIcEEEEEEvE6__callB8ue170006ERKS9_, symObjAddr: 0xC008, symBinAddr: 0x100019108, symSize: 0x38 }
  - { offsetInCU: 0x1DCA2, offset: 0x520B4, size: 0x8, addend: 0x0, symName: __ZNKSt3__116reverse_iteratorIPNS_12basic_stringIcNS_11char_traitsIcEENS_9allocatorIcEEEEEptB8ue170006Ev, symObjAddr: 0xC040, symBinAddr: 0x100019140, symSize: 0x24 }
  - { offsetInCU: 0x1DCC6, offset: 0x520D8, size: 0x8, addend: 0x0, symName: __ZNSt3__128__exception_guard_exceptionsINS_29_AllocatorDestroyRangeReverseINS_9allocatorINS_12basic_stringIcNS_11char_traitsIcEENS2_IcEEEEEENS_16reverse_iteratorIPS7_EEEEED2B8ue170006Ev, symObjAddr: 0xC064, symBinAddr: 0x100019164, symSize: 0x50 }
  - { offsetInCU: 0x1DCEE, offset: 0x52100, size: 0x8, addend: 0x0, symName: __ZNKSt3__129_AllocatorDestroyRangeReverseINS_9allocatorINS_12basic_stringIcNS_11char_traitsIcEENS1_IcEEEEEENS_16reverse_iteratorIPS6_EEEclB8ue170006Ev, symObjAddr: 0xC0B4, symBinAddr: 0x1000191B4, symSize: 0xB4 }
  - { offsetInCU: 0x1DD13, offset: 0x52125, size: 0x8, addend: 0x0, symName: __ZNSt3__116reverse_iteratorINS0_IPNS_12basic_stringIcNS_11char_traitsIcEENS_9allocatorIcEEEEEEEC1B8ue170006ES8_, symObjAddr: 0xC1D8, symBinAddr: 0x1000192D8, symSize: 0x3C }
  - { offsetInCU: 0x1DD49, offset: 0x5215B, size: 0x8, addend: 0x0, symName: __ZNSt3__116allocator_traitsINS_9allocatorINS_12basic_stringIcNS_11char_traitsIcEENS1_IcEEEEEEE7destroyB8ue170006IS6_vEEvRS7_PT_, symObjAddr: 0xC274, symBinAddr: 0x100019374, symSize: 0x2C }
  - { offsetInCU: 0x1DD85, offset: 0x52197, size: 0x8, addend: 0x0, symName: __ZNSt3__116reverse_iteratorINS0_IPNS_12basic_stringIcNS_11char_traitsIcEENS_9allocatorIcEEEEEEEppB8ue170006Ev, symObjAddr: 0xC2C4, symBinAddr: 0x1000193C4, symSize: 0x30 }
  - { offsetInCU: 0x1DDA9, offset: 0x521BB, size: 0x8, addend: 0x0, symName: __ZNKSt3__116reverse_iteratorINS0_IPNS_12basic_stringIcNS_11char_traitsIcEENS_9allocatorIcEEEEEEE4baseB8ue170006Ev, symObjAddr: 0xC2F4, symBinAddr: 0x1000193F4, symSize: 0x24 }
  - { offsetInCU: 0x1DDCD, offset: 0x521DF, size: 0x8, addend: 0x0, symName: __ZNSt3__19allocatorINS_12basic_stringIcNS_11char_traitsIcEENS0_IcEEEEE7destroyB8ue170006EPS5_, symObjAddr: 0xC318, symBinAddr: 0x100019418, symSize: 0x28 }
  - { offsetInCU: 0x1DE04, offset: 0x52216, size: 0x8, addend: 0x0, symName: __ZNSt3__119__to_address_helperINS_16reverse_iteratorINS1_IPNS_12basic_stringIcNS_11char_traitsIcEENS_9allocatorIcEEEEEEEEvE6__callB8ue170006ERKSA_, symObjAddr: 0xC340, symBinAddr: 0x100019440, symSize: 0x38 }
  - { offsetInCU: 0x1DE26, offset: 0x52238, size: 0x8, addend: 0x0, symName: __ZNKSt3__116reverse_iteratorINS0_IPNS_12basic_stringIcNS_11char_traitsIcEENS_9allocatorIcEEEEEEEptB8ue170006Ev, symObjAddr: 0xC378, symBinAddr: 0x100019478, symSize: 0x24 }
  - { offsetInCU: 0x1DE4A, offset: 0x5225C, size: 0x8, addend: 0x0, symName: __ZNKSt3__116reverse_iteratorINS0_IPNS_12basic_stringIcNS_11char_traitsIcEENS_9allocatorIcEEEEEEEdeB8ue170006Ev, symObjAddr: 0xC39C, symBinAddr: 0x10001949C, symSize: 0x34 }
  - { offsetInCU: 0x1DE7C, offset: 0x5228E, size: 0x8, addend: 0x0, symName: __ZNSt3__116reverse_iteratorIPNS_12basic_stringIcNS_11char_traitsIcEENS_9allocatorIcEEEEEmmB8ue170006Ev, symObjAddr: 0xC3D0, symBinAddr: 0x1000194D0, symSize: 0x20 }
  - { offsetInCU: 0x1DEA0, offset: 0x522B2, size: 0x8, addend: 0x0, symName: __ZNSt3__116reverse_iteratorINS0_IPNS_12basic_stringIcNS_11char_traitsIcEENS_9allocatorIcEEEEEEEC2B8ue170006ES8_, symObjAddr: 0xC3F0, symBinAddr: 0x1000194F0, symSize: 0x2C }
  - { offsetInCU: 0x1DED6, offset: 0x522E8, size: 0x8, addend: 0x0, symName: __ZNSt3__116reverse_iteratorIPNS_12basic_stringIcNS_11char_traitsIcEENS_9allocatorIcEEEEEC2B8ue170006ES7_, symObjAddr: 0xC41C, symBinAddr: 0x10001951C, symSize: 0x28 }
  - { offsetInCU: 0x1DF0C, offset: 0x5231E, size: 0x8, addend: 0x0, symName: __ZNSt3__114__split_bufferINS_12basic_stringIcNS_11char_traitsIcEENS_9allocatorIcEEEERNS4_IS6_EEED2Ev, symObjAddr: 0xC444, symBinAddr: 0x100019544, symSize: 0x8C }
  - { offsetInCU: 0x1DF36, offset: 0x52348, size: 0x8, addend: 0x0, symName: __ZNSt3__114__split_bufferINS_12basic_stringIcNS_11char_traitsIcEENS_9allocatorIcEEEERNS4_IS6_EEE5clearB8ue170006Ev, symObjAddr: 0xC4D0, symBinAddr: 0x1000195D0, symSize: 0x28 }
  - { offsetInCU: 0x1DF5A, offset: 0x5236C, size: 0x8, addend: 0x0, symName: __ZNSt3__116allocator_traitsINS_9allocatorINS_12basic_stringIcNS_11char_traitsIcEENS1_IcEEEEEEE10deallocateB8ue170006ERS7_PS6_m, symObjAddr: 0xC4F8, symBinAddr: 0x1000195F8, symSize: 0x34 }
  - { offsetInCU: 0x1DF9B, offset: 0x523AD, size: 0x8, addend: 0x0, symName: __ZNKSt3__114__split_bufferINS_12basic_stringIcNS_11char_traitsIcEENS_9allocatorIcEEEERNS4_IS6_EEE8capacityB8ue170006Ev, symObjAddr: 0xC52C, symBinAddr: 0x10001962C, symSize: 0x40 }
  - { offsetInCU: 0x1DFBF, offset: 0x523D1, size: 0x8, addend: 0x0, symName: __ZNSt3__114__split_bufferINS_12basic_stringIcNS_11char_traitsIcEENS_9allocatorIcEEEERNS4_IS6_EEE17__destruct_at_endB8ue170006EPS6_, symObjAddr: 0xC56C, symBinAddr: 0x10001966C, symSize: 0x2C }
  - { offsetInCU: 0x1DFF1, offset: 0x52403, size: 0x8, addend: 0x0, symName: __ZNSt3__114__split_bufferINS_12basic_stringIcNS_11char_traitsIcEENS_9allocatorIcEEEERNS4_IS6_EEE17__destruct_at_endB8ue170006EPS6_NS_17integral_constantIbLb0EEE, symObjAddr: 0xC598, symBinAddr: 0x100019698, symSize: 0x80 }
  - { offsetInCU: 0x1E02F, offset: 0x52441, size: 0x8, addend: 0x0, symName: __ZNSt3__19allocatorINS_12basic_stringIcNS_11char_traitsIcEENS0_IcEEEEE10deallocateB8ue170006EPS5_m, symObjAddr: 0xC618, symBinAddr: 0x100019718, symSize: 0x44 }
  - { offsetInCU: 0x1E06F, offset: 0x52481, size: 0x8, addend: 0x0, symName: __ZNKSt3__114__split_bufferINS_12basic_stringIcNS_11char_traitsIcEENS_9allocatorIcEEEERNS4_IS6_EEE9__end_capB8ue170006Ev, symObjAddr: 0xC65C, symBinAddr: 0x10001975C, symSize: 0x28 }
  - { offsetInCU: 0x1E093, offset: 0x524A5, size: 0x8, addend: 0x0, symName: __ZNKSt3__117__compressed_pairIPNS_12basic_stringIcNS_11char_traitsIcEENS_9allocatorIcEEEERNS4_IS6_EEE5firstB8ue170006Ev, symObjAddr: 0xC684, symBinAddr: 0x100019784, symSize: 0x24 }
  - { offsetInCU: 0x1E0B7, offset: 0x524C9, size: 0x8, addend: 0x0, symName: __ZNSt3__16vectorINS_12basic_stringIcNS_11char_traitsIcEENS_9allocatorIcEEEENS4_IS6_EEE11__make_iterB8ue170006EPS6_, symObjAddr: 0xC6A8, symBinAddr: 0x1000197A8, symSize: 0x30 }
  - { offsetInCU: 0x1E0EA, offset: 0x524FC, size: 0x8, addend: 0x0, symName: __ZNSt3__111__wrap_iterIPNS_12basic_stringIcNS_11char_traitsIcEENS_9allocatorIcEEEEEC1B8ue170006ES7_, symObjAddr: 0xC6D8, symBinAddr: 0x1000197D8, symSize: 0x34 }
  - { offsetInCU: 0x1E120, offset: 0x52532, size: 0x8, addend: 0x0, symName: __ZNSt3__111__wrap_iterIPNS_12basic_stringIcNS_11char_traitsIcEENS_9allocatorIcEEEEEC2B8ue170006ES7_, symObjAddr: 0xC70C, symBinAddr: 0x10001980C, symSize: 0x20 }
  - { offsetInCU: 0x1E156, offset: 0x52568, size: 0x8, addend: 0x0, symName: __ZNSt3__118__unwrap_iter_implINS_11__wrap_iterIPNS_12basic_stringIcNS_11char_traitsIcEENS_9allocatorIcEEEEEELb1EE8__rewrapB8ue170006ES9_S8_, symObjAddr: 0xC820, symBinAddr: 0x100019920, symSize: 0x5C }
  - { offsetInCU: 0x1E186, offset: 0x52598, size: 0x8, addend: 0x0, symName: __ZNKSt3__111__wrap_iterIPNS_12basic_stringIcNS_11char_traitsIcEENS_9allocatorIcEEEEEplB8ue170006El, symObjAddr: 0xC87C, symBinAddr: 0x10001997C, symSize: 0x3C }
  - { offsetInCU: 0x1E1C6, offset: 0x525D8, size: 0x8, addend: 0x0, symName: __ZNSt3__111__wrap_iterIPNS_12basic_stringIcNS_11char_traitsIcEENS_9allocatorIcEEEEEpLB8ue170006El, symObjAddr: 0xC8DC, symBinAddr: 0x1000199DC, symSize: 0x30 }
  - { offsetInCU: 0x1E202, offset: 0x52614, size: 0x8, addend: 0x0, symName: __ZNSt3__119__to_address_helperINS_11__wrap_iterIPNS_12basic_stringIcNS_11char_traitsIcEENS_9allocatorIcEEEEEEvE6__callB8ue170006ERKS9_, symObjAddr: 0xC90C, symBinAddr: 0x100019A0C, symSize: 0x30 }
  - { offsetInCU: 0x1E224, offset: 0x52636, size: 0x8, addend: 0x0, symName: __ZNSt3__114pointer_traitsINS_11__wrap_iterIPNS_12basic_stringIcNS_11char_traitsIcEENS_9allocatorIcEEEEEEE10to_addressB8ue170006ES9_, symObjAddr: 0xC93C, symBinAddr: 0x100019A3C, symSize: 0x2C }
  - { offsetInCU: 0x1E246, offset: 0x52658, size: 0x8, addend: 0x0, symName: __ZNSt3__111char_traitsIcE7compareB8ue170006EPKcS3_m, symObjAddr: 0xCB90, symBinAddr: 0x100019BDC, symSize: 0x34 }
  - { offsetInCU: 0x1E28E, offset: 0x526A0, size: 0x8, addend: 0x0, symName: __ZNKSt3__110__identityclB8ue170006IRNS_12basic_stringIcNS_11char_traitsIcEENS_9allocatorIcEEEEEEOT_SA_, symObjAddr: 0xCD24, symBinAddr: 0x100019C10, symSize: 0x18 }
  - { offsetInCU: 0x1E2C9, offset: 0x526DB, size: 0x8, addend: 0x0, symName: __ZNSt3__118__unwrap_iter_implINS_11__wrap_iterIPNS_12basic_stringIcNS_11char_traitsIcEENS_9allocatorIcEEEEEELb1EE8__unwrapB8ue170006ES9_, symObjAddr: 0xCD3C, symBinAddr: 0x100019C28, symSize: 0x28 }
  - { offsetInCU: 0x1E2EB, offset: 0x526FD, size: 0x8, addend: 0x0, symName: __ZNKSt3__110__function12__value_funcIFNS_10unique_ptrIN3icp3ICPENS_14default_deleteIS4_EEEEmdEEclB8ue170006EOmOd, symObjAddr: 0xCD64, symBinAddr: 0x100019C50, symSize: 0x6C }
  - { offsetInCU: 0x1E332, offset: 0x52744, size: 0x8, addend: 0x0, symName: __ZNSt3__117bad_function_callC1Ev, symObjAddr: 0xCE08, symBinAddr: 0x100019CF4, symSize: 0x2C }
  - { offsetInCU: 0x1E35C, offset: 0x5276E, size: 0x8, addend: 0x0, symName: __ZNSt3__117bad_function_callD1Ev, symObjAddr: 0xCE34, symBinAddr: 0x100019D20, symSize: 0x2C }
  - { offsetInCU: 0x1E384, offset: 0x52796, size: 0x8, addend: 0x0, symName: __ZNSt3__117bad_function_callC2Ev, symObjAddr: 0xCE60, symBinAddr: 0x100019D4C, symSize: 0x44 }
  - { offsetInCU: 0x1E3AE, offset: 0x527C0, size: 0x8, addend: 0x0, symName: __ZNSt9exceptionC2B8ue170006Ev, symObjAddr: 0xCEA4, symBinAddr: 0x100019D90, symSize: 0x24 }
  - { offsetInCU: 0x1E3D6, offset: 0x527E8, size: 0x8, addend: 0x0, symName: __ZNSt3__117bad_function_callD0Ev, symObjAddr: 0xCEC8, symBinAddr: 0x100019DB4, symSize: 0x30 }
  - { offsetInCU: 0x1E3FE, offset: 0x52810, size: 0x8, addend: 0x0, symName: __ZNSt3__117bad_function_callD2Ev, symObjAddr: 0xCEF8, symBinAddr: 0x100019DE4, symSize: 0x2C }
  - { offsetInCU: 0x44, offset: 0x52B37, size: 0x8, addend: 0x0, symName: __ZN5EigenL4lastE, symObjAddr: 0x1E944A, symBinAddr: 0x10003C160, symSize: 0x0 }
  - { offsetInCU: 0x855A, offset: 0x5B04D, size: 0x8, addend: 0x0, symName: __ZN5Eigen8internal15call_assignmentINS_6MatrixIdLi2ELi1ELi0ELi2ELi1EEENS_13CwiseBinaryOpINS0_20scalar_difference_opIddEEKS3_KNS_7ProductINS2_IdLi2ELi2ELi0ELi2ELi2EEES3_Li0EEEEEEEvRT_RKT0_, symObjAddr: 0x44D8, symBinAddr: 0x10001C934, symSize: 0x50 }
  - { offsetInCU: 0x85A5, offset: 0x5B098, size: 0x8, addend: 0x0, symName: __ZN5Eigen8internal15call_assignmentINS_6MatrixIdLi2ELi1ELi0ELi2ELi1EEENS_13CwiseBinaryOpINS0_20scalar_difference_opIddEEKS3_KNS_7ProductINS2_IdLi2ELi2ELi0ELi2ELi2EEES3_Li0EEEEENS0_9assign_opIddEEEEvRT_RKT0_RKT1_NS0_9enable_ifIXsr25evaluator_assume_aliasingISH_EE5valueEPvE4typeE, symObjAddr: 0x453C, symBinAddr: 0x10001C998, symSize: 0x48 }
  - { offsetInCU: 0x8622, offset: 0x5B115, size: 0x8, addend: 0x0, symName: __ZN5Eigen8internal24call_assignment_no_aliasINS_6MatrixIdLi2ELi1ELi0ELi2ELi1EEENS_13CwiseBinaryOpINS0_20scalar_difference_opIddEEKS3_KNS_7ProductINS2_IdLi2ELi2ELi0ELi2ELi2EEES3_Li0EEEEENS0_9assign_opIddEEEEvRT_RKT0_RKT1_, symObjAddr: 0x486C, symBinAddr: 0x10001CAE0, symSize: 0x3C }
  - { offsetInCU: 0x8704, offset: 0x5B1F7, size: 0x8, addend: 0x0, symName: __ZN5Eigen8internal24call_assignment_no_aliasINS_6MatrixIdLi2ELi1ELi0ELi2ELi1EEENS_7ProductINS2_IdLi2ELi2ELi0ELi2ELi2EEES3_Li0EEENS0_13sub_assign_opIddEEEEvRT_RKT0_RKT1_, symObjAddr: 0x4944, symBinAddr: 0x10001CBB8, symSize: 0x3C }
  - { offsetInCU: 0x8839, offset: 0x5B32C, size: 0x8, addend: 0x0, symName: __ZN5Eigen8internal24call_assignment_no_aliasINS_6MatrixIdLi2ELi1ELi0ELi2ELi1EEENS_7ProductINS2_IdLi2ELi2ELi0ELi2ELi2EEES3_Li1EEENS0_13sub_assign_opIddEEEEvRT_RKT0_RKT1_, symObjAddr: 0x4B38, symBinAddr: 0x10001CD80, symSize: 0x3C }
  - { offsetInCU: 0x8907, offset: 0x5B3FA, size: 0x8, addend: 0x0, symName: __ZN5Eigen8internal18check_for_aliasingINS_6MatrixIdLi2ELi1ELi0ELi2ELi1EEENS_7ProductINS2_IdLi2ELi2ELi0ELi2ELi2EEES3_Li1EEEEEvRKT_RKT0_, symObjAddr: 0x4C00, symBinAddr: 0x10001CE48, symSize: 0x14 }
  - { offsetInCU: 0x8953, offset: 0x5B446, size: 0x8, addend: 0x0, symName: __ZN5Eigen8internal26call_dense_assignment_loopINS_6MatrixIdLi2ELi1ELi0ELi2ELi1EEENS_7ProductINS2_IdLi2ELi2ELi0ELi2ELi2EEES3_Li1EEENS0_13sub_assign_opIddEEEEvRT_RKT0_RKT1_, symObjAddr: 0x4C14, symBinAddr: 0x10001CE5C, symSize: 0xE0 }
  - { offsetInCU: 0x8A07, offset: 0x5B4FA, size: 0x8, addend: 0x0, symName: __ZN5Eigen8internal17resize_if_allowedINS_6MatrixIdLi2ELi1ELi0ELi2ELi1EEENS_7ProductINS2_IdLi2ELi2ELi0ELi2ELi2EEES3_Li1EEENS0_13sub_assign_opIddEEEEvRT_RKT0_RKT1_, symObjAddr: 0x4D28, symBinAddr: 0x10001CF70, symSize: 0xB4 }
  - { offsetInCU: 0x8C32, offset: 0x5B725, size: 0x8, addend: 0x0, symName: __ZN5Eigen8internal5pmaddI19__simd128_float64_tEET_RKS3_S5_S5_, symObjAddr: 0x57C0, symBinAddr: 0x10001D594, symSize: 0x54 }
  - { offsetInCU: 0x8C87, offset: 0x5B77A, size: 0x8, addend: 0x0, symName: __ZN5Eigen8internal5pset1I19__simd128_float64_tEET_RKNS0_15unpacket_traitsIS3_E4typeE, symObjAddr: 0x5874, symBinAddr: 0x10001D5E8, symSize: 0x44 }
  - { offsetInCU: 0x8CBE, offset: 0x5B7B1, size: 0x8, addend: 0x0, symName: __ZN5Eigen8internal4pmulI19__simd128_float64_tEET_RKS3_S5_, symObjAddr: 0x5914, symBinAddr: 0x10001D688, symSize: 0x40 }
  - { offsetInCU: 0x8D04, offset: 0x5B7F7, size: 0x8, addend: 0x0, symName: __ZN5Eigen8internal15call_assignmentINS_6MatrixIdLi2ELi2ELi0ELi2ELi2EEENS_7ProductINS2_IdLi2ELi1ELi0ELi2ELi1EEENS_9TransposeIS5_EELi0EEENS0_13add_assign_opIddEEEEvRT_RKT0_RKT1_NS0_9enable_ifIXsr25evaluator_assume_aliasingISD_EE5valueEPvE4typeE, symObjAddr: 0x65CC, symBinAddr: 0x10001DB78, symSize: 0x48 }
  - { offsetInCU: 0x8D81, offset: 0x5B874, size: 0x8, addend: 0x0, symName: __ZN5Eigen8internal24call_assignment_no_aliasINS_6MatrixIdLi2ELi2ELi0ELi2ELi2EEES3_NS0_13add_assign_opIddEEEEvRT_RKT0_RKT1_, symObjAddr: 0x669C, symBinAddr: 0x10001DC34, symSize: 0x3C }
  - { offsetInCU: 0x8DFF, offset: 0x5B8F2, size: 0x8, addend: 0x0, symName: __ZN5Eigen8internal24call_assignment_no_aliasINS_6MatrixIdLi2ELi2ELi0ELi2ELi2EEENS_7ProductINS2_IdLi2ELi1ELi0ELi2ELi1EEENS_9TransposeIS5_EELi0EEENS0_9assign_opIddEEEEvRT_RKT0_RKT1_, symObjAddr: 0x67A4, symBinAddr: 0x10001DD3C, symSize: 0x3C }
  - { offsetInCU: 0x8F34, offset: 0x5BA27, size: 0x8, addend: 0x0, symName: __ZN5Eigen8internal24call_assignment_no_aliasINS_6MatrixIdLi2ELi2ELi0ELi2ELi2EEENS_7ProductINS2_IdLi2ELi1ELi0ELi2ELi1EEENS_9TransposeIS5_EELi1EEENS0_9assign_opIddEEEEvRT_RKT0_RKT1_, symObjAddr: 0x6AC0, symBinAddr: 0x10001DF38, symSize: 0x3C }
  - { offsetInCU: 0x9002, offset: 0x5BAF5, size: 0x8, addend: 0x0, symName: __ZN5Eigen8internal18check_for_aliasingINS_6MatrixIdLi2ELi2ELi0ELi2ELi2EEENS_7ProductINS2_IdLi2ELi1ELi0ELi2ELi1EEENS_9TransposeIS5_EELi1EEEEEvRKT_RKT0_, symObjAddr: 0x6B88, symBinAddr: 0x10001E000, symSize: 0x60 }
  - { offsetInCU: 0x904D, offset: 0x5BB40, size: 0x8, addend: 0x0, symName: __ZN5Eigen8internal26call_dense_assignment_loopINS_6MatrixIdLi2ELi2ELi0ELi2ELi2EEENS_7ProductINS2_IdLi2ELi1ELi0ELi2ELi1EEENS_9TransposeIS5_EELi1EEENS0_9assign_opIddEEEEvRT_RKT0_RKT1_, symObjAddr: 0x6BE8, symBinAddr: 0x10001E060, symSize: 0xE0 }
  - { offsetInCU: 0x913F, offset: 0x5BC32, size: 0x8, addend: 0x0, symName: __ZN5Eigen8internal17resize_if_allowedINS_6MatrixIdLi2ELi2ELi0ELi2ELi2EEENS_7ProductINS2_IdLi2ELi1ELi0ELi2ELi1EEENS_9TransposeIS5_EELi1EEEddEEvRT_RKT0_RKNS0_9assign_opIT1_T2_EE, symObjAddr: 0x6D10, symBinAddr: 0x10001E188, symSize: 0xF8 }
  - { offsetInCU: 0x92FA, offset: 0x5BDED, size: 0x8, addend: 0x0, symName: __ZN5Eigen8internal26call_dense_assignment_loopINS_6MatrixIdLi2ELi2ELi0ELi2ELi2EEES3_NS0_13add_assign_opIddEEEEvRT_RKT0_RKT1_, symObjAddr: 0x7808, symBinAddr: 0x10001EBB0, symSize: 0xD8 }
  - { offsetInCU: 0x93AE, offset: 0x5BEA1, size: 0x8, addend: 0x0, symName: __ZN5Eigen8internal17resize_if_allowedINS_6MatrixIdLi2ELi2ELi0ELi2ELi2EEES3_NS0_13add_assign_opIddEEEEvRT_RKT0_RKT1_, symObjAddr: 0x78F4, symBinAddr: 0x10001EC88, symSize: 0xB4 }
  - { offsetInCU: 0x9449, offset: 0x5BF3C, size: 0x8, addend: 0x0, symName: __ZN5Eigen8internal4paddI19__simd128_float64_tEET_RKS3_S5_, symObjAddr: 0x7C30, symBinAddr: 0x10001EFC4, symSize: 0x40 }
  - { offsetInCU: 0x9533, offset: 0x5C026, size: 0x8, addend: 0x0, symName: __ZN5Eigen8internal19real_2x2_jacobi_svdINS_6MatrixIdLi2ELi2ELi0ELi2ELi2EEEdlEEvRKT_T1_S7_PNS_14JacobiRotationIT0_EESB_, symObjAddr: 0x8F68, symBinAddr: 0x1000202A0, symSize: 0x2F4 }
  - { offsetInCU: 0x96DF, offset: 0x5C1D2, size: 0x8, addend: 0x0, symName: __ZN5Eigen8internal10predux_maxILi1E19__simd128_float64_tEENS0_15unpacket_traitsIT0_E4typeERKS4_, symObjAddr: 0xA024, symBinAddr: 0x10002135C, symSize: 0x2C }
  - { offsetInCU: 0x9720, offset: 0x5C213, size: 0x8, addend: 0x0, symName: __ZN5Eigen8internal13predux_helperI19__simd128_float64_tPFdRKdS4_EEENS0_15unpacket_traitsIT_E4typeERKS8_T0_, symObjAddr: 0xA050, symBinAddr: 0x100021388, symSize: 0x118 }
  - { offsetInCU: 0x97D5, offset: 0x5C2C8, size: 0x8, addend: 0x0, symName: __ZN5Eigen8internal4pmaxILi1EdEET0_RKS2_S4_, symObjAddr: 0xA168, symBinAddr: 0x1000214A0, symSize: 0x34 }
  - { offsetInCU: 0x9825, offset: 0x5C318, size: 0x8, addend: 0x0, symName: __ZN5Eigen8internal7pstoreuId19__simd128_float64_tEEvPT_RKT0_, symObjAddr: 0xA19C, symBinAddr: 0x1000214D4, symSize: 0x2C }
  - { offsetInCU: 0x98D5, offset: 0x5C3C8, size: 0x8, addend: 0x0, symName: __ZN5Eigen8internal4pmaxIdEET_RKS2_S4_, symObjAddr: 0xA254, symBinAddr: 0x10002158C, symSize: 0x40 }
  - { offsetInCU: 0x9944, offset: 0x5C437, size: 0x8, addend: 0x0, symName: __ZN5Eigen8internal7pcmp_eqIdEET_RKS2_S4_, symObjAddr: 0xA294, symBinAddr: 0x1000215CC, symSize: 0x64 }
  - { offsetInCU: 0x998A, offset: 0x5C47D, size: 0x8, addend: 0x0, symName: __ZN5Eigen8internal7pselectIdEET_RKS2_S4_S4_, symObjAddr: 0xA2F8, symBinAddr: 0x100021630, symSize: 0x34 }
  - { offsetInCU: 0x99DF, offset: 0x5C4D2, size: 0x8, addend: 0x0, symName: __ZN5Eigen8internal5ptrueIdEET_RKS2_, symObjAddr: 0xA32C, symBinAddr: 0x100021664, symSize: 0x24 }
  - { offsetInCU: 0x9A16, offset: 0x5C509, size: 0x8, addend: 0x0, symName: __ZN5Eigen8internal5pzeroIdEET_RKS2_, symObjAddr: 0xA350, symBinAddr: 0x100021688, symSize: 0x24 }
  - { offsetInCU: 0x9AE2, offset: 0x5C5D5, size: 0x8, addend: 0x0, symName: __ZN5Eigen8internal4pmaxILi1E19__simd128_float64_tEET0_RKS3_S5_, symObjAddr: 0xA500, symBinAddr: 0x100021838, symSize: 0x2C }
  - { offsetInCU: 0x9B32, offset: 0x5C625, size: 0x8, addend: 0x0, symName: __ZN5Eigen8internal4pmaxI19__simd128_float64_tEET_RKS3_S5_, symObjAddr: 0xA52C, symBinAddr: 0x100021864, symSize: 0x40 }
  - { offsetInCU: 0x9B78, offset: 0x5C66B, size: 0x8, addend: 0x0, symName: __ZN5Eigen8internal4pabsI19__simd128_float64_tEET_RKS3_, symObjAddr: 0xA634, symBinAddr: 0x10002196C, symSize: 0x2C }
  - { offsetInCU: 0x9BAF, offset: 0x5C6A2, size: 0x8, addend: 0x0, symName: __ZN5Eigen8internal13isfinite_implIdEENS0_9enable_ifIXaantsr8internal11is_integralIT_EE5valuentsr9NumTraitsIS3_EE9IsComplexEbE4typeERKS3_, symObjAddr: 0xA7B4, symBinAddr: 0x100021AEC, symSize: 0x2C }
  - { offsetInCU: 0x9BE6, offset: 0x5C6D9, size: 0x8, addend: 0x0, symName: __ZN5Eigen8internal15call_assignmentINS_6MatrixIdLi2ELi2ELi0ELi2ELi2EEENS_13CwiseBinaryOpINS0_18scalar_quotient_opIddEEKS3_KNS_14CwiseNullaryOpINS0_18scalar_constant_opIdEES7_EEEEEEvRT_RKT0_, symObjAddr: 0xAE2C, symBinAddr: 0x1000220C4, symSize: 0x50 }
  - { offsetInCU: 0x9C31, offset: 0x5C724, size: 0x8, addend: 0x0, symName: __ZN5Eigen8internal15call_assignmentINS_6MatrixIdLi2ELi2ELi0ELi2ELi2EEENS_13CwiseBinaryOpINS0_18scalar_quotient_opIddEEKS3_KNS_14CwiseNullaryOpINS0_18scalar_constant_opIdEES7_EEEENS0_9assign_opIddEEEEvRT_RKT0_RKT1_NS0_9enable_ifIXntsr25evaluator_assume_aliasingISI_EE5valueEPvE4typeE, symObjAddr: 0xAE90, symBinAddr: 0x100022128, symSize: 0x38 }
  - { offsetInCU: 0x9C9F, offset: 0x5C792, size: 0x8, addend: 0x0, symName: __ZN5Eigen8internal24call_assignment_no_aliasINS_6MatrixIdLi2ELi2ELi0ELi2ELi2EEENS_13CwiseBinaryOpINS0_18scalar_quotient_opIddEEKS3_KNS_14CwiseNullaryOpINS0_18scalar_constant_opIdEES7_EEEENS0_9assign_opIddEEEEvRT_RKT0_RKT1_, symObjAddr: 0xAEC8, symBinAddr: 0x100022160, symSize: 0x3C }
  - { offsetInCU: 0x9D6D, offset: 0x5C860, size: 0x8, addend: 0x0, symName: __ZN5Eigen8internal18check_for_aliasingINS_6MatrixIdLi2ELi2ELi0ELi2ELi2EEENS_13CwiseBinaryOpINS0_18scalar_quotient_opIddEEKS3_KNS_14CwiseNullaryOpINS0_18scalar_constant_opIdEES7_EEEEEEvRKT_RKT0_, symObjAddr: 0xAF44, symBinAddr: 0x1000221DC, symSize: 0x60 }
  - { offsetInCU: 0x9DB8, offset: 0x5C8AB, size: 0x8, addend: 0x0, symName: __ZN5Eigen8internal26call_dense_assignment_loopINS_6MatrixIdLi2ELi2ELi0ELi2ELi2EEENS_13CwiseBinaryOpINS0_18scalar_quotient_opIddEEKS3_KNS_14CwiseNullaryOpINS0_18scalar_constant_opIdEES7_EEEENS0_9assign_opIddEEEEvRT_RKT0_RKT1_, symObjAddr: 0xAFA4, symBinAddr: 0x10002223C, symSize: 0xD8 }
  - { offsetInCU: 0x9EAA, offset: 0x5C99D, size: 0x8, addend: 0x0, symName: __ZN5Eigen8internal17resize_if_allowedINS_6MatrixIdLi2ELi2ELi0ELi2ELi2EEENS_13CwiseBinaryOpINS0_18scalar_quotient_opIddEEKS3_KNS_14CwiseNullaryOpINS0_18scalar_constant_opIdEES7_EEEEddEEvRT_RKT0_RKNS0_9assign_opIT1_T2_EE, symObjAddr: 0xB0C4, symBinAddr: 0x10002235C, symSize: 0xF8 }
  - { offsetInCU: 0x9F6C, offset: 0x5CA5F, size: 0x8, addend: 0x0, symName: __ZN5Eigen8internal4pdivI19__simd128_float64_tEET_RKS3_S5_, symObjAddr: 0xB850, symBinAddr: 0x100022AE8, symSize: 0x40 }
  - { offsetInCU: 0x9FEC, offset: 0x5CADF, size: 0x8, addend: 0x0, symName: __ZN5Eigen8internal17get_runtime_valueIlEElRKT_, symObjAddr: 0xBA40, symBinAddr: 0x100022CD8, symSize: 0x18 }
  - { offsetInCU: 0xA021, offset: 0x5CB14, size: 0x8, addend: 0x0, symName: __ZN5Eigen8internal15call_assignmentINS_6MatrixIdLi2ELi2ELi0ELi2ELi2EEENS_13CwiseBinaryOpINS0_18scalar_quotient_opIddEEKNS_5BlockIKS3_Lin1ELin1ELb0EEEKNS_14CwiseNullaryOpINS0_18scalar_constant_opIdEEKNS2_IdLin1ELin1ELi0ELi2ELi2EEEEEEEEEvRT_RKT0_, symObjAddr: 0xC3C4, symBinAddr: 0x10002365C, symSize: 0x50 }
  - { offsetInCU: 0xA06C, offset: 0x5CB5F, size: 0x8, addend: 0x0, symName: __ZN5Eigen8internal15call_assignmentINS_6MatrixIdLi2ELi2ELi0ELi2ELi2EEENS_13CwiseBinaryOpINS0_18scalar_quotient_opIddEEKNS_5BlockIKS3_Lin1ELin1ELb0EEEKNS_14CwiseNullaryOpINS0_18scalar_constant_opIdEEKNS2_IdLin1ELin1ELi0ELi2ELi2EEEEEEENS0_9assign_opIddEEEEvRT_RKT0_RKT1_NS0_9enable_ifIXntsr25evaluator_assume_aliasingISN_EE5valueEPvE4typeE, symObjAddr: 0xC428, symBinAddr: 0x1000236C0, symSize: 0x38 }
  - { offsetInCU: 0xA0DA, offset: 0x5CBCD, size: 0x8, addend: 0x0, symName: __ZN5Eigen8internal24call_assignment_no_aliasINS_6MatrixIdLi2ELi2ELi0ELi2ELi2EEENS_13CwiseBinaryOpINS0_18scalar_quotient_opIddEEKNS_5BlockIKS3_Lin1ELin1ELb0EEEKNS_14CwiseNullaryOpINS0_18scalar_constant_opIdEEKNS2_IdLin1ELin1ELi0ELi2ELi2EEEEEEENS0_9assign_opIddEEEEvRT_RKT0_RKT1_, symObjAddr: 0xC460, symBinAddr: 0x1000236F8, symSize: 0x3C }
  - { offsetInCU: 0xA1A8, offset: 0x5CC9B, size: 0x8, addend: 0x0, symName: __ZN5Eigen8internal18check_for_aliasingINS_6MatrixIdLi2ELi2ELi0ELi2ELi2EEENS_13CwiseBinaryOpINS0_18scalar_quotient_opIddEEKNS_5BlockIKS3_Lin1ELin1ELb0EEEKNS_14CwiseNullaryOpINS0_18scalar_constant_opIdEEKNS2_IdLin1ELin1ELi0ELi2ELi2EEEEEEEEEvRKT_RKT0_, symObjAddr: 0xC4DC, symBinAddr: 0x100023774, symSize: 0x60 }
  - { offsetInCU: 0xA1F3, offset: 0x5CCE6, size: 0x8, addend: 0x0, symName: __ZN5Eigen8internal26call_dense_assignment_loopINS_6MatrixIdLi2ELi2ELi0ELi2ELi2EEENS_13CwiseBinaryOpINS0_18scalar_quotient_opIddEEKNS_5BlockIKS3_Lin1ELin1ELb0EEEKNS_14CwiseNullaryOpINS0_18scalar_constant_opIdEEKNS2_IdLin1ELin1ELi0ELi2ELi2EEEEEEENS0_9assign_opIddEEEEvRT_RKT0_RKT1_, symObjAddr: 0xC53C, symBinAddr: 0x1000237D4, symSize: 0xD8 }
  - { offsetInCU: 0xA2E6, offset: 0x5CDD9, size: 0x8, addend: 0x0, symName: __ZN5Eigen8internal17resize_if_allowedINS_6MatrixIdLi2ELi2ELi0ELi2ELi2EEENS_13CwiseBinaryOpINS0_18scalar_quotient_opIddEEKNS_5BlockIKS3_Lin1ELin1ELb0EEEKNS_14CwiseNullaryOpINS0_18scalar_constant_opIdEEKNS2_IdLin1ELin1ELi0ELi2ELi2EEEEEEEddEEvRT_RKT0_RKNS0_9assign_opIT1_T2_EE, symObjAddr: 0xC65C, symBinAddr: 0x1000238F4, symSize: 0xF8 }
  - { offsetInCU: 0xA3DB, offset: 0x5CECE, size: 0x8, addend: 0x0, symName: __ZN5Eigen8internal6ploaduI19__simd128_float64_tEET_PKNS0_15unpacket_traitsIS3_E4typeE, symObjAddr: 0xD2C8, symBinAddr: 0x100024560, symSize: 0x28 }
  - { offsetInCU: 0xA55D, offset: 0x5D050, size: 0x8, addend: 0x0, symName: __ZN5Eigen8internal4pmaxILi0EdEET0_RKS2_S4_, symObjAddr: 0xE938, symBinAddr: 0x1000250B0, symSize: 0x34 }
  - { offsetInCU: 0xA69C, offset: 0x5D18F, size: 0x8, addend: 0x0, symName: __ZN5Eigen8internal27apply_rotation_in_the_planeINS_5BlockINS_6MatrixIdLi2ELi2ELi0ELi2ELi2EEELi1ELi2ELb0EEES5_dEEvRNS_9DenseBaseIT_EERNS6_IT0_EERKNS_14JacobiRotationIT1_EE, symObjAddr: 0xF730, symBinAddr: 0x100025EA8, symSize: 0x13C }
  - { offsetInCU: 0xA7EE, offset: 0x5D2E1, size: 0x8, addend: 0x0, symName: __ZN5Eigen8internal27apply_rotation_in_the_planeINS_5BlockINS_6MatrixIdLi2ELi2ELi0ELi2ELi2EEELi2ELi1ELb1EEES5_dEEvRNS_9DenseBaseIT_EERNS6_IT0_EERKNS_14JacobiRotationIT1_EE, symObjAddr: 0xFF74, symBinAddr: 0x1000266EC, symSize: 0x13C }
  - { offsetInCU: 0xA97D, offset: 0x5D470, size: 0x8, addend: 0x0, symName: __ZN5Eigen8internal15call_assignmentINS_5BlockINS_6MatrixIdLi2ELi2ELi0ELi2ELi2EEELi2ELi1ELb1EEENS_12CwiseUnaryOpINS0_18scalar_opposite_opIdEEKS5_EEEEvRT_RKT0_, symObjAddr: 0x109D8, symBinAddr: 0x10002713C, symSize: 0x50 }
  - { offsetInCU: 0xA9C8, offset: 0x5D4BB, size: 0x8, addend: 0x0, symName: __ZN5Eigen8internal15call_assignmentINS_5BlockINS_6MatrixIdLi2ELi2ELi0ELi2ELi2EEELi2ELi1ELb1EEENS_12CwiseUnaryOpINS0_18scalar_opposite_opIdEEKS5_EENS0_9assign_opIddEEEEvRT_RKT0_RKT1_NS0_9enable_ifIXntsr25evaluator_assume_aliasingISF_EE5valueEPvE4typeE, symObjAddr: 0x10A28, symBinAddr: 0x10002718C, symSize: 0x38 }
  - { offsetInCU: 0xAA36, offset: 0x5D529, size: 0x8, addend: 0x0, symName: __ZN5Eigen8internal24call_assignment_no_aliasINS_5BlockINS_6MatrixIdLi2ELi2ELi0ELi2ELi2EEELi2ELi1ELb1EEENS_12CwiseUnaryOpINS0_18scalar_opposite_opIdEEKS5_EENS0_9assign_opIddEEEEvRT_RKT0_RKT1_, symObjAddr: 0x10A60, symBinAddr: 0x1000271C4, symSize: 0x3C }
  - { offsetInCU: 0xAB04, offset: 0x5D5F7, size: 0x8, addend: 0x0, symName: __ZN5Eigen8internal18check_for_aliasingINS_5BlockINS_6MatrixIdLi2ELi2ELi0ELi2ELi2EEELi2ELi1ELb1EEENS_12CwiseUnaryOpINS0_18scalar_opposite_opIdEEKS5_EEEEvRKT_RKT0_, symObjAddr: 0x10ADC, symBinAddr: 0x100027240, symSize: 0x14 }
  - { offsetInCU: 0xAB50, offset: 0x5D643, size: 0x8, addend: 0x0, symName: __ZN5Eigen8internal26call_dense_assignment_loopINS_5BlockINS_6MatrixIdLi2ELi2ELi0ELi2ELi2EEELi2ELi1ELb1EEENS_12CwiseUnaryOpINS0_18scalar_opposite_opIdEEKS5_EENS0_9assign_opIddEEEEvRT_RKT0_RKT1_, symObjAddr: 0x10AF0, symBinAddr: 0x100027254, symSize: 0xE0 }
  - { offsetInCU: 0xAC04, offset: 0x5D6F7, size: 0x8, addend: 0x0, symName: __ZN5Eigen8internal17resize_if_allowedINS_5BlockINS_6MatrixIdLi2ELi2ELi0ELi2ELi2EEELi2ELi1ELb1EEENS_12CwiseUnaryOpINS0_18scalar_opposite_opIdEEKS5_EEddEEvRT_RKT0_RKNS0_9assign_opIT1_T2_EE, symObjAddr: 0x10C04, symBinAddr: 0x100027368, symSize: 0xF8 }
  - { offsetInCU: 0xAD00, offset: 0x5D7F3, size: 0x8, addend: 0x0, symName: __ZN5Eigen8internal7pnegateI19__simd128_float64_tEET_RKS3_, symObjAddr: 0x116A8, symBinAddr: 0x100027E0C, symSize: 0x2C }
  - { offsetInCU: 0xAD37, offset: 0x5D82A, size: 0x8, addend: 0x0, symName: __ZN5Eigen8internal15call_assignmentINS_6MatrixIdLi2ELi1ELi0ELi2ELi1EEENS_14CwiseNullaryOpINS0_18scalar_constant_opIdEES3_EENS0_13mul_assign_opIddEEEEvRT_RKT0_RKT1_NS0_9enable_ifIXntsr25evaluator_assume_aliasingISC_EE5valueEPvE4typeE, symObjAddr: 0x11840, symBinAddr: 0x100027FA4, symSize: 0x38 }
  - { offsetInCU: 0xADA5, offset: 0x5D898, size: 0x8, addend: 0x0, symName: __ZN5Eigen8internal24call_assignment_no_aliasINS_6MatrixIdLi2ELi1ELi0ELi2ELi1EEENS_14CwiseNullaryOpINS0_18scalar_constant_opIdEES3_EENS0_13mul_assign_opIddEEEEvRT_RKT0_RKT1_, symObjAddr: 0x11904, symBinAddr: 0x100028068, symSize: 0x3C }
  - { offsetInCU: 0xAE73, offset: 0x5D966, size: 0x8, addend: 0x0, symName: __ZN5Eigen8internal18check_for_aliasingINS_6MatrixIdLi2ELi1ELi0ELi2ELi1EEENS_14CwiseNullaryOpINS0_18scalar_constant_opIdEES3_EEEEvRKT_RKT0_, symObjAddr: 0x11980, symBinAddr: 0x1000280E4, symSize: 0x14 }
  - { offsetInCU: 0xAEBF, offset: 0x5D9B2, size: 0x8, addend: 0x0, symName: __ZN5Eigen8internal26call_dense_assignment_loopINS_6MatrixIdLi2ELi1ELi0ELi2ELi1EEENS_14CwiseNullaryOpINS0_18scalar_constant_opIdEES3_EENS0_13mul_assign_opIddEEEEvRT_RKT0_RKT1_, symObjAddr: 0x11994, symBinAddr: 0x1000280F8, symSize: 0xD8 }
  - { offsetInCU: 0xAF73, offset: 0x5DA66, size: 0x8, addend: 0x0, symName: __ZN5Eigen8internal17resize_if_allowedINS_6MatrixIdLi2ELi1ELi0ELi2ELi1EEENS_14CwiseNullaryOpINS0_18scalar_constant_opIdEES3_EENS0_13mul_assign_opIddEEEEvRT_RKT0_RKT1_, symObjAddr: 0x11AA0, symBinAddr: 0x100028204, symSize: 0xB4 }
  - { offsetInCU: 0xB2BA, offset: 0x5DDAD, size: 0x8, addend: 0x0, symName: __ZN5Eigen8internal15call_assignmentINS_5BlockINS_6MatrixIdLi2ELi2ELi0ELi2ELi2EEELi2ELi1ELb1EEES5_NS0_14swap_assign_opIdEEEEvRT_RKT0_RKT1_NS0_9enable_ifIXntsr25evaluator_assume_aliasingISA_EE5valueEPvE4typeE, symObjAddr: 0x1319C, symBinAddr: 0x100029900, symSize: 0x38 }
  - { offsetInCU: 0xB328, offset: 0x5DE1B, size: 0x8, addend: 0x0, symName: __ZN5Eigen8internal24call_assignment_no_aliasINS_5BlockINS_6MatrixIdLi2ELi2ELi0ELi2ELi2EEELi2ELi1ELb1EEES5_NS0_14swap_assign_opIdEEEEvRT_RKT0_RKT1_, symObjAddr: 0x13200, symBinAddr: 0x100029964, symSize: 0x3C }
  - { offsetInCU: 0xB3F6, offset: 0x5DEE9, size: 0x8, addend: 0x0, symName: __ZN5Eigen8internal18check_for_aliasingINS_5BlockINS_6MatrixIdLi2ELi2ELi0ELi2ELi2EEELi2ELi1ELb1EEES5_EEvRKT_RKT0_, symObjAddr: 0x1327C, symBinAddr: 0x1000299E0, symSize: 0x14 }
  - { offsetInCU: 0xB442, offset: 0x5DF35, size: 0x8, addend: 0x0, symName: __ZN5Eigen8internal26call_dense_assignment_loopINS_5BlockINS_6MatrixIdLi2ELi2ELi0ELi2ELi2EEELi2ELi1ELb1EEES5_NS0_14swap_assign_opIdEEEEvRT_RKT0_RKT1_, symObjAddr: 0x13290, symBinAddr: 0x1000299F4, symSize: 0xD8 }
  - { offsetInCU: 0xB4F6, offset: 0x5DFE9, size: 0x8, addend: 0x0, symName: __ZN5Eigen8internal17resize_if_allowedINS_5BlockINS_6MatrixIdLi2ELi2ELi0ELi2ELi2EEELi2ELi1ELb1EEES5_NS0_14swap_assign_opIdEEEEvRT_RKT0_RKT1_, symObjAddr: 0x13368, symBinAddr: 0x100029ACC, symSize: 0xB4 }
  - { offsetInCU: 0xB5CB, offset: 0x5E0BE, size: 0x8, addend: 0x0, symName: __ZN5Eigen8internal15call_assignmentINS_6MatrixIdLi2ELi2ELi0ELi2ELi2EEENS_7ProductIS3_NS_9TransposeIKS3_EELi0EEEEEvRT_RKT0_, symObjAddr: 0x13AE0, symBinAddr: 0x10002A244, symSize: 0x50 }
  - { offsetInCU: 0xB616, offset: 0x5E109, size: 0x8, addend: 0x0, symName: __ZN5Eigen8internal15call_assignmentINS_6MatrixIdLi2ELi2ELi0ELi2ELi2EEENS_7ProductIS3_NS_9TransposeIKS3_EELi0EEENS0_9assign_opIddEEEEvRT_RKT0_RKT1_NS0_9enable_ifIXsr25evaluator_assume_aliasingISD_EE5valueEPvE4typeE, symObjAddr: 0x13B44, symBinAddr: 0x10002A2A8, symSize: 0x48 }
  - { offsetInCU: 0xB693, offset: 0x5E186, size: 0x8, addend: 0x0, symName: __ZN5Eigen8internal24call_assignment_no_aliasINS_6MatrixIdLi2ELi2ELi0ELi2ELi2EEENS_7ProductIS3_NS_9TransposeIKS3_EELi0EEENS0_9assign_opIddEEEEvRT_RKT0_RKT1_, symObjAddr: 0x13CC8, symBinAddr: 0x10002A3F0, symSize: 0x3C }
  - { offsetInCU: 0xB7C9, offset: 0x5E2BC, size: 0x8, addend: 0x0, symName: __ZN5Eigen8internal24call_assignment_no_aliasINS_6MatrixIdLi2ELi2ELi0ELi2ELi2EEENS_7ProductIS3_NS_9TransposeIKS3_EELi1EEENS0_9assign_opIddEEEEvRT_RKT0_RKT1_, symObjAddr: 0x13EC4, symBinAddr: 0x10002A5EC, symSize: 0x3C }
  - { offsetInCU: 0xB897, offset: 0x5E38A, size: 0x8, addend: 0x0, symName: __ZN5Eigen8internal18check_for_aliasingINS_6MatrixIdLi2ELi2ELi0ELi2ELi2EEENS_7ProductIS3_NS_9TransposeIKS3_EELi1EEEEEvRKT_RKT0_, symObjAddr: 0x13F8C, symBinAddr: 0x10002A6B4, symSize: 0x60 }
  - { offsetInCU: 0xB8E2, offset: 0x5E3D5, size: 0x8, addend: 0x0, symName: __ZN5Eigen8internal26call_dense_assignment_loopINS_6MatrixIdLi2ELi2ELi0ELi2ELi2EEENS_7ProductIS3_NS_9TransposeIKS3_EELi1EEENS0_9assign_opIddEEEEvRT_RKT0_RKT1_, symObjAddr: 0x13FEC, symBinAddr: 0x10002A714, symSize: 0xD8 }
  - { offsetInCU: 0xB9D5, offset: 0x5E4C8, size: 0x8, addend: 0x0, symName: __ZN5Eigen8internal17resize_if_allowedINS_6MatrixIdLi2ELi2ELi0ELi2ELi2EEENS_7ProductIS3_NS_9TransposeIKS3_EELi1EEEddEEvRT_RKT0_RKNS0_9assign_opIT1_T2_EE, symObjAddr: 0x1410C, symBinAddr: 0x10002A834, symSize: 0xF8 }
  - { offsetInCU: 0xBD8B, offset: 0x5E87E, size: 0x8, addend: 0x0, symName: __ZN5EigenL6lastp1E, symObjAddr: 0x1E944B, symBinAddr: 0x10003C161, symSize: 0x0 }
  - { offsetInCU: 0xBDA5, offset: 0x5E898, size: 0x8, addend: 0x0, symName: __ZN5EigenL3allE, symObjAddr: 0x1E944E, symBinAddr: 0x10003C164, symSize: 0x0 }
  - { offsetInCU: 0xBDBF, offset: 0x5E8B2, size: 0x8, addend: 0x0, symName: __ZN5EigenL3fixILi1EEE, symObjAddr: 0x1E944D, symBinAddr: 0x10003C163, symSize: 0x0 }
  - { offsetInCU: 0x36EAE, offset: 0x899A1, size: 0x8, addend: 0x0, symName: __ZN5Eigen6numext8isfiniteIdEEbRKT_, symObjAddr: 0x8B54, symBinAddr: 0x10001FE8C, symSize: 0x28 }
  - { offsetInCU: 0x36EE5, offset: 0x899D8, size: 0x8, addend: 0x0, symName: __ZN5Eigen6numext4realIdEENS_8internal11real_retvalINS2_36global_math_functions_filtering_baseIT_vE4typeEE4typeERKS5_, symObjAddr: 0x93C4, symBinAddr: 0x1000206FC, symSize: 0x24 }
  - { offsetInCU: 0x36F1C, offset: 0x89A0F, size: 0x8, addend: 0x0, symName: __ZN5Eigen6numext12equal_strictIddEEbRKT_RKT0_, symObjAddr: 0xA408, symBinAddr: 0x100021740, symSize: 0x34 }
  - { offsetInCU: 0x36FD2, offset: 0x89AC5, size: 0x8, addend: 0x0, symName: __ZN5Eigen6numext4abs2IdEENS_8internal11abs2_retvalINS2_36global_math_functions_filtering_baseIT_vE4typeEE4typeERKS5_, symObjAddr: 0xEF54, symBinAddr: 0x1000256CC, symSize: 0x24 }
  - { offsetInCU: 0x37009, offset: 0x89AFC, size: 0x8, addend: 0x0, symName: __ZN5Eigen6numext4conjIdEENS_8internal11conj_retvalINS2_36global_math_functions_filtering_baseIT_vE4typeEE4typeERKS5_, symObjAddr: 0xF648, symBinAddr: 0x100025DC0, symSize: 0x24 }
  - { offsetInCU: 0x3B55C, offset: 0x8E04F, size: 0x8, addend: 0x0, symName: '__ZNSt3__110__function10__not_nullB8ue170006IZNK3icp3$_0clEvEUlmdE_EEbRKT_', symObjAddr: 0x5F8, symBinAddr: 0x10001A1B0, symSize: 0x18 }
  - { offsetInCU: 0x3E310, offset: 0x90E03, size: 0x8, addend: 0x0, symName: '__ZNSt3__116forward_as_tupleB8ue170006IJZNK3icp3$_0clEvEUlmdE_EEENS_5tupleIJDpOT_EEES7_', symObjAddr: 0xB88, symBinAddr: 0x10001A740, symSize: 0x2C }
  - { offsetInCU: 0x3E34A, offset: 0x90E3D, size: 0x8, addend: 0x0, symName: '__ZNSt3__116forward_as_tupleB8ue170006IJNS_9allocatorIZNK3icp3$_0clEvEUlmdE_EEEEENS_5tupleIJDpOT_EEES9_', symObjAddr: 0xBB4, symBinAddr: 0x10001A76C, symSize: 0x2C }
  - { offsetInCU: 0x3E3AE, offset: 0x90EA1, size: 0x8, addend: 0x0, symName: '__ZNSt3__13getB8ue170006ILm0EJOZNK3icp3$_0clEvEUlmdE_EEERNS_13tuple_elementIXT_ENS_5tupleIJDpT0_EEEE4typeERS9_', symObjAddr: 0xEC0, symBinAddr: 0x10001AA78, symSize: 0x24 }
  - { offsetInCU: 0x3E3F1, offset: 0x90EE4, size: 0x8, addend: 0x0, symName: '__ZNSt3__13getB8ue170006ILm0EJONS_9allocatorIZNK3icp3$_0clEvEUlmdE_EEEEERNS_13tuple_elementIXT_ENS_5tupleIJDpT0_EEEE4typeERSB_', symObjAddr: 0xEFC, symBinAddr: 0x10001AAB4, symSize: 0x24 }
  - { offsetInCU: 0x3E93D, offset: 0x91430, size: 0x8, addend: 0x0, symName: '__ZNSt3__116forward_as_tupleB8ue170006IJRKZNK3icp3$_0clEvEUlmdE_EEENS_5tupleIJDpOT_EEES9_', symObjAddr: 0x1594, symBinAddr: 0x10001B048, symSize: 0x2C }
  - { offsetInCU: 0x3E98C, offset: 0x9147F, size: 0x8, addend: 0x0, symName: '__ZNSt3__13getB8ue170006ILm0EJRKZNK3icp3$_0clEvEUlmdE_EEERNS_13tuple_elementIXT_ENS_5tupleIJDpT0_EEEE4typeERSA_', symObjAddr: 0x1778, symBinAddr: 0x10001B22C, symSize: 0x24 }
  - { offsetInCU: 0x3E9CF, offset: 0x914C2, size: 0x8, addend: 0x0, symName: '__ZNSt3__116forward_as_tupleB8ue170006IJRKNS_9allocatorIZNK3icp3$_0clEvEUlmdE_EEEEENS_5tupleIJDpOT_EEESB_', symObjAddr: 0x1BDC, symBinAddr: 0x10001B588, symSize: 0x2C }
  - { offsetInCU: 0x3EA1E, offset: 0x91511, size: 0x8, addend: 0x0, symName: '__ZNSt3__13getB8ue170006ILm0EJRKNS_9allocatorIZNK3icp3$_0clEvEUlmdE_EEEEERNS_13tuple_elementIXT_ENS_5tupleIJDpT0_EEEE4typeERSC_', symObjAddr: 0x1DC0, symBinAddr: 0x10001B76C, symSize: 0x24 }
  - { offsetInCU: 0x3EAB1, offset: 0x915A4, size: 0x8, addend: 0x0, symName: '__ZNSt3__18__invokeB8ue170006IRZNK3icp3$_0clEvEUlmdE_JmdEEEDTclclsr3stdE7declvalIT_EEspclsr3stdE7declvalIT0_EEEEOS5_DpOS6_', symObjAddr: 0x1EB0, symBinAddr: 0x10001B85C, symSize: 0x44 }
  - { offsetInCU: 0x3EB16, offset: 0x91609, size: 0x8, addend: 0x0, symName: __ZNSt3__111make_uniqueB8ue170006IN3icp11PointToLineEJRdEEENS_11__unique_ifIT_E15__unique_singleEDpOT0_, symObjAddr: 0x1F44, symBinAddr: 0x10001B8F0, symSize: 0x70 }
  - { offsetInCU: 0x3EB58, offset: 0x9164B, size: 0x8, addend: 0x0, symName: __ZNSt3__14swapB8ue170006IdEENS_9enable_ifIXaasr21is_move_constructibleIT_EE5valuesr18is_move_assignableIS2_EE5valueEvE4typeERS2_S5_, symObjAddr: 0x961C, symBinAddr: 0x100020954, symSize: 0x3C }
  - { offsetInCU: 0x3EBAA, offset: 0x9169D, size: 0x8, addend: 0x0, symName: __ZNSt3__13minB8ue170006IlEERKT_S3_S3_, symObjAddr: 0x9744, symBinAddr: 0x100020A7C, symSize: 0x2C }
  - { offsetInCU: 0x3EBED, offset: 0x916E0, size: 0x8, addend: 0x0, symName: __ZNSt3__13minB8ue170006IlNS_6__lessIvvEEEERKT_S5_S5_T0_, symObjAddr: 0x9838, symBinAddr: 0x100020B70, symSize: 0x54 }
  - { offsetInCU: 0x3ED27, offset: 0x9181A, size: 0x8, addend: 0x0, symName: __ZNSt3__13maxB8ue170006IdEERKT_S3_S3_, symObjAddr: 0xEC3C, symBinAddr: 0x1000253B4, symSize: 0x2C }
  - { offsetInCU: 0x3ED6A, offset: 0x9185D, size: 0x8, addend: 0x0, symName: __ZNSt3__13maxB8ue170006IdNS_6__lessIvvEEEERKT_S5_S5_T0_, symObjAddr: 0xEC68, symBinAddr: 0x1000253E0, symSize: 0x54 }
  - { offsetInCU: 0x3EE9D, offset: 0x91990, size: 0x8, addend: 0x0, symName: __ZN3icpL21static_initializationE, symObjAddr: 0x1E944F, symBinAddr: 0x10003C165, symSize: 0x0 }
  - { offsetInCU: 0x40B9A, offset: 0x9368D, size: 0x8, addend: 0x0, symName: __ZN5Eigen8internal18redux_vec_unrollerINS0_13scalar_max_opIddLi1EEENS0_15redux_evaluatorINS_12CwiseUnaryOpINS0_13scalar_abs_opIdEEKNS_6MatrixIdLi2ELi2ELi0ELi2ELi2EEEEEEELi0ELi1EE3runI19__simd128_float64_tEET_RKSC_RKS3_, symObjAddr: 0xA4A0, symBinAddr: 0x1000217D8, symSize: 0x30 }
  - { offsetInCU: 0x40BF6, offset: 0x936E9, size: 0x8, addend: 0x0, symName: __ZN5Eigen8internal18redux_vec_unrollerINS0_13scalar_max_opIddLi1EEENS0_15redux_evaluatorINS_12CwiseUnaryOpINS0_13scalar_abs_opIdEEKNS_6MatrixIdLi2ELi2ELi0ELi2ELi2EEEEEEELi1ELi1EE3runI19__simd128_float64_tEET_RKSC_RKS3_, symObjAddr: 0xA4D0, symBinAddr: 0x100021808, symSize: 0x30 }
  - { offsetInCU: 0x41F0F, offset: 0x94A02, size: 0x8, addend: 0x0, symName: '__ZNK3icp3$_0clEv', symObjAddr: 0xB0, symBinAddr: 0x100019EBC, symSize: 0x10C }
  - { offsetInCU: 0x44A3F, offset: 0x97532, size: 0x8, addend: 0x0, symName: '__ZNSt3__18functionIFNS_10unique_ptrIN3icp3ICPENS_14default_deleteIS3_EEEEmdEEC1IZNKS2_3$_0clEvEUlmdE_vEET_', symObjAddr: 0x230, symBinAddr: 0x100019FC8, symSize: 0x2C }
  - { offsetInCU: 0x44A82, offset: 0x97575, size: 0x8, addend: 0x0, symName: '__ZNSt3__18functionIFNS_10unique_ptrIN3icp3ICPENS_14default_deleteIS3_EEEEmdEEC2IZNKS2_3$_0clEvEUlmdE_vEET_', symObjAddr: 0x43C, symBinAddr: 0x100019FF4, symSize: 0x30 }
  - { offsetInCU: 0x44AC5, offset: 0x975B8, size: 0x8, addend: 0x0, symName: '__ZNSt3__110__function12__value_funcIFNS_10unique_ptrIN3icp3ICPENS_14default_deleteIS4_EEEEmdEEC1B8ue170006IZNKS3_3$_0clEvEUlmdE_vEEOT_', symObjAddr: 0x46C, symBinAddr: 0x10001A024, symSize: 0x50 }
  - { offsetInCU: 0x44B06, offset: 0x975F9, size: 0x8, addend: 0x0, symName: '__ZNSt3__19allocatorIZNK3icp3$_0clEvEUlmdE_EC1B8ue170006Ev', symObjAddr: 0x4BC, symBinAddr: 0x10001A074, symSize: 0x2C }
  - { offsetInCU: 0x44B2E, offset: 0x97621, size: 0x8, addend: 0x0, symName: '__ZNSt3__110__function12__value_funcIFNS_10unique_ptrIN3icp3ICPENS_14default_deleteIS4_EEEEmdEEC1B8ue170006IZNKS3_3$_0clEvEUlmdE_NS_9allocatorISC_EEEEOT_RKT0_', symObjAddr: 0x4E8, symBinAddr: 0x10001A0A0, symSize: 0x3C }
  - { offsetInCU: 0x44B86, offset: 0x97679, size: 0x8, addend: 0x0, symName: '__ZNSt3__19allocatorIZNK3icp3$_0clEvEUlmdE_EC2B8ue170006Ev', symObjAddr: 0x524, symBinAddr: 0x10001A0DC, symSize: 0x2C }
  - { offsetInCU: 0x44BAE, offset: 0x976A1, size: 0x8, addend: 0x0, symName: '__ZNSt3__116__non_trivial_ifILb1ENS_9allocatorIZNK3icp3$_0clEvEUlmdE_EEEC2B8ue170006Ev', symObjAddr: 0x550, symBinAddr: 0x10001A108, symSize: 0x14 }
  - { offsetInCU: 0x44BD6, offset: 0x976C9, size: 0x8, addend: 0x0, symName: '__ZNSt3__110__function12__value_funcIFNS_10unique_ptrIN3icp3ICPENS_14default_deleteIS4_EEEEmdEEC2B8ue170006IZNKS3_3$_0clEvEUlmdE_NS_9allocatorISC_EEEEOT_RKT0_', symObjAddr: 0x564, symBinAddr: 0x10001A11C, symSize: 0x94 }
  - { offsetInCU: 0x44C7A, offset: 0x9776D, size: 0x8, addend: 0x0, symName: '__ZNSt3__19allocatorINS_10__function6__funcIZNK3icp3$_0clEvEUlmdE_NS0_IS5_EEFNS_10unique_ptrINS3_3ICPENS_14default_deleteIS8_EEEEmdEEEEC1B8ue170006IS5_EERKNS0_IT_EE', symObjAddr: 0x610, symBinAddr: 0x10001A1C8, symSize: 0x34 }
  - { offsetInCU: 0x44CBA, offset: 0x977AD, size: 0x8, addend: 0x0, symName: '__ZNSt3__19allocatorIZNK3icp3$_0clEvEUlmdE_EC1B8ue170006INS_10__function6__funcIS3_S4_FNS_10unique_ptrINS1_3ICPENS_14default_deleteIS9_EEEEmdEEEEERKNS0_IT_EE', symObjAddr: 0x644, symBinAddr: 0x10001A1FC, symSize: 0x34 }
  - { offsetInCU: 0x44CF5, offset: 0x977E8, size: 0x8, addend: 0x0, symName: '__ZNSt3__110__function6__funcIZNK3icp3$_0clEvEUlmdE_NS_9allocatorIS4_EEFNS_10unique_ptrINS2_3ICPENS_14default_deleteIS8_EEEEmdEEC1B8ue170006EOS4_OS6_', symObjAddr: 0x678, symBinAddr: 0x10001A230, symSize: 0x3C }
  - { offsetInCU: 0x44D3B, offset: 0x9782E, size: 0x8, addend: 0x0, symName: '__ZNSt3__19allocatorINS_10__function6__funcIZNK3icp3$_0clEvEUlmdE_NS0_IS5_EEFNS_10unique_ptrINS3_3ICPENS_14default_deleteIS8_EEEEmdEEEEC2B8ue170006IS5_EERKNS0_IT_EE', symObjAddr: 0x6B4, symBinAddr: 0x10001A26C, symSize: 0x30 }
  - { offsetInCU: 0x44D76, offset: 0x97869, size: 0x8, addend: 0x0, symName: '__ZNSt3__116__non_trivial_ifILb1ENS_9allocatorINS_10__function6__funcIZNK3icp3$_0clEvEUlmdE_NS1_IS6_EEFNS_10unique_ptrINS4_3ICPENS_14default_deleteIS9_EEEEmdEEEEEEC2B8ue170006Ev', symObjAddr: 0x6E4, symBinAddr: 0x10001A29C, symSize: 0x14 }
  - { offsetInCU: 0x44D9E, offset: 0x97891, size: 0x8, addend: 0x0, symName: '__ZNSt3__19allocatorIZNK3icp3$_0clEvEUlmdE_EC2B8ue170006INS_10__function6__funcIS3_S4_FNS_10unique_ptrINS1_3ICPENS_14default_deleteIS9_EEEEmdEEEEERKNS0_IT_EE', symObjAddr: 0x6F8, symBinAddr: 0x10001A2B0, symSize: 0x30 }
  - { offsetInCU: 0x44DD9, offset: 0x978CC, size: 0x8, addend: 0x0, symName: '__ZNSt3__110__function6__funcIZNK3icp3$_0clEvEUlmdE_NS_9allocatorIS4_EEFNS_10unique_ptrINS2_3ICPENS_14default_deleteIS8_EEEEmdEEC2B8ue170006EOS4_OS6_', symObjAddr: 0x728, symBinAddr: 0x10001A2E0, symSize: 0x88 }
  - { offsetInCU: 0x44E1F, offset: 0x97912, size: 0x8, addend: 0x0, symName: __ZNSt3__110__function6__baseIFNS_10unique_ptrIN3icp3ICPENS_14default_deleteIS4_EEEEmdEEC2B8ue170006Ev, symObjAddr: 0x7B0, symBinAddr: 0x10001A368, symSize: 0x24 }
  - { offsetInCU: 0x44E47, offset: 0x9793A, size: 0x8, addend: 0x0, symName: '__ZNSt3__110__function12__alloc_funcIZNK3icp3$_0clEvEUlmdE_NS_9allocatorIS4_EEFNS_10unique_ptrINS2_3ICPENS_14default_deleteIS8_EEEEmdEEC1B8ue170006EOS4_OS6_', symObjAddr: 0x7D4, symBinAddr: 0x10001A38C, symSize: 0x3C }
  - { offsetInCU: 0x44E8B, offset: 0x9797E, size: 0x8, addend: 0x0, symName: __ZNSt3__110__function6__baseIFNS_10unique_ptrIN3icp3ICPENS_14default_deleteIS4_EEEEmdEED2Ev, symObjAddr: 0x810, symBinAddr: 0x10001A3C8, symSize: 0x14 }
  - { offsetInCU: 0x44EB3, offset: 0x979A6, size: 0x8, addend: 0x0, symName: '__ZNSt3__110__function6__funcIZNK3icp3$_0clEvEUlmdE_NS_9allocatorIS4_EEFNS_10unique_ptrINS2_3ICPENS_14default_deleteIS8_EEEEmdEED1Ev', symObjAddr: 0x824, symBinAddr: 0x10001A3DC, symSize: 0x2C }
  - { offsetInCU: 0x44EDE, offset: 0x979D1, size: 0x8, addend: 0x0, symName: '__ZNSt3__110__function6__funcIZNK3icp3$_0clEvEUlmdE_NS_9allocatorIS4_EEFNS_10unique_ptrINS2_3ICPENS_14default_deleteIS8_EEEEmdEED0Ev', symObjAddr: 0x850, symBinAddr: 0x10001A408, symSize: 0x30 }
  - { offsetInCU: 0x44F09, offset: 0x979FC, size: 0x8, addend: 0x0, symName: '__ZNKSt3__110__function6__funcIZNK3icp3$_0clEvEUlmdE_NS_9allocatorIS4_EEFNS_10unique_ptrINS2_3ICPENS_14default_deleteIS8_EEEEmdEE7__cloneEv', symObjAddr: 0x880, symBinAddr: 0x10001A438, symSize: 0xFC }
  - { offsetInCU: 0x44F59, offset: 0x97A4C, size: 0x8, addend: 0x0, symName: '__ZNKSt3__110__function6__funcIZNK3icp3$_0clEvEUlmdE_NS_9allocatorIS4_EEFNS_10unique_ptrINS2_3ICPENS_14default_deleteIS8_EEEEmdEE7__cloneEPNS0_6__baseISC_EE', symObjAddr: 0x97C, symBinAddr: 0x10001A534, symSize: 0x58 }
  - { offsetInCU: 0x44F8E, offset: 0x97A81, size: 0x8, addend: 0x0, symName: '__ZNSt3__110__function6__funcIZNK3icp3$_0clEvEUlmdE_NS_9allocatorIS4_EEFNS_10unique_ptrINS2_3ICPENS_14default_deleteIS8_EEEEmdEE7destroyEv', symObjAddr: 0x9D4, symBinAddr: 0x10001A58C, symSize: 0x28 }
  - { offsetInCU: 0x44FB4, offset: 0x97AA7, size: 0x8, addend: 0x0, symName: '__ZNSt3__110__function6__funcIZNK3icp3$_0clEvEUlmdE_NS_9allocatorIS4_EEFNS_10unique_ptrINS2_3ICPENS_14default_deleteIS8_EEEEmdEE18destroy_deallocateEv', symObjAddr: 0x9FC, symBinAddr: 0x10001A5B4, symSize: 0x58 }
  - { offsetInCU: 0x44FF5, offset: 0x97AE8, size: 0x8, addend: 0x0, symName: '__ZNSt3__110__function6__funcIZNK3icp3$_0clEvEUlmdE_NS_9allocatorIS4_EEFNS_10unique_ptrINS2_3ICPENS_14default_deleteIS8_EEEEmdEEclEOmOd', symObjAddr: 0xA54, symBinAddr: 0x10001A60C, symSize: 0x40 }
  - { offsetInCU: 0x45039, offset: 0x97B2C, size: 0x8, addend: 0x0, symName: '__ZNKSt3__110__function6__funcIZNK3icp3$_0clEvEUlmdE_NS_9allocatorIS4_EEFNS_10unique_ptrINS2_3ICPENS_14default_deleteIS8_EEEEmdEE6targetERKSt9type_info', symObjAddr: 0xA94, symBinAddr: 0x10001A64C, symSize: 0x60 }
  - { offsetInCU: 0x4506E, offset: 0x97B61, size: 0x8, addend: 0x0, symName: '__ZNKSt3__110__function6__funcIZNK3icp3$_0clEvEUlmdE_NS_9allocatorIS4_EEFNS_10unique_ptrINS2_3ICPENS_14default_deleteIS8_EEEEmdEE11target_typeEv', symObjAddr: 0xAF4, symBinAddr: 0x10001A6AC, symSize: 0x18 }
  - { offsetInCU: 0x45095, offset: 0x97B88, size: 0x8, addend: 0x0, symName: __ZNSt3__110__function6__baseIFNS_10unique_ptrIN3icp3ICPENS_14default_deleteIS4_EEEEmdEED1Ev, symObjAddr: 0xB0C, symBinAddr: 0x10001A6C4, symSize: 0x14 }
  - { offsetInCU: 0x450BD, offset: 0x97BB0, size: 0x8, addend: 0x0, symName: __ZNSt3__110__function6__baseIFNS_10unique_ptrIN3icp3ICPENS_14default_deleteIS4_EEEEmdEED0Ev, symObjAddr: 0xB20, symBinAddr: 0x10001A6D8, symSize: 0xC }
  - { offsetInCU: 0x450E5, offset: 0x97BD8, size: 0x8, addend: 0x0, symName: '__ZNSt3__110__function12__alloc_funcIZNK3icp3$_0clEvEUlmdE_NS_9allocatorIS4_EEFNS_10unique_ptrINS2_3ICPENS_14default_deleteIS8_EEEEmdEEC2B8ue170006EOS4_OS6_', symObjAddr: 0xB2C, symBinAddr: 0x10001A6E4, symSize: 0x5C }
  - { offsetInCU: 0x45129, offset: 0x97C1C, size: 0x8, addend: 0x0, symName: '__ZNSt3__117__compressed_pairIZNK3icp3$_0clEvEUlmdE_NS_9allocatorIS3_EEEC1B8ue170006IJOS3_EJOS5_EEENS_21piecewise_construct_tENS_5tupleIJDpT_EEENSB_IJDpT0_EEE', symObjAddr: 0xBE0, symBinAddr: 0x10001A798, symSize: 0x3C }
  - { offsetInCU: 0x45191, offset: 0x97C84, size: 0x8, addend: 0x0, symName: '__ZNSt3__15tupleIJOZNK3icp3$_0clEvEUlmdE_EEC1B8ue170006IJS3_ELi0EEEDpOT_', symObjAddr: 0xC1C, symBinAddr: 0x10001A7D4, symSize: 0x34 }
  - { offsetInCU: 0x451D9, offset: 0x97CCC, size: 0x8, addend: 0x0, symName: '__ZNSt3__15tupleIJOZNK3icp3$_0clEvEUlmdE_EEC2B8ue170006IJS3_ELi0EEEDpOT_', symObjAddr: 0xC50, symBinAddr: 0x10001A808, symSize: 0x34 }
  - { offsetInCU: 0x45221, offset: 0x97D14, size: 0x8, addend: 0x0, symName: '__ZNSt3__112__tuple_implINS_15__tuple_indicesIJLm0EEEEJOZNK3icp3$_0clEvEUlmdE_EEC1B8ue170006IJLm0EEJS6_EJEJEJS5_EEENS1_IJXspT_EEEENS_13__tuple_typesIJDpT0_EEENS1_IJXspT1_EEEENSA_IJDpT2_EEEDpOT3_', symObjAddr: 0xC84, symBinAddr: 0x10001A83C, symSize: 0x34 }
  - { offsetInCU: 0x452B0, offset: 0x97DA3, size: 0x8, addend: 0x0, symName: '__ZNSt3__112__tuple_implINS_15__tuple_indicesIJLm0EEEEJOZNK3icp3$_0clEvEUlmdE_EEC2B8ue170006IJLm0EEJS6_EJEJEJS5_EEENS1_IJXspT_EEEENS_13__tuple_typesIJDpT0_EEENS1_IJXspT1_EEEENSA_IJDpT2_EEEDpOT3_', symObjAddr: 0xCB8, symBinAddr: 0x10001A870, symSize: 0x34 }
  - { offsetInCU: 0x4533F, offset: 0x97E32, size: 0x8, addend: 0x0, symName: '__ZNSt3__112__tuple_leafILm0EOZNK3icp3$_0clEvEUlmdE_Lb0EEC2B8ue170006IS3_vEEOT_', symObjAddr: 0xCEC, symBinAddr: 0x10001A8A4, symSize: 0x20 }
  - { offsetInCU: 0x45380, offset: 0x97E73, size: 0x8, addend: 0x0, symName: '__ZNSt3__15tupleIJONS_9allocatorIZNK3icp3$_0clEvEUlmdE_EEEEC1B8ue170006IJS5_ELi0EEEDpOT_', symObjAddr: 0xD0C, symBinAddr: 0x10001A8C4, symSize: 0x34 }
  - { offsetInCU: 0x453C8, offset: 0x97EBB, size: 0x8, addend: 0x0, symName: '__ZNSt3__15tupleIJONS_9allocatorIZNK3icp3$_0clEvEUlmdE_EEEEC2B8ue170006IJS5_ELi0EEEDpOT_', symObjAddr: 0xD40, symBinAddr: 0x10001A8F8, symSize: 0x34 }
  - { offsetInCU: 0x45410, offset: 0x97F03, size: 0x8, addend: 0x0, symName: '__ZNSt3__112__tuple_implINS_15__tuple_indicesIJLm0EEEEJONS_9allocatorIZNK3icp3$_0clEvEUlmdE_EEEEC1B8ue170006IJLm0EEJS8_EJEJEJS7_EEENS1_IJXspT_EEEENS_13__tuple_typesIJDpT0_EEENS1_IJXspT1_EEEENSC_IJDpT2_EEEDpOT3_', symObjAddr: 0xD74, symBinAddr: 0x10001A92C, symSize: 0x34 }
  - { offsetInCU: 0x4549F, offset: 0x97F92, size: 0x8, addend: 0x0, symName: '__ZNSt3__112__tuple_implINS_15__tuple_indicesIJLm0EEEEJONS_9allocatorIZNK3icp3$_0clEvEUlmdE_EEEEC2B8ue170006IJLm0EEJS8_EJEJEJS7_EEENS1_IJXspT_EEEENS_13__tuple_typesIJDpT0_EEENS1_IJXspT1_EEEENSC_IJDpT2_EEEDpOT3_', symObjAddr: 0xDA8, symBinAddr: 0x10001A960, symSize: 0x34 }
  - { offsetInCU: 0x4552E, offset: 0x98021, size: 0x8, addend: 0x0, symName: '__ZNSt3__112__tuple_leafILm0EONS_9allocatorIZNK3icp3$_0clEvEUlmdE_EELb0EEC2B8ue170006IS5_vEEOT_', symObjAddr: 0xDDC, symBinAddr: 0x10001A994, symSize: 0x20 }
  - { offsetInCU: 0x4556F, offset: 0x98062, size: 0x8, addend: 0x0, symName: '__ZNSt3__117__compressed_pairIZNK3icp3$_0clEvEUlmdE_NS_9allocatorIS3_EEEC2B8ue170006IJOS3_EJOS5_EEENS_21piecewise_construct_tENS_5tupleIJDpT_EEENSB_IJDpT0_EEE', symObjAddr: 0xDFC, symBinAddr: 0x10001A9B4, symSize: 0x54 }
  - { offsetInCU: 0x455D7, offset: 0x980CA, size: 0x8, addend: 0x0, symName: '__ZNSt3__122__compressed_pair_elemIZNK3icp3$_0clEvEUlmdE_Li0ELb1EEC2B8ue170006IJOS3_EJLm0EEEENS_21piecewise_construct_tENS_5tupleIJDpT_EEENS_15__tuple_indicesIJXspT0_EEEE', symObjAddr: 0xE50, symBinAddr: 0x10001AA08, symSize: 0x38 }
  - { offsetInCU: 0x45638, offset: 0x9812B, size: 0x8, addend: 0x0, symName: '__ZNSt3__122__compressed_pair_elemINS_9allocatorIZNK3icp3$_0clEvEUlmdE_EELi1ELb1EEC2B8ue170006IJOS5_EJLm0EEEENS_21piecewise_construct_tENS_5tupleIJDpT_EEENS_15__tuple_indicesIJXspT0_EEEE', symObjAddr: 0xE88, symBinAddr: 0x10001AA40, symSize: 0x38 }
  - { offsetInCU: 0x45699, offset: 0x9818C, size: 0x8, addend: 0x0, symName: '__ZNSt3__112__tuple_leafILm0EOZNK3icp3$_0clEvEUlmdE_Lb0EE3getB8ue170006Ev', symObjAddr: 0xEE4, symBinAddr: 0x10001AA9C, symSize: 0x18 }
  - { offsetInCU: 0x456BD, offset: 0x981B0, size: 0x8, addend: 0x0, symName: '__ZNSt3__112__tuple_leafILm0EONS_9allocatorIZNK3icp3$_0clEvEUlmdE_EELb0EE3getB8ue170006Ev', symObjAddr: 0xF20, symBinAddr: 0x10001AAD8, symSize: 0x18 }
  - { offsetInCU: 0x456E1, offset: 0x981D4, size: 0x8, addend: 0x0, symName: '__ZNSt3__110__function6__funcIZNK3icp3$_0clEvEUlmdE_NS_9allocatorIS4_EEFNS_10unique_ptrINS2_3ICPENS_14default_deleteIS8_EEEEmdEED2Ev', symObjAddr: 0xF38, symBinAddr: 0x10001AAF0, symSize: 0x2C }
  - { offsetInCU: 0x4570C, offset: 0x981FF, size: 0x8, addend: 0x0, symName: '__ZNKSt3__110__function12__alloc_funcIZNK3icp3$_0clEvEUlmdE_NS_9allocatorIS4_EEFNS_10unique_ptrINS2_3ICPENS_14default_deleteIS8_EEEEmdEE15__get_allocatorB8ue170006Ev', symObjAddr: 0xF64, symBinAddr: 0x10001AB1C, symSize: 0x24 }
  - { offsetInCU: 0x45730, offset: 0x98223, size: 0x8, addend: 0x0, symName: '__ZNSt3__19allocatorINS_10__function6__funcIZNK3icp3$_0clEvEUlmdE_NS0_IS5_EEFNS_10unique_ptrINS3_3ICPENS_14default_deleteIS8_EEEEmdEEEE8allocateB8ue170006Em', symObjAddr: 0xF88, symBinAddr: 0x10001AB40, symSize: 0x58 }
  - { offsetInCU: 0x45771, offset: 0x98264, size: 0x8, addend: 0x0, symName: '__ZNSt3__122__allocator_destructorINS_9allocatorINS_10__function6__funcIZNK3icp3$_0clEvEUlmdE_NS1_IS6_EEFNS_10unique_ptrINS4_3ICPENS_14default_deleteIS9_EEEEmdEEEEEEC1B8ue170006ERSF_m', symObjAddr: 0xFE0, symBinAddr: 0x10001AB98, symSize: 0x3C }
  - { offsetInCU: 0x45841, offset: 0x98334, size: 0x8, addend: 0x0, symName: '__ZNSt3__110unique_ptrINS_10__function6__funcIZNK3icp3$_0clEvEUlmdE_NS_9allocatorIS5_EEFNS0_INS3_3ICPENS_14default_deleteIS8_EEEEmdEEENS_22__allocator_destructorINS6_ISD_EEEEEC1B8ue170006ILb1EvEEPSD_NS_16__dependent_typeINS_27__unique_ptr_deleter_sfinaeISG_EEXT_EE20__good_rval_ref_typeE', symObjAddr: 0x101C, symBinAddr: 0x10001ABD4, symSize: 0x3C }
  - { offsetInCU: 0x45890, offset: 0x98383, size: 0x8, addend: 0x0, symName: '__ZNKSt3__110unique_ptrINS_10__function6__funcIZNK3icp3$_0clEvEUlmdE_NS_9allocatorIS5_EEFNS0_INS3_3ICPENS_14default_deleteIS8_EEEEmdEEENS_22__allocator_destructorINS6_ISD_EEEEE3getB8ue170006Ev', symObjAddr: 0x1058, symBinAddr: 0x10001AC10, symSize: 0x28 }
  - { offsetInCU: 0x458B4, offset: 0x983A7, size: 0x8, addend: 0x0, symName: '__ZNKSt3__110__function12__alloc_funcIZNK3icp3$_0clEvEUlmdE_NS_9allocatorIS4_EEFNS_10unique_ptrINS2_3ICPENS_14default_deleteIS8_EEEEmdEE8__targetB8ue170006Ev', symObjAddr: 0x1080, symBinAddr: 0x10001AC38, symSize: 0x24 }
  - { offsetInCU: 0x458D8, offset: 0x983CB, size: 0x8, addend: 0x0, symName: '__ZNSt3__110__function6__funcIZNK3icp3$_0clEvEUlmdE_NS_9allocatorIS4_EEFNS_10unique_ptrINS2_3ICPENS_14default_deleteIS8_EEEEmdEEC1B8ue170006ERKS4_OS6_', symObjAddr: 0x10A4, symBinAddr: 0x10001AC5C, symSize: 0x3C }
  - { offsetInCU: 0x4591E, offset: 0x98411, size: 0x8, addend: 0x0, symName: '__ZNSt3__110unique_ptrINS_10__function6__funcIZNK3icp3$_0clEvEUlmdE_NS_9allocatorIS5_EEFNS0_INS3_3ICPENS_14default_deleteIS8_EEEEmdEEENS_22__allocator_destructorINS6_ISD_EEEEE7releaseB8ue170006Ev', symObjAddr: 0x10E0, symBinAddr: 0x10001AC98, symSize: 0x44 }
  - { offsetInCU: 0x45951, offset: 0x98444, size: 0x8, addend: 0x0, symName: '__ZNSt3__110unique_ptrINS_10__function6__funcIZNK3icp3$_0clEvEUlmdE_NS_9allocatorIS5_EEFNS0_INS3_3ICPENS_14default_deleteIS8_EEEEmdEEENS_22__allocator_destructorINS6_ISD_EEEEED1B8ue170006Ev', symObjAddr: 0x1124, symBinAddr: 0x10001ACDC, symSize: 0x2C }
  - { offsetInCU: 0x45979, offset: 0x9846C, size: 0x8, addend: 0x0, symName: '__ZNKSt3__117__compressed_pairIZNK3icp3$_0clEvEUlmdE_NS_9allocatorIS3_EEE6secondB8ue170006Ev', symObjAddr: 0x1150, symBinAddr: 0x10001AD08, symSize: 0x24 }
  - { offsetInCU: 0x4599D, offset: 0x98490, size: 0x8, addend: 0x0, symName: '__ZNKSt3__122__compressed_pair_elemINS_9allocatorIZNK3icp3$_0clEvEUlmdE_EELi1ELb1EE5__getB8ue170006Ev', symObjAddr: 0x1174, symBinAddr: 0x10001AD2C, symSize: 0x14 }
  - { offsetInCU: 0x459CB, offset: 0x984BE, size: 0x8, addend: 0x0, symName: '__ZNSt3__116allocator_traitsINS_9allocatorINS_10__function6__funcIZNK3icp3$_0clEvEUlmdE_NS1_IS6_EEFNS_10unique_ptrINS4_3ICPENS_14default_deleteIS9_EEEEmdEEEEEE8max_sizeB8ue170006ISF_vEEmRKSF_', symObjAddr: 0x1188, symBinAddr: 0x10001AD40, symSize: 0x24 }
  - { offsetInCU: 0x459F8, offset: 0x984EB, size: 0x8, addend: 0x0, symName: '__ZNKSt3__19allocatorINS_10__function6__funcIZNK3icp3$_0clEvEUlmdE_NS0_IS5_EEFNS_10unique_ptrINS3_3ICPENS_14default_deleteIS8_EEEEmdEEEE8max_sizeB8ue170006Ev', symObjAddr: 0x1240, symBinAddr: 0x10001AD64, symSize: 0x14 }
  - { offsetInCU: 0x45A1C, offset: 0x9850F, size: 0x8, addend: 0x0, symName: '__ZNSt3__122__allocator_destructorINS_9allocatorINS_10__function6__funcIZNK3icp3$_0clEvEUlmdE_NS1_IS6_EEFNS_10unique_ptrINS4_3ICPENS_14default_deleteIS9_EEEEmdEEEEEEC2B8ue170006ERSF_m', symObjAddr: 0x12C4, symBinAddr: 0x10001AD78, symSize: 0x2C }
  - { offsetInCU: 0x45A60, offset: 0x98553, size: 0x8, addend: 0x0, symName: '__ZNSt3__110unique_ptrINS_10__function6__funcIZNK3icp3$_0clEvEUlmdE_NS_9allocatorIS5_EEFNS0_INS3_3ICPENS_14default_deleteIS8_EEEEmdEEENS_22__allocator_destructorINS6_ISD_EEEEEC2B8ue170006ILb1EvEEPSD_NS_16__dependent_typeINS_27__unique_ptr_deleter_sfinaeISG_EEXT_EE20__good_rval_ref_typeE', symObjAddr: 0x12F0, symBinAddr: 0x10001ADA4, symSize: 0x48 }
  - { offsetInCU: 0x45AAF, offset: 0x985A2, size: 0x8, addend: 0x0, symName: '__ZNSt3__117__compressed_pairIPNS_10__function6__funcIZNK3icp3$_0clEvEUlmdE_NS_9allocatorIS5_EEFNS_10unique_ptrINS3_3ICPENS_14default_deleteIS9_EEEEmdEEENS_22__allocator_destructorINS6_ISE_EEEEEC1B8ue170006IRSF_SI_EEOT_OT0_', symObjAddr: 0x1338, symBinAddr: 0x10001ADEC, symSize: 0x3C }
  - { offsetInCU: 0x45B05, offset: 0x985F8, size: 0x8, addend: 0x0, symName: '__ZNSt3__117__compressed_pairIPNS_10__function6__funcIZNK3icp3$_0clEvEUlmdE_NS_9allocatorIS5_EEFNS_10unique_ptrINS3_3ICPENS_14default_deleteIS9_EEEEmdEEENS_22__allocator_destructorINS6_ISE_EEEEEC2B8ue170006IRSF_SI_EEOT_OT0_', symObjAddr: 0x1374, symBinAddr: 0x10001AE28, symSize: 0x48 }
  - { offsetInCU: 0x45B5B, offset: 0x9864E, size: 0x8, addend: 0x0, symName: '__ZNSt3__122__compressed_pair_elemIPNS_10__function6__funcIZNK3icp3$_0clEvEUlmdE_NS_9allocatorIS5_EEFNS_10unique_ptrINS3_3ICPENS_14default_deleteIS9_EEEEmdEEELi0ELb0EEC2B8ue170006IRSF_vEEOT_', symObjAddr: 0x13BC, symBinAddr: 0x10001AE70, symSize: 0x24 }
  - { offsetInCU: 0x45B9B, offset: 0x9868E, size: 0x8, addend: 0x0, symName: '__ZNSt3__122__compressed_pair_elemINS_22__allocator_destructorINS_9allocatorINS_10__function6__funcIZNK3icp3$_0clEvEUlmdE_NS2_IS7_EEFNS_10unique_ptrINS5_3ICPENS_14default_deleteISA_EEEEmdEEEEEEELi1ELb0EEC2B8ue170006ISH_vEEOT_', symObjAddr: 0x13E0, symBinAddr: 0x10001AE94, symSize: 0x24 }
  - { offsetInCU: 0x45BDB, offset: 0x986CE, size: 0x8, addend: 0x0, symName: '__ZNKSt3__117__compressed_pairIPNS_10__function6__funcIZNK3icp3$_0clEvEUlmdE_NS_9allocatorIS5_EEFNS_10unique_ptrINS3_3ICPENS_14default_deleteIS9_EEEEmdEEENS_22__allocator_destructorINS6_ISE_EEEEE5firstB8ue170006Ev', symObjAddr: 0x1404, symBinAddr: 0x10001AEB8, symSize: 0x24 }
  - { offsetInCU: 0x45BFF, offset: 0x986F2, size: 0x8, addend: 0x0, symName: '__ZNKSt3__122__compressed_pair_elemIPNS_10__function6__funcIZNK3icp3$_0clEvEUlmdE_NS_9allocatorIS5_EEFNS_10unique_ptrINS3_3ICPENS_14default_deleteIS9_EEEEmdEEELi0ELb0EE5__getB8ue170006Ev', symObjAddr: 0x1428, symBinAddr: 0x10001AEDC, symSize: 0x14 }
  - { offsetInCU: 0x45C23, offset: 0x98716, size: 0x8, addend: 0x0, symName: '__ZNKSt3__117__compressed_pairIZNK3icp3$_0clEvEUlmdE_NS_9allocatorIS3_EEE5firstB8ue170006Ev', symObjAddr: 0x143C, symBinAddr: 0x10001AEF0, symSize: 0x24 }
  - { offsetInCU: 0x45C47, offset: 0x9873A, size: 0x8, addend: 0x0, symName: '__ZNKSt3__122__compressed_pair_elemIZNK3icp3$_0clEvEUlmdE_Li0ELb1EE5__getB8ue170006Ev', symObjAddr: 0x1460, symBinAddr: 0x10001AF14, symSize: 0x14 }
  - { offsetInCU: 0x45C6B, offset: 0x9875E, size: 0x8, addend: 0x0, symName: '__ZNSt3__110__function6__funcIZNK3icp3$_0clEvEUlmdE_NS_9allocatorIS4_EEFNS_10unique_ptrINS2_3ICPENS_14default_deleteIS8_EEEEmdEEC2B8ue170006ERKS4_OS6_', symObjAddr: 0x1474, symBinAddr: 0x10001AF28, symSize: 0x88 }
  - { offsetInCU: 0x45CB1, offset: 0x987A4, size: 0x8, addend: 0x0, symName: '__ZNSt3__110__function12__alloc_funcIZNK3icp3$_0clEvEUlmdE_NS_9allocatorIS4_EEFNS_10unique_ptrINS2_3ICPENS_14default_deleteIS8_EEEEmdEEC1B8ue170006ERKS4_OS6_', symObjAddr: 0x14FC, symBinAddr: 0x10001AFB0, symSize: 0x3C }
  - { offsetInCU: 0x45CF5, offset: 0x987E8, size: 0x8, addend: 0x0, symName: '__ZNSt3__110__function12__alloc_funcIZNK3icp3$_0clEvEUlmdE_NS_9allocatorIS4_EEFNS_10unique_ptrINS2_3ICPENS_14default_deleteIS8_EEEEmdEEC2B8ue170006ERKS4_OS6_', symObjAddr: 0x1538, symBinAddr: 0x10001AFEC, symSize: 0x5C }
  - { offsetInCU: 0x45D39, offset: 0x9882C, size: 0x8, addend: 0x0, symName: '__ZNSt3__117__compressed_pairIZNK3icp3$_0clEvEUlmdE_NS_9allocatorIS3_EEEC1B8ue170006IJRKS3_EJOS5_EEENS_21piecewise_construct_tENS_5tupleIJDpT_EEENSC_IJDpT0_EEE', symObjAddr: 0x15C0, symBinAddr: 0x10001B074, symSize: 0x3C }
  - { offsetInCU: 0x45DA1, offset: 0x98894, size: 0x8, addend: 0x0, symName: '__ZNSt3__15tupleIJRKZNK3icp3$_0clEvEUlmdE_EEC1B8ue170006INS_4_AndELi0EEES5_', symObjAddr: 0x15FC, symBinAddr: 0x10001B0B0, symSize: 0x34 }
  - { offsetInCU: 0x45DE7, offset: 0x988DA, size: 0x8, addend: 0x0, symName: '__ZNSt3__15tupleIJRKZNK3icp3$_0clEvEUlmdE_EEC2B8ue170006INS_4_AndELi0EEES5_', symObjAddr: 0x1630, symBinAddr: 0x10001B0E4, symSize: 0x34 }
  - { offsetInCU: 0x45E2D, offset: 0x98920, size: 0x8, addend: 0x0, symName: '__ZNSt3__112__tuple_implINS_15__tuple_indicesIJLm0EEEEJRKZNK3icp3$_0clEvEUlmdE_EEC1B8ue170006IJLm0EEJS7_EJEJEJS7_EEENS1_IJXspT_EEEENS_13__tuple_typesIJDpT0_EEENS1_IJXspT1_EEEENSB_IJDpT2_EEEDpOT3_', symObjAddr: 0x1664, symBinAddr: 0x10001B118, symSize: 0x34 }
  - { offsetInCU: 0x45EBC, offset: 0x989AF, size: 0x8, addend: 0x0, symName: '__ZNSt3__112__tuple_implINS_15__tuple_indicesIJLm0EEEEJRKZNK3icp3$_0clEvEUlmdE_EEC2B8ue170006IJLm0EEJS7_EJEJEJS7_EEENS1_IJXspT_EEEENS_13__tuple_typesIJDpT0_EEENS1_IJXspT1_EEEENSB_IJDpT2_EEEDpOT3_', symObjAddr: 0x1698, symBinAddr: 0x10001B14C, symSize: 0x34 }
  - { offsetInCU: 0x45F4B, offset: 0x98A3E, size: 0x8, addend: 0x0, symName: '__ZNSt3__112__tuple_leafILm0ERKZNK3icp3$_0clEvEUlmdE_Lb0EEC2B8ue170006IS5_vEEOT_', symObjAddr: 0x16CC, symBinAddr: 0x10001B180, symSize: 0x20 }
  - { offsetInCU: 0x45F8C, offset: 0x98A7F, size: 0x8, addend: 0x0, symName: '__ZNSt3__117__compressed_pairIZNK3icp3$_0clEvEUlmdE_NS_9allocatorIS3_EEEC2B8ue170006IJRKS3_EJOS5_EEENS_21piecewise_construct_tENS_5tupleIJDpT_EEENSC_IJDpT0_EEE', symObjAddr: 0x16EC, symBinAddr: 0x10001B1A0, symSize: 0x54 }
  - { offsetInCU: 0x45FF4, offset: 0x98AE7, size: 0x8, addend: 0x0, symName: '__ZNSt3__122__compressed_pair_elemIZNK3icp3$_0clEvEUlmdE_Li0ELb1EEC2B8ue170006IJRKS3_EJLm0EEEENS_21piecewise_construct_tENS_5tupleIJDpT_EEENS_15__tuple_indicesIJXspT0_EEEE', symObjAddr: 0x1740, symBinAddr: 0x10001B1F4, symSize: 0x38 }
  - { offsetInCU: 0x46055, offset: 0x98B48, size: 0x8, addend: 0x0, symName: '__ZNSt3__112__tuple_leafILm0ERKZNK3icp3$_0clEvEUlmdE_Lb0EE3getB8ue170006Ev', symObjAddr: 0x179C, symBinAddr: 0x10001B250, symSize: 0x18 }
  - { offsetInCU: 0x46079, offset: 0x98B6C, size: 0x8, addend: 0x0, symName: '__ZNSt3__117__compressed_pairIPNS_10__function6__funcIZNK3icp3$_0clEvEUlmdE_NS_9allocatorIS5_EEFNS_10unique_ptrINS3_3ICPENS_14default_deleteIS9_EEEEmdEEENS_22__allocator_destructorINS6_ISE_EEEEE5firstB8ue170006Ev', symObjAddr: 0x17B4, symBinAddr: 0x10001B268, symSize: 0x24 }
  - { offsetInCU: 0x4609D, offset: 0x98B90, size: 0x8, addend: 0x0, symName: '__ZNSt3__122__compressed_pair_elemIPNS_10__function6__funcIZNK3icp3$_0clEvEUlmdE_NS_9allocatorIS5_EEFNS_10unique_ptrINS3_3ICPENS_14default_deleteIS9_EEEEmdEEELi0ELb0EE5__getB8ue170006Ev', symObjAddr: 0x17D8, symBinAddr: 0x10001B28C, symSize: 0x14 }
  - { offsetInCU: 0x460C1, offset: 0x98BB4, size: 0x8, addend: 0x0, symName: '__ZNSt3__110unique_ptrINS_10__function6__funcIZNK3icp3$_0clEvEUlmdE_NS_9allocatorIS5_EEFNS0_INS3_3ICPENS_14default_deleteIS8_EEEEmdEEENS_22__allocator_destructorINS6_ISD_EEEEED2B8ue170006Ev', symObjAddr: 0x17EC, symBinAddr: 0x10001B2A0, symSize: 0x30 }
  - { offsetInCU: 0x460E9, offset: 0x98BDC, size: 0x8, addend: 0x0, symName: '__ZNSt3__110unique_ptrINS_10__function6__funcIZNK3icp3$_0clEvEUlmdE_NS_9allocatorIS5_EEFNS0_INS3_3ICPENS_14default_deleteIS8_EEEEmdEEENS_22__allocator_destructorINS6_ISD_EEEEE5resetB8ue170006EPSD_', symObjAddr: 0x181C, symBinAddr: 0x10001B2D0, symSize: 0x78 }
  - { offsetInCU: 0x4612B, offset: 0x98C1E, size: 0x8, addend: 0x0, symName: '__ZNSt3__117__compressed_pairIPNS_10__function6__funcIZNK3icp3$_0clEvEUlmdE_NS_9allocatorIS5_EEFNS_10unique_ptrINS3_3ICPENS_14default_deleteIS9_EEEEmdEEENS_22__allocator_destructorINS6_ISE_EEEEE6secondB8ue170006Ev', symObjAddr: 0x1894, symBinAddr: 0x10001B348, symSize: 0x28 }
  - { offsetInCU: 0x4614F, offset: 0x98C42, size: 0x8, addend: 0x0, symName: '__ZNSt3__122__allocator_destructorINS_9allocatorINS_10__function6__funcIZNK3icp3$_0clEvEUlmdE_NS1_IS6_EEFNS_10unique_ptrINS4_3ICPENS_14default_deleteIS9_EEEEmdEEEEEEclB8ue170006EPSE_', symObjAddr: 0x18BC, symBinAddr: 0x10001B370, symSize: 0x34 }
  - { offsetInCU: 0x46181, offset: 0x98C74, size: 0x8, addend: 0x0, symName: '__ZNSt3__122__compressed_pair_elemINS_22__allocator_destructorINS_9allocatorINS_10__function6__funcIZNK3icp3$_0clEvEUlmdE_NS2_IS7_EEFNS_10unique_ptrINS5_3ICPENS_14default_deleteISA_EEEEmdEEEEEEELi1ELb0EE5__getB8ue170006Ev', symObjAddr: 0x18F0, symBinAddr: 0x10001B3A4, symSize: 0x14 }
  - { offsetInCU: 0x461A5, offset: 0x98C98, size: 0x8, addend: 0x0, symName: '__ZNSt3__116allocator_traitsINS_9allocatorINS_10__function6__funcIZNK3icp3$_0clEvEUlmdE_NS1_IS6_EEFNS_10unique_ptrINS4_3ICPENS_14default_deleteIS9_EEEEmdEEEEEE10deallocateB8ue170006ERSF_PSE_m', symObjAddr: 0x1904, symBinAddr: 0x10001B3B8, symSize: 0x34 }
  - { offsetInCU: 0x461E6, offset: 0x98CD9, size: 0x8, addend: 0x0, symName: '__ZNSt3__19allocatorINS_10__function6__funcIZNK3icp3$_0clEvEUlmdE_NS0_IS5_EEFNS_10unique_ptrINS3_3ICPENS_14default_deleteIS8_EEEEmdEEEE10deallocateB8ue170006EPSD_m', symObjAddr: 0x1938, symBinAddr: 0x10001B3EC, symSize: 0x40 }
  - { offsetInCU: 0x46226, offset: 0x98D19, size: 0x8, addend: 0x0, symName: '__ZNSt3__110__function6__funcIZNK3icp3$_0clEvEUlmdE_NS_9allocatorIS4_EEFNS_10unique_ptrINS2_3ICPENS_14default_deleteIS8_EEEEmdEEC1B8ue170006ERKS4_RKS6_', symObjAddr: 0x1A80, symBinAddr: 0x10001B42C, symSize: 0x3C }
  - { offsetInCU: 0x4626C, offset: 0x98D5F, size: 0x8, addend: 0x0, symName: '__ZNSt3__110__function6__funcIZNK3icp3$_0clEvEUlmdE_NS_9allocatorIS4_EEFNS_10unique_ptrINS2_3ICPENS_14default_deleteIS8_EEEEmdEEC2B8ue170006ERKS4_RKS6_', symObjAddr: 0x1ABC, symBinAddr: 0x10001B468, symSize: 0x88 }
  - { offsetInCU: 0x462B2, offset: 0x98DA5, size: 0x8, addend: 0x0, symName: '__ZNSt3__110__function12__alloc_funcIZNK3icp3$_0clEvEUlmdE_NS_9allocatorIS4_EEFNS_10unique_ptrINS2_3ICPENS_14default_deleteIS8_EEEEmdEEC1B8ue170006ERKS4_RKS6_', symObjAddr: 0x1B44, symBinAddr: 0x10001B4F0, symSize: 0x3C }
  - { offsetInCU: 0x462F6, offset: 0x98DE9, size: 0x8, addend: 0x0, symName: '__ZNSt3__110__function12__alloc_funcIZNK3icp3$_0clEvEUlmdE_NS_9allocatorIS4_EEFNS_10unique_ptrINS2_3ICPENS_14default_deleteIS8_EEEEmdEEC2B8ue170006ERKS4_RKS6_', symObjAddr: 0x1B80, symBinAddr: 0x10001B52C, symSize: 0x5C }
  - { offsetInCU: 0x4633A, offset: 0x98E2D, size: 0x8, addend: 0x0, symName: '__ZNSt3__117__compressed_pairIZNK3icp3$_0clEvEUlmdE_NS_9allocatorIS3_EEEC1B8ue170006IJRKS3_EJRKS5_EEENS_21piecewise_construct_tENS_5tupleIJDpT_EEENSD_IJDpT0_EEE', symObjAddr: 0x1C08, symBinAddr: 0x10001B5B4, symSize: 0x3C }
  - { offsetInCU: 0x463A2, offset: 0x98E95, size: 0x8, addend: 0x0, symName: '__ZNSt3__15tupleIJRKNS_9allocatorIZNK3icp3$_0clEvEUlmdE_EEEEC1B8ue170006INS_4_AndELi0EEES7_', symObjAddr: 0x1C44, symBinAddr: 0x10001B5F0, symSize: 0x34 }
  - { offsetInCU: 0x463E8, offset: 0x98EDB, size: 0x8, addend: 0x0, symName: '__ZNSt3__15tupleIJRKNS_9allocatorIZNK3icp3$_0clEvEUlmdE_EEEEC2B8ue170006INS_4_AndELi0EEES7_', symObjAddr: 0x1C78, symBinAddr: 0x10001B624, symSize: 0x34 }
  - { offsetInCU: 0x4642E, offset: 0x98F21, size: 0x8, addend: 0x0, symName: '__ZNSt3__112__tuple_implINS_15__tuple_indicesIJLm0EEEEJRKNS_9allocatorIZNK3icp3$_0clEvEUlmdE_EEEEC1B8ue170006IJLm0EEJS9_EJEJEJS9_EEENS1_IJXspT_EEEENS_13__tuple_typesIJDpT0_EEENS1_IJXspT1_EEEENSD_IJDpT2_EEEDpOT3_', symObjAddr: 0x1CAC, symBinAddr: 0x10001B658, symSize: 0x34 }
  - { offsetInCU: 0x464BD, offset: 0x98FB0, size: 0x8, addend: 0x0, symName: '__ZNSt3__112__tuple_implINS_15__tuple_indicesIJLm0EEEEJRKNS_9allocatorIZNK3icp3$_0clEvEUlmdE_EEEEC2B8ue170006IJLm0EEJS9_EJEJEJS9_EEENS1_IJXspT_EEEENS_13__tuple_typesIJDpT0_EEENS1_IJXspT1_EEEENSD_IJDpT2_EEEDpOT3_', symObjAddr: 0x1CE0, symBinAddr: 0x10001B68C, symSize: 0x34 }
  - { offsetInCU: 0x4654C, offset: 0x9903F, size: 0x8, addend: 0x0, symName: '__ZNSt3__112__tuple_leafILm0ERKNS_9allocatorIZNK3icp3$_0clEvEUlmdE_EELb0EEC2B8ue170006IS7_vEEOT_', symObjAddr: 0x1D14, symBinAddr: 0x10001B6C0, symSize: 0x20 }
  - { offsetInCU: 0x4658D, offset: 0x99080, size: 0x8, addend: 0x0, symName: '__ZNSt3__117__compressed_pairIZNK3icp3$_0clEvEUlmdE_NS_9allocatorIS3_EEEC2B8ue170006IJRKS3_EJRKS5_EEENS_21piecewise_construct_tENS_5tupleIJDpT_EEENSD_IJDpT0_EEE', symObjAddr: 0x1D34, symBinAddr: 0x10001B6E0, symSize: 0x54 }
  - { offsetInCU: 0x465F5, offset: 0x990E8, size: 0x8, addend: 0x0, symName: '__ZNSt3__122__compressed_pair_elemINS_9allocatorIZNK3icp3$_0clEvEUlmdE_EELi1ELb1EEC2B8ue170006IJRKS5_EJLm0EEEENS_21piecewise_construct_tENS_5tupleIJDpT_EEENS_15__tuple_indicesIJXspT0_EEEE', symObjAddr: 0x1D88, symBinAddr: 0x10001B734, symSize: 0x38 }
  - { offsetInCU: 0x46656, offset: 0x99149, size: 0x8, addend: 0x0, symName: '__ZNSt3__112__tuple_leafILm0ERKNS_9allocatorIZNK3icp3$_0clEvEUlmdE_EELb0EE3getB8ue170006Ev', symObjAddr: 0x1DE4, symBinAddr: 0x10001B790, symSize: 0x18 }
  - { offsetInCU: 0x4667A, offset: 0x9916D, size: 0x8, addend: 0x0, symName: '__ZNSt3__110__function12__alloc_funcIZNK3icp3$_0clEvEUlmdE_NS_9allocatorIS4_EEFNS_10unique_ptrINS2_3ICPENS_14default_deleteIS8_EEEEmdEE7destroyB8ue170006Ev', symObjAddr: 0x1DFC, symBinAddr: 0x10001B7A8, symSize: 0x10 }
  - { offsetInCU: 0x4669E, offset: 0x99191, size: 0x8, addend: 0x0, symName: '__ZNSt3__110__function12__alloc_funcIZNK3icp3$_0clEvEUlmdE_NS_9allocatorIS4_EEFNS_10unique_ptrINS2_3ICPENS_14default_deleteIS8_EEEEmdEEclB8ue170006EOmOd', symObjAddr: 0x1E0C, symBinAddr: 0x10001B7B8, symSize: 0x44 }
  - { offsetInCU: 0x466DE, offset: 0x991D1, size: 0x8, addend: 0x0, symName: '__ZNSt3__128__invoke_void_return_wrapperINS_10unique_ptrIN3icp3ICPENS_14default_deleteIS3_EEEELb0EE6__callB8ue170006IJRZNKS2_3$_0clEvEUlmdE_mdEEES6_DpOT_', symObjAddr: 0x1E50, symBinAddr: 0x10001B7FC, symSize: 0x3C }
  - { offsetInCU: 0x46734, offset: 0x99227, size: 0x8, addend: 0x0, symName: '__ZNSt3__117__compressed_pairIZNK3icp3$_0clEvEUlmdE_NS_9allocatorIS3_EEE5firstB8ue170006Ev', symObjAddr: 0x1E8C, symBinAddr: 0x10001B838, symSize: 0x24 }
  - { offsetInCU: 0x46758, offset: 0x9924B, size: 0x8, addend: 0x0, symName: '__ZZNK3icp3$_0clEvENKUlmdE_clEmd', symObjAddr: 0x1EF4, symBinAddr: 0x10001B8A0, symSize: 0x50 }
  - { offsetInCU: 0x4679C, offset: 0x9928F, size: 0x8, addend: 0x0, symName: __ZNSt3__110unique_ptrIN3icp3ICPENS_14default_deleteIS2_EEEC1B8ue170006INS1_11PointToLineENS3_IS7_EEvvEEONS0_IT_T0_EE, symObjAddr: 0x1FB4, symBinAddr: 0x10001B960, symSize: 0x34 }
  - { offsetInCU: 0x467E6, offset: 0x992D9, size: 0x8, addend: 0x0, symName: __ZNSt3__110unique_ptrIN3icp11PointToLineENS_14default_deleteIS2_EEED1B8ue170006Ev, symObjAddr: 0x1FE8, symBinAddr: 0x10001B994, symSize: 0x2C }
  - { offsetInCU: 0x4680E, offset: 0x99301, size: 0x8, addend: 0x0, symName: __ZN3icp11PointToLineC1Ed, symObjAddr: 0x2014, symBinAddr: 0x10001B9C0, symSize: 0x34 }
  - { offsetInCU: 0x46844, offset: 0x99337, size: 0x8, addend: 0x0, symName: __ZNSt3__110unique_ptrIN3icp11PointToLineENS_14default_deleteIS2_EEEC1B8ue170006ILb1EvEEPS2_, symObjAddr: 0x2048, symBinAddr: 0x10001B9F4, symSize: 0x34 }
  - { offsetInCU: 0x46885, offset: 0x99378, size: 0x8, addend: 0x0, symName: __ZN3icp11PointToLineC2Ed, symObjAddr: 0x207C, symBinAddr: 0x10001BA28, symSize: 0x58 }
  - { offsetInCU: 0x468BB, offset: 0x993AE, size: 0x8, addend: 0x0, symName: __ZN3icp11PointToLineD1Ev, symObjAddr: 0x2100, symBinAddr: 0x10001BA80, symSize: 0x2C }
  - { offsetInCU: 0x468E3, offset: 0x993D6, size: 0x8, addend: 0x0, symName: __ZN3icp11PointToLineD0Ev, symObjAddr: 0x212C, symBinAddr: 0x10001BAAC, symSize: 0x30 }
  - { offsetInCU: 0x4690B, offset: 0x993FE, size: 0x8, addend: 0x0, symName: __ZN3icp11PointToLine7iterateEv, symObjAddr: 0x215C, symBinAddr: 0x10001BADC, symSize: 0x414 }
  - { offsetInCU: 0x469FE, offset: 0x994F1, size: 0x8, addend: 0x0, symName: __ZN3icp11PointToLineD2Ev, symObjAddr: 0x26C0, symBinAddr: 0x10001BEF0, symSize: 0x38 }
  - { offsetInCU: 0x46A26, offset: 0x99519, size: 0x8, addend: 0x0, symName: __ZN3icp3ICPD2Ev, symObjAddr: 0x2724, symBinAddr: 0x10001BF28, symSize: 0x64 }
  - { offsetInCU: 0x46A4E, offset: 0x99541, size: 0x8, addend: 0x0, symName: __ZNSt3__16vectorIdNS_9allocatorIdEEED1B8ue170006Ev, symObjAddr: 0x2C54, symBinAddr: 0x10001BF8C, symSize: 0x2C }
  - { offsetInCU: 0x46A76, offset: 0x99569, size: 0x8, addend: 0x0, symName: __ZNSt3__16vectorIdNS_9allocatorIdEEED2B8ue170006Ev, symObjAddr: 0x2CAC, symBinAddr: 0x10001BFB8, symSize: 0x44 }
  - { offsetInCU: 0x46A9E, offset: 0x99591, size: 0x8, addend: 0x0, symName: __ZNSt3__16vectorIdNS_9allocatorIdEEEixB8ue170006Em, symObjAddr: 0x3658, symBinAddr: 0x10001BFFC, symSize: 0x24 }
  - { offsetInCU: 0x46AD4, offset: 0x995C7, size: 0x8, addend: 0x0, symName: __ZNSt3__16vectorIN5Eigen6MatrixIdLi2ELi1ELi0ELi2ELi1EEENS_9allocatorIS3_EEEixB8ue170006Em, symObjAddr: 0x367C, symBinAddr: 0x10001C020, symSize: 0x24 }
  - { offsetInCU: 0x46B0A, offset: 0x995FD, size: 0x8, addend: 0x0, symName: __ZNSt3__16vectorImNS_9allocatorImEEEixB8ue170006Em, symObjAddr: 0x3744, symBinAddr: 0x10001C044, symSize: 0x24 }
  - { offsetInCU: 0x46B40, offset: 0x99633, size: 0x8, addend: 0x0, symName: __ZNK5Eigen10MatrixBaseINS_6MatrixIdLi2ELi1ELi0ELi2ELi1EEEEmiINS_7ProductINS1_IdLi2ELi2ELi0ELi2ELi2EEES2_Li0EEEEEKNS_13CwiseBinaryOpINS_8internal20scalar_difference_opIdNS9_6traitsIT_E6ScalarEEEKS2_KSC_EERKNS0_ISC_EE, symObjAddr: 0x3768, symBinAddr: 0x10001C068, symSize: 0x60 }
  - { offsetInCU: 0x46B7B, offset: 0x9966E, size: 0x8, addend: 0x0, symName: __ZNK5Eigen10MatrixBaseINS_6MatrixIdLi2ELi2ELi0ELi2ELi2EEEEmlINS1_IdLi2ELi1ELi0ELi2ELi1EEEEEKNS_7ProductIS2_T_Li0EEERKNS0_IS7_EE, symObjAddr: 0x37C8, symBinAddr: 0x10001C0C8, symSize: 0x4C }
  - { offsetInCU: 0x46BBA, offset: 0x996AD, size: 0x8, addend: 0x0, symName: __ZN5Eigen6MatrixIdLi2ELi1ELi0ELi2ELi1EEaSINS_13CwiseBinaryOpINS_8internal20scalar_difference_opIddEEKS1_KNS_7ProductINS0_IdLi2ELi2ELi0ELi2ELi2EEES1_Li0EEEEEEERS1_RKNS_9DenseBaseIT_EE, symObjAddr: 0x3814, symBinAddr: 0x10001C114, symSize: 0x2C }
  - { offsetInCU: 0x46BF5, offset: 0x996E8, size: 0x8, addend: 0x0, symName: __ZNK5Eigen10MatrixBaseINS_6MatrixIdLi2ELi1ELi0ELi2ELi1EEEEmlINS_9TransposeIS2_EEEEKNS_7ProductIS2_T_Li0EEERKNS0_IS8_EE, symObjAddr: 0x386C, symBinAddr: 0x10001C140, symSize: 0x4C }
  - { offsetInCU: 0x46C34, offset: 0x99727, size: 0x8, addend: 0x0, symName: __ZN5Eigen9DenseBaseINS_6MatrixIdLi2ELi1ELi0ELi2ELi1EEEE9transposeEv, symObjAddr: 0x38B8, symBinAddr: 0x10001C18C, symSize: 0x34 }
  - { offsetInCU: 0x46C5A, offset: 0x9974D, size: 0x8, addend: 0x0, symName: __ZN5Eigen10MatrixBaseINS_6MatrixIdLi2ELi2ELi0ELi2ELi2EEEEpLINS_7ProductINS1_IdLi2ELi1ELi0ELi2ELi1EEENS_9TransposeIS6_EELi0EEEEERS2_RKNS0_IT_EE, symObjAddr: 0x38EC, symBinAddr: 0x10001C1C0, symSize: 0x64 }
  - { offsetInCU: 0x46C97, offset: 0x9978A, size: 0x8, addend: 0x0, symName: __ZNK5Eigen10MatrixBaseINS_6MatrixIdLi2ELi2ELi0ELi2ELi2EEEE9jacobiSvdEj, symObjAddr: 0x3950, symBinAddr: 0x10001C224, symSize: 0x48 }
  - { offsetInCU: 0x46CCE, offset: 0x997C1, size: 0x8, addend: 0x0, symName: __ZNK5Eigen7SVDBaseINS_9JacobiSVDINS_6MatrixIdLi2ELi2ELi0ELi2ELi2EEELi2EEEE8computeUEv, symObjAddr: 0x3998, symBinAddr: 0x10001C26C, symSize: 0x44 }
  - { offsetInCU: 0x46CF2, offset: 0x997E5, size: 0x8, addend: 0x0, symName: __ZNK5Eigen7SVDBaseINS_9JacobiSVDINS_6MatrixIdLi2ELi2ELi0ELi2ELi2EEELi2EEEE7matrixUEv, symObjAddr: 0x39DC, symBinAddr: 0x10001C2B0, symSize: 0x80 }
  - { offsetInCU: 0x46D16, offset: 0x99809, size: 0x8, addend: 0x0, symName: __ZN5Eigen6MatrixIdLi2ELi2ELi0ELi2ELi2EEC1ERKS1_, symObjAddr: 0x3A5C, symBinAddr: 0x10001C330, symSize: 0x34 }
  - { offsetInCU: 0x46D4D, offset: 0x99840, size: 0x8, addend: 0x0, symName: __ZNK5Eigen7SVDBaseINS_9JacobiSVDINS_6MatrixIdLi2ELi2ELi0ELi2ELi2EEELi2EEEE7matrixVEv, symObjAddr: 0x3A90, symBinAddr: 0x10001C364, symSize: 0x84 }
  - { offsetInCU: 0x46D71, offset: 0x99864, size: 0x8, addend: 0x0, symName: __ZNK5Eigen10MatrixBaseINS_6MatrixIdLi2ELi2ELi0ELi2ELi2EEEEmlINS_9TransposeIKS2_EEEEKNS_7ProductIS2_T_Li0EEERKNS0_IS9_EE, symObjAddr: 0x3B14, symBinAddr: 0x10001C3E8, symSize: 0x4C }
  - { offsetInCU: 0x46DB0, offset: 0x998A3, size: 0x8, addend: 0x0, symName: __ZNK5Eigen9DenseBaseINS_6MatrixIdLi2ELi2ELi0ELi2ELi2EEEE9transposeEv, symObjAddr: 0x3B60, symBinAddr: 0x10001C434, symSize: 0x34 }
  - { offsetInCU: 0x46DD6, offset: 0x998C9, size: 0x8, addend: 0x0, symName: __ZN5Eigen6MatrixIdLi2ELi2ELi0ELi2ELi2EEaSINS_7ProductIS1_NS_9TransposeIKS1_EELi0EEEEERS1_RKNS_9DenseBaseIT_EE, symObjAddr: 0x3B94, symBinAddr: 0x10001C468, symSize: 0x2C }
  - { offsetInCU: 0x46E11, offset: 0x99904, size: 0x8, addend: 0x0, symName: __ZN5Eigen9JacobiSVDINS_6MatrixIdLi2ELi2ELi0ELi2ELi2EEELi2EED1Ev, symObjAddr: 0x3BC0, symBinAddr: 0x10001C494, symSize: 0x2C }
  - { offsetInCU: 0x46E3C, offset: 0x9992F, size: 0x8, addend: 0x0, symName: __ZNK5Eigen9EigenBaseINS_7ProductINS_6MatrixIdLi2ELi2ELi0ELi2ELi2EEENS2_IdLi2ELi1ELi0ELi2ELi1EEELi0EEEE7derivedEv, symObjAddr: 0x4000, symBinAddr: 0x10001C4C0, symSize: 0x14 }
  - { offsetInCU: 0x46E60, offset: 0x99953, size: 0x8, addend: 0x0, symName: __ZN5Eigen8internal20scalar_difference_opIddEC1Ev, symObjAddr: 0x4014, symBinAddr: 0x10001C4D4, symSize: 0x2C }
  - { offsetInCU: 0x46E88, offset: 0x9997B, size: 0x8, addend: 0x0, symName: __ZN5Eigen13CwiseBinaryOpINS_8internal20scalar_difference_opIddEEKNS_6MatrixIdLi2ELi1ELi0ELi2ELi1EEEKNS_7ProductINS4_IdLi2ELi2ELi0ELi2ELi2EEES5_Li0EEEEC1ERS6_RSA_RKS3_, symObjAddr: 0x4040, symBinAddr: 0x10001C500, symSize: 0x44 }
  - { offsetInCU: 0x46EDA, offset: 0x999CD, size: 0x8, addend: 0x0, symName: __ZN5Eigen8internal20scalar_difference_opIddEC2Ev, symObjAddr: 0x4084, symBinAddr: 0x10001C544, symSize: 0x14 }
  - { offsetInCU: 0x46F02, offset: 0x999F5, size: 0x8, addend: 0x0, symName: __ZN5Eigen13CwiseBinaryOpINS_8internal20scalar_difference_opIddEEKNS_6MatrixIdLi2ELi1ELi0ELi2ELi1EEEKNS_7ProductINS4_IdLi2ELi2ELi0ELi2ELi2EEES5_Li0EEEEC2ERS6_RSA_RKS3_, symObjAddr: 0x4098, symBinAddr: 0x10001C558, symSize: 0xF4 }
  - { offsetInCU: 0x46F59, offset: 0x99A4C, size: 0x8, addend: 0x0, symName: __ZN5Eigen17CwiseBinaryOpImplINS_8internal20scalar_difference_opIddEEKNS_6MatrixIdLi2ELi1ELi0ELi2ELi1EEEKNS_7ProductINS4_IdLi2ELi2ELi0ELi2ELi2EEES5_Li0EEENS_5DenseEEC2Ev, symObjAddr: 0x418C, symBinAddr: 0x10001C64C, symSize: 0x2C }
  - { offsetInCU: 0x46F83, offset: 0x99A76, size: 0x8, addend: 0x0, symName: __ZN5Eigen8internal20scalar_difference_opIddEC1ERKS2_, symObjAddr: 0x41B8, symBinAddr: 0x10001C678, symSize: 0x34 }
  - { offsetInCU: 0x46FB6, offset: 0x99AA9, size: 0x8, addend: 0x0, symName: __ZNK5Eigen7ProductINS_6MatrixIdLi2ELi2ELi0ELi2ELi2EEENS1_IdLi2ELi1ELi0ELi2ELi1EEELi0EE4rowsEv, symObjAddr: 0x41EC, symBinAddr: 0x10001C6AC, symSize: 0x28 }
  - { offsetInCU: 0x46FDA, offset: 0x99ACD, size: 0x8, addend: 0x0, symName: __ZNK5Eigen7ProductINS_6MatrixIdLi2ELi2ELi0ELi2ELi2EEENS1_IdLi2ELi1ELi0ELi2ELi1EEELi0EE4colsEv, symObjAddr: 0x4214, symBinAddr: 0x10001C6D4, symSize: 0x28 }
  - { offsetInCU: 0x46FFE, offset: 0x99AF1, size: 0x8, addend: 0x0, symName: __ZN5Eigen10MatrixBaseINS_13CwiseBinaryOpINS_8internal20scalar_difference_opIddEEKNS_6MatrixIdLi2ELi1ELi0ELi2ELi1EEEKNS_7ProductINS5_IdLi2ELi2ELi0ELi2ELi2EEES6_Li0EEEEEEC2Ev, symObjAddr: 0x423C, symBinAddr: 0x10001C6FC, symSize: 0x2C }
  - { offsetInCU: 0x47026, offset: 0x99B19, size: 0x8, addend: 0x0, symName: __ZN5Eigen9DenseBaseINS_13CwiseBinaryOpINS_8internal20scalar_difference_opIddEEKNS_6MatrixIdLi2ELi1ELi0ELi2ELi1EEEKNS_7ProductINS5_IdLi2ELi2ELi0ELi2ELi2EEES6_Li0EEEEEEC2Ev, symObjAddr: 0x4268, symBinAddr: 0x10001C728, symSize: 0x14 }
  - { offsetInCU: 0x4704E, offset: 0x99B41, size: 0x8, addend: 0x0, symName: __ZN5Eigen8internal20scalar_difference_opIddEC2ERKS2_, symObjAddr: 0x427C, symBinAddr: 0x10001C73C, symSize: 0x18 }
  - { offsetInCU: 0x47081, offset: 0x99B74, size: 0x8, addend: 0x0, symName: __ZN5Eigen7ProductINS_6MatrixIdLi2ELi2ELi0ELi2ELi2EEENS1_IdLi2ELi1ELi0ELi2ELi1EEELi0EEC1ERKS2_RKS3_, symObjAddr: 0x42D0, symBinAddr: 0x10001C754, symSize: 0x3C }
  - { offsetInCU: 0x470C5, offset: 0x99BB8, size: 0x8, addend: 0x0, symName: __ZN5Eigen7ProductINS_6MatrixIdLi2ELi2ELi0ELi2ELi2EEENS1_IdLi2ELi1ELi0ELi2ELi1EEELi0EEC2ERKS2_RKS3_, symObjAddr: 0x430C, symBinAddr: 0x10001C790, symSize: 0xC0 }
  - { offsetInCU: 0x4710E, offset: 0x99C01, size: 0x8, addend: 0x0, symName: __ZN5Eigen11ProductImplINS_6MatrixIdLi2ELi2ELi0ELi2ELi2EEENS1_IdLi2ELi1ELi0ELi2ELi1EEELi0ENS_5DenseEEC2Ev, symObjAddr: 0x43CC, symBinAddr: 0x10001C850, symSize: 0x2C }
  - { offsetInCU: 0x4713D, offset: 0x99C30, size: 0x8, addend: 0x0, symName: __ZN5Eigen8internal18dense_product_baseINS_6MatrixIdLi2ELi2ELi0ELi2ELi2EEENS2_IdLi2ELi1ELi0ELi2ELi1EEELi0ELi3EEC2Ev, symObjAddr: 0x4418, symBinAddr: 0x10001C87C, symSize: 0x2C }
  - { offsetInCU: 0x47167, offset: 0x99C5A, size: 0x8, addend: 0x0, symName: __ZN5Eigen10MatrixBaseINS_7ProductINS_6MatrixIdLi2ELi2ELi0ELi2ELi2EEENS2_IdLi2ELi1ELi0ELi2ELi1EEELi0EEEEC2Ev, symObjAddr: 0x4444, symBinAddr: 0x10001C8A8, symSize: 0x2C }
  - { offsetInCU: 0x4718F, offset: 0x99C82, size: 0x8, addend: 0x0, symName: __ZN5Eigen9DenseBaseINS_7ProductINS_6MatrixIdLi2ELi2ELi0ELi2ELi2EEENS2_IdLi2ELi1ELi0ELi2ELi1EEELi0EEEEC2Ev, symObjAddr: 0x4470, symBinAddr: 0x10001C8D4, symSize: 0x14 }
  - { offsetInCU: 0x471B7, offset: 0x99CAA, size: 0x8, addend: 0x0, symName: __ZN5Eigen15PlainObjectBaseINS_6MatrixIdLi2ELi1ELi0ELi2ELi1EEEE4_setINS_13CwiseBinaryOpINS_8internal20scalar_difference_opIddEEKS2_KNS_7ProductINS1_IdLi2ELi2ELi0ELi2ELi2EEES2_Li0EEEEEEERS2_RKNS_9DenseBaseIT_EE, symObjAddr: 0x448C, symBinAddr: 0x10001C8E8, symSize: 0x4C }
  - { offsetInCU: 0x471F3, offset: 0x99CE6, size: 0x8, addend: 0x0, symName: __ZNK5Eigen9EigenBaseINS_13CwiseBinaryOpINS_8internal20scalar_difference_opIddEEKNS_6MatrixIdLi2ELi1ELi0ELi2ELi1EEEKNS_7ProductINS5_IdLi2ELi2ELi0ELi2ELi2EEES6_Li0EEEEEE7derivedEv, symObjAddr: 0x4528, symBinAddr: 0x10001C984, symSize: 0x14 }
  - { offsetInCU: 0x47217, offset: 0x99D0A, size: 0x8, addend: 0x0, symName: __ZN5Eigen6MatrixIdLi2ELi1ELi0ELi2ELi1EEC1INS_13CwiseBinaryOpINS_8internal20scalar_difference_opIddEEKS1_KNS_7ProductINS0_IdLi2ELi2ELi0ELi2ELi2EEES1_Li0EEEEEEERKT_, symObjAddr: 0x45B0, symBinAddr: 0x10001C9E0, symSize: 0x34 }
  - { offsetInCU: 0x47257, offset: 0x99D4A, size: 0x8, addend: 0x0, symName: __ZN5Eigen6MatrixIdLi2ELi1ELi0ELi2ELi1EEC2INS_13CwiseBinaryOpINS_8internal20scalar_difference_opIddEEKS1_KNS_7ProductINS0_IdLi2ELi2ELi0ELi2ELi2EEES1_Li0EEEEEEERKT_, symObjAddr: 0x4620, symBinAddr: 0x10001CA14, symSize: 0x40 }
  - { offsetInCU: 0x47297, offset: 0x99D8A, size: 0x8, addend: 0x0, symName: __ZN5Eigen15PlainObjectBaseINS_6MatrixIdLi2ELi1ELi0ELi2ELi1EEEE6_init1INS_13CwiseBinaryOpINS_8internal20scalar_difference_opIddEEKS2_KNS_7ProductINS1_IdLi2ELi2ELi0ELi2ELi2EEES2_Li0EEEEESE_EEvRKNS_9DenseBaseIT0_EE, symObjAddr: 0x4698, symBinAddr: 0x10001CA54, symSize: 0x2C }
  - { offsetInCU: 0x472DC, offset: 0x99DCF, size: 0x8, addend: 0x0, symName: __ZN5Eigen15PlainObjectBaseINS_6MatrixIdLi2ELi1ELi0ELi2ELi1EEEE12_set_noaliasINS_13CwiseBinaryOpINS_8internal20scalar_difference_opIddEEKS2_KNS_7ProductINS1_IdLi2ELi2ELi0ELi2ELi2EEES2_Li0EEEEEEERS2_RKNS_9DenseBaseIT_EE, symObjAddr: 0x480C, symBinAddr: 0x10001CA80, symSize: 0x60 }
  - { offsetInCU: 0x47318, offset: 0x99E0B, size: 0x8, addend: 0x0, symName: __ZN5Eigen8internal30assignment_from_xpr_op_productINS_6MatrixIdLi2ELi1ELi0ELi2ELi1EEES3_NS_7ProductINS2_IdLi2ELi2ELi0ELi2ELi2EEES3_Li0EEENS0_9assign_opIddEENS0_13sub_assign_opIddEEE3runINS_13CwiseBinaryOpINS0_20scalar_difference_opIddEEKS3_KS6_EES8_EEvRS3_RKT_RKT0_, symObjAddr: 0x48A8, symBinAddr: 0x10001CB1C, symSize: 0x84 }
  - { offsetInCU: 0x47364, offset: 0x99E57, size: 0x8, addend: 0x0, symName: __ZNK5Eigen13CwiseBinaryOpINS_8internal20scalar_difference_opIddEEKNS_6MatrixIdLi2ELi1ELi0ELi2ELi1EEEKNS_7ProductINS4_IdLi2ELi2ELi0ELi2ELi2EEES5_Li0EEEE3lhsEv, symObjAddr: 0x492C, symBinAddr: 0x10001CBA0, symSize: 0x18 }
  - { offsetInCU: 0x47388, offset: 0x99E7B, size: 0x8, addend: 0x0, symName: __ZNK5Eigen13CwiseBinaryOpINS_8internal20scalar_difference_opIddEEKNS_6MatrixIdLi2ELi1ELi0ELi2ELi1EEEKNS_7ProductINS4_IdLi2ELi2ELi0ELi2ELi2EEES5_Li0EEEE3rhsEv, symObjAddr: 0x4980, symBinAddr: 0x10001CBF4, symSize: 0x18 }
  - { offsetInCU: 0x473B6, offset: 0x99EA9, size: 0x8, addend: 0x0, symName: __ZN5Eigen8internal10AssignmentINS_6MatrixIdLi2ELi1ELi0ELi2ELi1EEENS_7ProductINS2_IdLi2ELi2ELi0ELi2ELi2EEES3_Li0EEENS0_13sub_assign_opIddEENS0_11Dense2DenseEvE3runERS3_RKS6_RKS8_, symObjAddr: 0x49C4, symBinAddr: 0x10001CC0C, symSize: 0xE0 }
  - { offsetInCU: 0x473F0, offset: 0x99EE3, size: 0x8, addend: 0x0, symName: __ZN5Eigen8internal20generic_product_implINS_6MatrixIdLi2ELi2ELi0ELi2ELi2EEENS2_IdLi2ELi1ELi0ELi2ELi1EEENS_10DenseShapeES5_Li3EE5subToIS4_EEvRT_RKS3_RKS4_, symObjAddr: 0x4AA4, symBinAddr: 0x10001CCEC, symSize: 0x64 }
  - { offsetInCU: 0x4743A, offset: 0x99F2D, size: 0x8, addend: 0x0, symName: __ZNK5Eigen7ProductINS_6MatrixIdLi2ELi2ELi0ELi2ELi2EEENS1_IdLi2ELi1ELi0ELi2ELi1EEELi0EE3lhsEv, symObjAddr: 0x4B08, symBinAddr: 0x10001CD50, symSize: 0x18 }
  - { offsetInCU: 0x4745E, offset: 0x99F51, size: 0x8, addend: 0x0, symName: __ZNK5Eigen7ProductINS_6MatrixIdLi2ELi2ELi0ELi2ELi2EEENS1_IdLi2ELi1ELi0ELi2ELi1EEELi0EE3rhsEv, symObjAddr: 0x4B20, symBinAddr: 0x10001CD68, symSize: 0x18 }
  - { offsetInCU: 0x47482, offset: 0x99F75, size: 0x8, addend: 0x0, symName: __ZNK5Eigen10MatrixBaseINS_6MatrixIdLi2ELi2ELi0ELi2ELi2EEEE11lazyProductINS1_IdLi2ELi1ELi0ELi2ELi1EEEEEKNS_7ProductIS2_T_Li1EEERKNS0_IS7_EE, symObjAddr: 0x4B74, symBinAddr: 0x10001CDBC, symSize: 0x4C }
  - { offsetInCU: 0x474C1, offset: 0x99FB4, size: 0x8, addend: 0x0, symName: __ZN5Eigen8internal10AssignmentINS_6MatrixIdLi2ELi1ELi0ELi2ELi1EEENS_7ProductINS2_IdLi2ELi2ELi0ELi2ELi2EEES3_Li1EEENS0_13sub_assign_opIddEENS0_11Dense2DenseEvE3runERS3_RKS6_RKS8_, symObjAddr: 0x4BC0, symBinAddr: 0x10001CE08, symSize: 0x40 }
  - { offsetInCU: 0x47502, offset: 0x99FF5, size: 0x8, addend: 0x0, symName: __ZN5Eigen8internal9evaluatorINS_7ProductINS_6MatrixIdLi2ELi2ELi0ELi2ELi2EEENS3_IdLi2ELi1ELi0ELi2ELi1EEELi1EEEEC1ERKS6_, symObjAddr: 0x4CF4, symBinAddr: 0x10001CF3C, symSize: 0x34 }
  - { offsetInCU: 0x47538, offset: 0x9A02B, size: 0x8, addend: 0x0, symName: __ZN5Eigen8internal31generic_dense_assignment_kernelINS0_9evaluatorINS_6MatrixIdLi2ELi1ELi0ELi2ELi1EEEEENS2_INS_7ProductINS3_IdLi2ELi2ELi0ELi2ELi2EEES4_Li1EEEEENS0_13sub_assign_opIddEELi0EEC1ERS5_RKS9_RKSB_RS4_, symObjAddr: 0x4DF0, symBinAddr: 0x10001D024, symSize: 0x4C }
  - { offsetInCU: 0x4759C, offset: 0x9A08F, size: 0x8, addend: 0x0, symName: __ZN5Eigen8internal21dense_assignment_loopINS0_31generic_dense_assignment_kernelINS0_9evaluatorINS_6MatrixIdLi2ELi1ELi0ELi2ELi1EEEEENS3_INS_7ProductINS4_IdLi2ELi2ELi0ELi2ELi2EEES5_Li1EEEEENS0_13sub_assign_opIddEELi0EEELi2ELi2EE3runERSD_, symObjAddr: 0x4E3C, symBinAddr: 0x10001D070, symSize: 0x24 }
  - { offsetInCU: 0x475BF, offset: 0x9A0B2, size: 0x8, addend: 0x0, symName: __ZN5Eigen8internal9evaluatorINS_7ProductINS_6MatrixIdLi2ELi2ELi0ELi2ELi2EEENS3_IdLi2ELi1ELi0ELi2ELi1EEELi1EEEED1Ev, symObjAddr: 0x4E60, symBinAddr: 0x10001D094, symSize: 0x2C }
  - { offsetInCU: 0x475E9, offset: 0x9A0DC, size: 0x8, addend: 0x0, symName: __ZN5Eigen8internal9evaluatorINS_7ProductINS_6MatrixIdLi2ELi2ELi0ELi2ELi2EEENS3_IdLi2ELi1ELi0ELi2ELi1EEELi1EEEEC2ERKS6_, symObjAddr: 0x4E8C, symBinAddr: 0x10001D0C0, symSize: 0x34 }
  - { offsetInCU: 0x4761F, offset: 0x9A112, size: 0x8, addend: 0x0, symName: __ZN5Eigen8internal17product_evaluatorINS_7ProductINS_6MatrixIdLi2ELi2ELi0ELi2ELi2EEENS3_IdLi2ELi1ELi0ELi2ELi1EEELi1EEELi3ENS_10DenseShapeES7_ddEC2ERKS6_, symObjAddr: 0x4EC0, symBinAddr: 0x10001D0F4, symSize: 0x110 }
  - { offsetInCU: 0x47656, offset: 0x9A149, size: 0x8, addend: 0x0, symName: __ZN5Eigen8internal14evaluator_baseINS_7ProductINS_6MatrixIdLi2ELi2ELi0ELi2ELi2EEENS3_IdLi2ELi1ELi0ELi2ELi1EEELi1EEEEC2Ev, symObjAddr: 0x4FD0, symBinAddr: 0x10001D204, symSize: 0x14 }
  - { offsetInCU: 0x4767E, offset: 0x9A171, size: 0x8, addend: 0x0, symName: __ZNK5Eigen7ProductINS_6MatrixIdLi2ELi2ELi0ELi2ELi2EEENS1_IdLi2ELi1ELi0ELi2ELi1EEELi1EE3lhsEv, symObjAddr: 0x4FE4, symBinAddr: 0x10001D218, symSize: 0x18 }
  - { offsetInCU: 0x476A2, offset: 0x9A195, size: 0x8, addend: 0x0, symName: __ZNK5Eigen7ProductINS_6MatrixIdLi2ELi2ELi0ELi2ELi2EEENS1_IdLi2ELi1ELi0ELi2ELi1EEELi1EE3rhsEv, symObjAddr: 0x4FFC, symBinAddr: 0x10001D230, symSize: 0x18 }
  - { offsetInCU: 0x476C6, offset: 0x9A1B9, size: 0x8, addend: 0x0, symName: __ZN5Eigen8internal14evaluator_baseINS_7ProductINS_6MatrixIdLi2ELi2ELi0ELi2ELi2EEENS3_IdLi2ELi1ELi0ELi2ELi1EEELi1EEEED2Ev, symObjAddr: 0x5074, symBinAddr: 0x10001D248, symSize: 0x14 }
  - { offsetInCU: 0x476EE, offset: 0x9A1E1, size: 0x8, addend: 0x0, symName: __ZNK5Eigen7ProductINS_6MatrixIdLi2ELi2ELi0ELi2ELi2EEENS1_IdLi2ELi1ELi0ELi2ELi1EEELi1EE4rowsEv, symObjAddr: 0x5318, symBinAddr: 0x10001D25C, symSize: 0x28 }
  - { offsetInCU: 0x47712, offset: 0x9A205, size: 0x8, addend: 0x0, symName: __ZNK5Eigen7ProductINS_6MatrixIdLi2ELi2ELi0ELi2ELi2EEENS1_IdLi2ELi1ELi0ELi2ELi1EEELi1EE4colsEv, symObjAddr: 0x5340, symBinAddr: 0x10001D284, symSize: 0x28 }
  - { offsetInCU: 0x47736, offset: 0x9A229, size: 0x8, addend: 0x0, symName: __ZN5Eigen8internal31generic_dense_assignment_kernelINS0_9evaluatorINS_6MatrixIdLi2ELi1ELi0ELi2ELi1EEEEENS2_INS_7ProductINS3_IdLi2ELi2ELi0ELi2ELi2EEES4_Li1EEEEENS0_13sub_assign_opIddEELi0EEC2ERS5_RKS9_RKSB_RS4_, symObjAddr: 0x5368, symBinAddr: 0x10001D2AC, symSize: 0x44 }
  - { offsetInCU: 0x4779A, offset: 0x9A28D, size: 0x8, addend: 0x0, symName: __ZN5Eigen8internal47copy_using_evaluator_innervec_CompleteUnrollingINS0_31generic_dense_assignment_kernelINS0_9evaluatorINS_6MatrixIdLi2ELi1ELi0ELi2ELi1EEEEENS3_INS_7ProductINS4_IdLi2ELi2ELi0ELi2ELi2EEES5_Li1EEEEENS0_13sub_assign_opIddEELi0EEELi0ELi2EE3runERSD_, symObjAddr: 0x53AC, symBinAddr: 0x10001D2F0, symSize: 0x34 }
  - { offsetInCU: 0x477BD, offset: 0x9A2B0, size: 0x8, addend: 0x0, symName: __ZN5Eigen8internal31generic_dense_assignment_kernelINS0_9evaluatorINS_6MatrixIdLi2ELi1ELi0ELi2ELi1EEEEENS2_INS_7ProductINS3_IdLi2ELi2ELi0ELi2ELi2EEES4_Li1EEEEENS0_13sub_assign_opIddEELi0EE24assignPacketByOuterInnerILi16ELi16E19__simd128_float64_tEEvll, symObjAddr: 0x53E0, symBinAddr: 0x10001D324, symSize: 0x60 }
  - { offsetInCU: 0x4783A, offset: 0x9A32D, size: 0x8, addend: 0x0, symName: __ZN5Eigen8internal47copy_using_evaluator_innervec_CompleteUnrollingINS0_31generic_dense_assignment_kernelINS0_9evaluatorINS_6MatrixIdLi2ELi1ELi0ELi2ELi1EEEEENS3_INS_7ProductINS4_IdLi2ELi2ELi0ELi2ELi2EEES5_Li1EEEEENS0_13sub_assign_opIddEELi0EEELi2ELi2EE3runERSD_, symObjAddr: 0x5440, symBinAddr: 0x10001D384, symSize: 0x10 }
  - { offsetInCU: 0x47859, offset: 0x9A34C, size: 0x8, addend: 0x0, symName: __ZN5Eigen8internal31generic_dense_assignment_kernelINS0_9evaluatorINS_6MatrixIdLi2ELi1ELi0ELi2ELi1EEEEENS2_INS_7ProductINS3_IdLi2ELi2ELi0ELi2ELi2EEES4_Li1EEEEENS0_13sub_assign_opIddEELi0EE20rowIndexByOuterInnerEll, symObjAddr: 0x5450, symBinAddr: 0x10001D394, symSize: 0x18 }
  - { offsetInCU: 0x4788B, offset: 0x9A37E, size: 0x8, addend: 0x0, symName: __ZN5Eigen8internal31generic_dense_assignment_kernelINS0_9evaluatorINS_6MatrixIdLi2ELi1ELi0ELi2ELi1EEEEENS2_INS_7ProductINS3_IdLi2ELi2ELi0ELi2ELi2EEES4_Li1EEEEENS0_13sub_assign_opIddEELi0EE20colIndexByOuterInnerEll, symObjAddr: 0x5468, symBinAddr: 0x10001D3AC, symSize: 0x18 }
  - { offsetInCU: 0x478BD, offset: 0x9A3B0, size: 0x8, addend: 0x0, symName: __ZN5Eigen8internal31generic_dense_assignment_kernelINS0_9evaluatorINS_6MatrixIdLi2ELi1ELi0ELi2ELi1EEEEENS2_INS_7ProductINS3_IdLi2ELi2ELi0ELi2ELi2EEES4_Li1EEEEENS0_13sub_assign_opIddEELi0EE12assignPacketILi16ELi16E19__simd128_float64_tEEvll, symObjAddr: 0x5480, symBinAddr: 0x10001D3C4, symSize: 0x70 }
  - { offsetInCU: 0x47930, offset: 0x9A423, size: 0x8, addend: 0x0, symName: __ZNK5Eigen8internal17product_evaluatorINS_7ProductINS_6MatrixIdLi2ELi2ELi0ELi2ELi2EEENS3_IdLi2ELi1ELi0ELi2ELi1EEELi1EEELi3ENS_10DenseShapeES7_ddE6packetILi16E19__simd128_float64_tEEKT0_ll, symObjAddr: 0x55B8, symBinAddr: 0x10001D434, symSize: 0x48 }
  - { offsetInCU: 0x479AD, offset: 0x9A4A0, size: 0x8, addend: 0x0, symName: __ZN5Eigen8internal24etor_product_packet_implILi0ELi2ENS0_9evaluatorINS_6MatrixIdLi2ELi2ELi0ELi2ELi2EEEEENS2_INS3_IdLi2ELi1ELi0ELi2ELi1EEEEE19__simd128_float64_tLi16EE3runEllRKS5_RKS7_lRS8_, symObjAddr: 0x56A8, symBinAddr: 0x10001D47C, symSize: 0x9C }
  - { offsetInCU: 0x47A1B, offset: 0x9A50E, size: 0x8, addend: 0x0, symName: __ZN5Eigen8internal24etor_product_packet_implILi0ELi1ENS0_9evaluatorINS_6MatrixIdLi2ELi2ELi0ELi2ELi2EEEEENS2_INS3_IdLi2ELi1ELi0ELi2ELi1EEEEE19__simd128_float64_tLi16EE3runEllRKS5_RKS7_lRS8_, symObjAddr: 0x5744, symBinAddr: 0x10001D518, symSize: 0x7C }
  - { offsetInCU: 0x47A85, offset: 0x9A578, size: 0x8, addend: 0x0, symName: __ZNK5Eigen8internal9evaluatorINS_15PlainObjectBaseINS_6MatrixIdLi2ELi1ELi0ELi2ELi1EEEEEE5coeffEll, symObjAddr: 0x58B8, symBinAddr: 0x10001D62C, symSize: 0x5C }
  - { offsetInCU: 0x47AC5, offset: 0x9A5B8, size: 0x8, addend: 0x0, symName: __ZN5Eigen8internal9evaluatorINS_7ProductINS_6MatrixIdLi2ELi2ELi0ELi2ELi2EEENS3_IdLi2ELi1ELi0ELi2ELi1EEELi1EEEED2Ev, symObjAddr: 0x5968, symBinAddr: 0x10001D6C8, symSize: 0x2C }
  - { offsetInCU: 0x47AEF, offset: 0x9A5E2, size: 0x8, addend: 0x0, symName: __ZN5Eigen8internal17product_evaluatorINS_7ProductINS_6MatrixIdLi2ELi2ELi0ELi2ELi2EEENS3_IdLi2ELi1ELi0ELi2ELi1EEELi1EEELi3ENS_10DenseShapeES7_ddED2Ev, symObjAddr: 0x5994, symBinAddr: 0x10001D6F4, symSize: 0x44 }
  - { offsetInCU: 0x47B19, offset: 0x9A60C, size: 0x8, addend: 0x0, symName: __ZN5Eigen7ProductINS_6MatrixIdLi2ELi2ELi0ELi2ELi2EEENS1_IdLi2ELi1ELi0ELi2ELi1EEELi1EEC1ERKS2_RKS3_, symObjAddr: 0x59D8, symBinAddr: 0x10001D738, symSize: 0x3C }
  - { offsetInCU: 0x47B5D, offset: 0x9A650, size: 0x8, addend: 0x0, symName: __ZN5Eigen7ProductINS_6MatrixIdLi2ELi2ELi0ELi2ELi2EEENS1_IdLi2ELi1ELi0ELi2ELi1EEELi1EEC2ERKS2_RKS3_, symObjAddr: 0x5A14, symBinAddr: 0x10001D774, symSize: 0xC0 }
  - { offsetInCU: 0x47BA6, offset: 0x9A699, size: 0x8, addend: 0x0, symName: __ZN5Eigen11ProductImplINS_6MatrixIdLi2ELi2ELi0ELi2ELi2EEENS1_IdLi2ELi1ELi0ELi2ELi1EEELi1ENS_5DenseEEC2Ev, symObjAddr: 0x5AD4, symBinAddr: 0x10001D834, symSize: 0x2C }
  - { offsetInCU: 0x47BD5, offset: 0x9A6C8, size: 0x8, addend: 0x0, symName: __ZN5Eigen8internal18dense_product_baseINS_6MatrixIdLi2ELi2ELi0ELi2ELi2EEENS2_IdLi2ELi1ELi0ELi2ELi1EEELi1ELi3EEC2Ev, symObjAddr: 0x5B00, symBinAddr: 0x10001D860, symSize: 0x2C }
  - { offsetInCU: 0x47BFF, offset: 0x9A6F2, size: 0x8, addend: 0x0, symName: __ZN5Eigen10MatrixBaseINS_7ProductINS_6MatrixIdLi2ELi2ELi0ELi2ELi2EEENS2_IdLi2ELi1ELi0ELi2ELi1EEELi1EEEEC2Ev, symObjAddr: 0x5B2C, symBinAddr: 0x10001D88C, symSize: 0x2C }
  - { offsetInCU: 0x47C27, offset: 0x9A71A, size: 0x8, addend: 0x0, symName: __ZN5Eigen9DenseBaseINS_7ProductINS_6MatrixIdLi2ELi2ELi0ELi2ELi2EEENS2_IdLi2ELi1ELi0ELi2ELi1EEELi1EEEEC2Ev, symObjAddr: 0x5B58, symBinAddr: 0x10001D8B8, symSize: 0x14 }
  - { offsetInCU: 0x47C4F, offset: 0x9A742, size: 0x8, addend: 0x0, symName: __ZNK5Eigen9EigenBaseINS_9TransposeINS_6MatrixIdLi2ELi1ELi0ELi2ELi1EEEEEE7derivedEv, symObjAddr: 0x6320, symBinAddr: 0x10001D8CC, symSize: 0x14 }
  - { offsetInCU: 0x47C73, offset: 0x9A766, size: 0x8, addend: 0x0, symName: __ZN5Eigen7ProductINS_6MatrixIdLi2ELi1ELi0ELi2ELi1EEENS_9TransposeIS2_EELi0EEC1ERKS2_RKS4_, symObjAddr: 0x6334, symBinAddr: 0x10001D8E0, symSize: 0x3C }
  - { offsetInCU: 0x47CB7, offset: 0x9A7AA, size: 0x8, addend: 0x0, symName: __ZN5Eigen7ProductINS_6MatrixIdLi2ELi1ELi0ELi2ELi1EEENS_9TransposeIS2_EELi0EEC2ERKS2_RKS4_, symObjAddr: 0x6370, symBinAddr: 0x10001D91C, symSize: 0xC4 }
  - { offsetInCU: 0x47D00, offset: 0x9A7F3, size: 0x8, addend: 0x0, symName: __ZN5Eigen11ProductImplINS_6MatrixIdLi2ELi1ELi0ELi2ELi1EEENS_9TransposeIS2_EELi0ENS_5DenseEEC2Ev, symObjAddr: 0x6434, symBinAddr: 0x10001D9E0, symSize: 0x2C }
  - { offsetInCU: 0x47D2A, offset: 0x9A81D, size: 0x8, addend: 0x0, symName: __ZNK5Eigen9TransposeINS_6MatrixIdLi2ELi1ELi0ELi2ELi1EEEE4rowsEv, symObjAddr: 0x6460, symBinAddr: 0x10001DA0C, symSize: 0x28 }
  - { offsetInCU: 0x47D53, offset: 0x9A846, size: 0x8, addend: 0x0, symName: __ZN5Eigen8internal18dense_product_baseINS_6MatrixIdLi2ELi1ELi0ELi2ELi1EEENS_9TransposeIS3_EELi0ELi4EEC2Ev, symObjAddr: 0x6488, symBinAddr: 0x10001DA34, symSize: 0x2C }
  - { offsetInCU: 0x47D7D, offset: 0x9A870, size: 0x8, addend: 0x0, symName: __ZN5Eigen10MatrixBaseINS_7ProductINS_6MatrixIdLi2ELi1ELi0ELi2ELi1EEENS_9TransposeIS3_EELi0EEEEC2Ev, symObjAddr: 0x64B4, symBinAddr: 0x10001DA60, symSize: 0x2C }
  - { offsetInCU: 0x47DA5, offset: 0x9A898, size: 0x8, addend: 0x0, symName: __ZN5Eigen9DenseBaseINS_7ProductINS_6MatrixIdLi2ELi1ELi0ELi2ELi1EEENS_9TransposeIS3_EELi0EEEEC2Ev, symObjAddr: 0x64E0, symBinAddr: 0x10001DA8C, symSize: 0x14 }
  - { offsetInCU: 0x47DCD, offset: 0x9A8C0, size: 0x8, addend: 0x0, symName: __ZN5Eigen9TransposeINS_6MatrixIdLi2ELi1ELi0ELi2ELi1EEEEC1ERS2_, symObjAddr: 0x64F4, symBinAddr: 0x10001DAA0, symSize: 0x34 }
  - { offsetInCU: 0x47E03, offset: 0x9A8F6, size: 0x8, addend: 0x0, symName: __ZN5Eigen9TransposeINS_6MatrixIdLi2ELi1ELi0ELi2ELi1EEEEC2ERS2_, symObjAddr: 0x6528, symBinAddr: 0x10001DAD4, symSize: 0x38 }
  - { offsetInCU: 0x47E39, offset: 0x9A92C, size: 0x8, addend: 0x0, symName: __ZN5Eigen13TransposeImplINS_6MatrixIdLi2ELi1ELi0ELi2ELi1EEENS_5DenseEEC2Ev, symObjAddr: 0x6560, symBinAddr: 0x10001DB0C, symSize: 0x2C }
  - { offsetInCU: 0x47E61, offset: 0x9A954, size: 0x8, addend: 0x0, symName: __ZN5Eigen10MatrixBaseINS_9TransposeINS_6MatrixIdLi2ELi1ELi0ELi2ELi1EEEEEEC2Ev, symObjAddr: 0x658C, symBinAddr: 0x10001DB38, symSize: 0x2C }
  - { offsetInCU: 0x47E89, offset: 0x9A97C, size: 0x8, addend: 0x0, symName: __ZN5Eigen9DenseBaseINS_9TransposeINS_6MatrixIdLi2ELi1ELi0ELi2ELi1EEEEEEC2Ev, symObjAddr: 0x65B8, symBinAddr: 0x10001DB64, symSize: 0x14 }
  - { offsetInCU: 0x47EB1, offset: 0x9A9A4, size: 0x8, addend: 0x0, symName: __ZNK5Eigen9EigenBaseINS_7ProductINS_6MatrixIdLi2ELi1ELi0ELi2ELi1EEENS_9TransposeIS3_EELi0EEEE7derivedEv, symObjAddr: 0x6628, symBinAddr: 0x10001DBC0, symSize: 0x14 }
  - { offsetInCU: 0x47ED5, offset: 0x9A9C8, size: 0x8, addend: 0x0, symName: __ZN5Eigen8internal13add_assign_opIddEC1Ev, symObjAddr: 0x663C, symBinAddr: 0x10001DBD4, symSize: 0x2C }
  - { offsetInCU: 0x47EFD, offset: 0x9A9F0, size: 0x8, addend: 0x0, symName: __ZN5Eigen6MatrixIdLi2ELi2ELi0ELi2ELi2EEC1INS_7ProductINS0_IdLi2ELi1ELi0ELi2ELi1EEENS_9TransposeIS4_EELi0EEEEERKT_, symObjAddr: 0x6668, symBinAddr: 0x10001DC00, symSize: 0x34 }
  - { offsetInCU: 0x47F3D, offset: 0x9AA30, size: 0x8, addend: 0x0, symName: __ZN5Eigen6MatrixIdLi2ELi2ELi0ELi2ELi2EEC2INS_7ProductINS0_IdLi2ELi1ELi0ELi2ELi1EEENS_9TransposeIS4_EELi0EEEEERKT_, symObjAddr: 0x66D8, symBinAddr: 0x10001DC70, symSize: 0x40 }
  - { offsetInCU: 0x47F7D, offset: 0x9AA70, size: 0x8, addend: 0x0, symName: __ZN5Eigen15PlainObjectBaseINS_6MatrixIdLi2ELi2ELi0ELi2ELi2EEEE6_init1INS_7ProductINS1_IdLi2ELi1ELi0ELi2ELi1EEENS_9TransposeIS6_EELi0EEES9_EEvRKNS_9DenseBaseIT0_EE, symObjAddr: 0x6718, symBinAddr: 0x10001DCB0, symSize: 0x2C }
  - { offsetInCU: 0x47FC2, offset: 0x9AAB5, size: 0x8, addend: 0x0, symName: __ZN5Eigen15PlainObjectBaseINS_6MatrixIdLi2ELi2ELi0ELi2ELi2EEEE12_set_noaliasINS_7ProductINS1_IdLi2ELi1ELi0ELi2ELi1EEENS_9TransposeIS6_EELi0EEEEERS2_RKNS_9DenseBaseIT_EE, symObjAddr: 0x6744, symBinAddr: 0x10001DCDC, symSize: 0x60 }
  - { offsetInCU: 0x48008, offset: 0x9AAFB, size: 0x8, addend: 0x0, symName: __ZN5Eigen8internal10AssignmentINS_6MatrixIdLi2ELi2ELi0ELi2ELi2EEENS_7ProductINS2_IdLi2ELi1ELi0ELi2ELi1EEENS_9TransposeIS5_EELi0EEENS0_9assign_opIddEENS0_11Dense2DenseEvE3runERS3_RKS8_RKSA_, symObjAddr: 0x67E0, symBinAddr: 0x10001DD78, symSize: 0xB4 }
  - { offsetInCU: 0x4805E, offset: 0x9AB51, size: 0x8, addend: 0x0, symName: __ZNK5Eigen7ProductINS_6MatrixIdLi2ELi1ELi0ELi2ELi1EEENS_9TransposeIS2_EELi0EE4rowsEv, symObjAddr: 0x6894, symBinAddr: 0x10001DE2C, symSize: 0x28 }
  - { offsetInCU: 0x48082, offset: 0x9AB75, size: 0x8, addend: 0x0, symName: __ZNK5Eigen7ProductINS_6MatrixIdLi2ELi1ELi0ELi2ELi1EEENS_9TransposeIS2_EELi0EE4colsEv, symObjAddr: 0x68BC, symBinAddr: 0x10001DE54, symSize: 0x28 }
  - { offsetInCU: 0x480A6, offset: 0x9AB99, size: 0x8, addend: 0x0, symName: __ZN5Eigen8internal20generic_product_implINS_6MatrixIdLi2ELi1ELi0ELi2ELi1EEENS_9TransposeIS3_EENS_10DenseShapeES6_Li3EE6evalToINS2_IdLi2ELi2ELi0ELi2ELi2EEEEEvRT_RKS3_RKS5_, symObjAddr: 0x69E8, symBinAddr: 0x10001DE7C, symSize: 0x64 }
  - { offsetInCU: 0x480F0, offset: 0x9ABE3, size: 0x8, addend: 0x0, symName: __ZNK5Eigen7ProductINS_6MatrixIdLi2ELi1ELi0ELi2ELi1EEENS_9TransposeIS2_EELi0EE3lhsEv, symObjAddr: 0x6A4C, symBinAddr: 0x10001DEE0, symSize: 0x18 }
  - { offsetInCU: 0x48114, offset: 0x9AC07, size: 0x8, addend: 0x0, symName: __ZNK5Eigen7ProductINS_6MatrixIdLi2ELi1ELi0ELi2ELi1EEENS_9TransposeIS2_EELi0EE3rhsEv, symObjAddr: 0x6A64, symBinAddr: 0x10001DEF8, symSize: 0x18 }
  - { offsetInCU: 0x48138, offset: 0x9AC2B, size: 0x8, addend: 0x0, symName: __ZNK5Eigen9TransposeINS_6MatrixIdLi2ELi1ELi0ELi2ELi1EEEE4colsEv, symObjAddr: 0x6A7C, symBinAddr: 0x10001DF10, symSize: 0x28 }
  - { offsetInCU: 0x4815C, offset: 0x9AC4F, size: 0x8, addend: 0x0, symName: __ZNK5Eigen10MatrixBaseINS_6MatrixIdLi2ELi1ELi0ELi2ELi1EEEE11lazyProductINS_9TransposeIS2_EEEEKNS_7ProductIS2_T_Li1EEERKNS0_IS8_EE, symObjAddr: 0x6AFC, symBinAddr: 0x10001DF74, symSize: 0x4C }
  - { offsetInCU: 0x4819B, offset: 0x9AC8E, size: 0x8, addend: 0x0, symName: __ZN5Eigen8internal10AssignmentINS_6MatrixIdLi2ELi2ELi0ELi2ELi2EEENS_7ProductINS2_IdLi2ELi1ELi0ELi2ELi1EEENS_9TransposeIS5_EELi1EEENS0_9assign_opIddEENS0_11Dense2DenseEvE3runERS3_RKS8_RKSA_, symObjAddr: 0x6B48, symBinAddr: 0x10001DFC0, symSize: 0x40 }
  - { offsetInCU: 0x481DC, offset: 0x9ACCF, size: 0x8, addend: 0x0, symName: __ZN5Eigen8internal27checkTransposeAliasing_implINS_6MatrixIdLi2ELi2ELi0ELi2ELi2EEENS_7ProductINS2_IdLi2ELi1ELi0ELi2ELi1EEENS_9TransposeIS5_EELi1EEELb0EE3runERKS3_RKS8_, symObjAddr: 0x6CC8, symBinAddr: 0x10001E140, symSize: 0x14 }
  - { offsetInCU: 0x48206, offset: 0x9ACF9, size: 0x8, addend: 0x0, symName: __ZN5Eigen8internal9evaluatorINS_7ProductINS_6MatrixIdLi2ELi1ELi0ELi2ELi1EEENS_9TransposeIS4_EELi1EEEEC1ERKS7_, symObjAddr: 0x6CDC, symBinAddr: 0x10001E154, symSize: 0x34 }
  - { offsetInCU: 0x4823C, offset: 0x9AD2F, size: 0x8, addend: 0x0, symName: __ZN5Eigen8internal31generic_dense_assignment_kernelINS0_9evaluatorINS_6MatrixIdLi2ELi2ELi0ELi2ELi2EEEEENS2_INS_7ProductINS3_IdLi2ELi1ELi0ELi2ELi1EEENS_9TransposeIS7_EELi1EEEEENS0_9assign_opIddEELi0EEC1ERS5_RKSB_RKSD_RS4_, symObjAddr: 0x6E1C, symBinAddr: 0x10001E280, symSize: 0x4C }
  - { offsetInCU: 0x482A0, offset: 0x9AD93, size: 0x8, addend: 0x0, symName: __ZN5Eigen8internal21dense_assignment_loopINS0_31generic_dense_assignment_kernelINS0_9evaluatorINS_6MatrixIdLi2ELi2ELi0ELi2ELi2EEEEENS3_INS_7ProductINS4_IdLi2ELi1ELi0ELi2ELi1EEENS_9TransposeIS8_EELi1EEEEENS0_9assign_opIddEELi0EEELi2ELi2EE3runERSF_, symObjAddr: 0x6E68, symBinAddr: 0x10001E2CC, symSize: 0x24 }
  - { offsetInCU: 0x482C3, offset: 0x9ADB6, size: 0x8, addend: 0x0, symName: __ZN5Eigen8internal9evaluatorINS_7ProductINS_6MatrixIdLi2ELi1ELi0ELi2ELi1EEENS_9TransposeIS4_EELi1EEEED1Ev, symObjAddr: 0x6E8C, symBinAddr: 0x10001E2F0, symSize: 0x2C }
  - { offsetInCU: 0x482ED, offset: 0x9ADE0, size: 0x8, addend: 0x0, symName: __ZN5Eigen8internal9evaluatorINS_7ProductINS_6MatrixIdLi2ELi1ELi0ELi2ELi1EEENS_9TransposeIS4_EELi1EEEEC2ERKS7_, symObjAddr: 0x6EB8, symBinAddr: 0x10001E31C, symSize: 0x34 }
  - { offsetInCU: 0x48323, offset: 0x9AE16, size: 0x8, addend: 0x0, symName: __ZN5Eigen8internal17product_evaluatorINS_7ProductINS_6MatrixIdLi2ELi1ELi0ELi2ELi1EEENS_9TransposeIS4_EELi1EEELi4ENS_10DenseShapeES8_ddEC2ERKS7_, symObjAddr: 0x6EEC, symBinAddr: 0x10001E350, symSize: 0x114 }
  - { offsetInCU: 0x4835A, offset: 0x9AE4D, size: 0x8, addend: 0x0, symName: __ZN5Eigen8internal14evaluator_baseINS_7ProductINS_6MatrixIdLi2ELi1ELi0ELi2ELi1EEENS_9TransposeIS4_EELi1EEEEC2Ev, symObjAddr: 0x7000, symBinAddr: 0x10001E464, symSize: 0x14 }
  - { offsetInCU: 0x48382, offset: 0x9AE75, size: 0x8, addend: 0x0, symName: __ZNK5Eigen7ProductINS_6MatrixIdLi2ELi1ELi0ELi2ELi1EEENS_9TransposeIS2_EELi1EE3lhsEv, symObjAddr: 0x7014, symBinAddr: 0x10001E478, symSize: 0x18 }
  - { offsetInCU: 0x483A6, offset: 0x9AE99, size: 0x8, addend: 0x0, symName: __ZNK5Eigen7ProductINS_6MatrixIdLi2ELi1ELi0ELi2ELi1EEENS_9TransposeIS2_EELi1EE3rhsEv, symObjAddr: 0x702C, symBinAddr: 0x10001E490, symSize: 0x18 }
  - { offsetInCU: 0x483CA, offset: 0x9AEBD, size: 0x8, addend: 0x0, symName: __ZN5Eigen8internal9evaluatorINS_9TransposeINS_6MatrixIdLi2ELi1ELi0ELi2ELi1EEEEEEC1ERKS5_, symObjAddr: 0x7044, symBinAddr: 0x10001E4A8, symSize: 0x34 }
  - { offsetInCU: 0x48400, offset: 0x9AEF3, size: 0x8, addend: 0x0, symName: __ZN5Eigen8internal9evaluatorINS_9TransposeINS_6MatrixIdLi2ELi1ELi0ELi2ELi1EEEEEED1Ev, symObjAddr: 0x7078, symBinAddr: 0x10001E4DC, symSize: 0x2C }
  - { offsetInCU: 0x4842A, offset: 0x9AF1D, size: 0x8, addend: 0x0, symName: __ZN5Eigen8internal14evaluator_baseINS_7ProductINS_6MatrixIdLi2ELi1ELi0ELi2ELi1EEENS_9TransposeIS4_EELi1EEEED2Ev, symObjAddr: 0x70A4, symBinAddr: 0x10001E508, symSize: 0x14 }
  - { offsetInCU: 0x48452, offset: 0x9AF45, size: 0x8, addend: 0x0, symName: __ZN5Eigen8internal9evaluatorINS_9TransposeINS_6MatrixIdLi2ELi1ELi0ELi2ELi1EEEEEEC2ERKS5_, symObjAddr: 0x70B8, symBinAddr: 0x10001E51C, symSize: 0x34 }
  - { offsetInCU: 0x48488, offset: 0x9AF7B, size: 0x8, addend: 0x0, symName: __ZN5Eigen8internal15unary_evaluatorINS_9TransposeINS_6MatrixIdLi2ELi1ELi0ELi2ELi1EEEEENS0_10IndexBasedEdEC2ERKS5_, symObjAddr: 0x70EC, symBinAddr: 0x10001E550, symSize: 0x74 }
  - { offsetInCU: 0x484BF, offset: 0x9AFB2, size: 0x8, addend: 0x0, symName: __ZN5Eigen8internal14evaluator_baseINS_9TransposeINS_6MatrixIdLi2ELi1ELi0ELi2ELi1EEEEEEC2Ev, symObjAddr: 0x7160, symBinAddr: 0x10001E5C4, symSize: 0x14 }
  - { offsetInCU: 0x484E7, offset: 0x9AFDA, size: 0x8, addend: 0x0, symName: __ZNK5Eigen9TransposeINS_6MatrixIdLi2ELi1ELi0ELi2ELi1EEEE16nestedExpressionEv, symObjAddr: 0x7174, symBinAddr: 0x10001E5D8, symSize: 0x18 }
  - { offsetInCU: 0x4850B, offset: 0x9AFFE, size: 0x8, addend: 0x0, symName: __ZN5Eigen8internal14evaluator_baseINS_9TransposeINS_6MatrixIdLi2ELi1ELi0ELi2ELi1EEEEEED2Ev, symObjAddr: 0x718C, symBinAddr: 0x10001E5F0, symSize: 0x14 }
  - { offsetInCU: 0x48533, offset: 0x9B026, size: 0x8, addend: 0x0, symName: __ZN5Eigen8internal9evaluatorINS_9TransposeINS_6MatrixIdLi2ELi1ELi0ELi2ELi1EEEEEED2Ev, symObjAddr: 0x71A0, symBinAddr: 0x10001E604, symSize: 0x2C }
  - { offsetInCU: 0x4855D, offset: 0x9B050, size: 0x8, addend: 0x0, symName: __ZN5Eigen8internal15unary_evaluatorINS_9TransposeINS_6MatrixIdLi2ELi1ELi0ELi2ELi1EEEEENS0_10IndexBasedEdED2Ev, symObjAddr: 0x71CC, symBinAddr: 0x10001E630, symSize: 0x34 }
  - { offsetInCU: 0x48587, offset: 0x9B07A, size: 0x8, addend: 0x0, symName: __ZNK5Eigen7ProductINS_6MatrixIdLi2ELi1ELi0ELi2ELi1EEENS_9TransposeIS2_EELi1EE4rowsEv, symObjAddr: 0x7200, symBinAddr: 0x10001E664, symSize: 0x28 }
  - { offsetInCU: 0x485AB, offset: 0x9B09E, size: 0x8, addend: 0x0, symName: __ZNK5Eigen7ProductINS_6MatrixIdLi2ELi1ELi0ELi2ELi1EEENS_9TransposeIS2_EELi1EE4colsEv, symObjAddr: 0x7228, symBinAddr: 0x10001E68C, symSize: 0x28 }
  - { offsetInCU: 0x485CF, offset: 0x9B0C2, size: 0x8, addend: 0x0, symName: __ZN5Eigen8internal31generic_dense_assignment_kernelINS0_9evaluatorINS_6MatrixIdLi2ELi2ELi0ELi2ELi2EEEEENS2_INS_7ProductINS3_IdLi2ELi1ELi0ELi2ELi1EEENS_9TransposeIS7_EELi1EEEEENS0_9assign_opIddEELi0EEC2ERS5_RKSB_RKSD_RS4_, symObjAddr: 0x7250, symBinAddr: 0x10001E6B4, symSize: 0x44 }
  - { offsetInCU: 0x48633, offset: 0x9B126, size: 0x8, addend: 0x0, symName: __ZN5Eigen8internal47copy_using_evaluator_innervec_CompleteUnrollingINS0_31generic_dense_assignment_kernelINS0_9evaluatorINS_6MatrixIdLi2ELi2ELi0ELi2ELi2EEEEENS3_INS_7ProductINS4_IdLi2ELi1ELi0ELi2ELi1EEENS_9TransposeIS8_EELi1EEEEENS0_9assign_opIddEELi0EEELi0ELi4EE3runERSF_, symObjAddr: 0x7294, symBinAddr: 0x10001E6F8, symSize: 0x34 }
  - { offsetInCU: 0x48656, offset: 0x9B149, size: 0x8, addend: 0x0, symName: __ZN5Eigen8internal31generic_dense_assignment_kernelINS0_9evaluatorINS_6MatrixIdLi2ELi2ELi0ELi2ELi2EEEEENS2_INS_7ProductINS3_IdLi2ELi1ELi0ELi2ELi1EEENS_9TransposeIS7_EELi1EEEEENS0_9assign_opIddEELi0EE24assignPacketByOuterInnerILi16ELi16E19__simd128_float64_tEEvll, symObjAddr: 0x72C8, symBinAddr: 0x10001E72C, symSize: 0x60 }
  - { offsetInCU: 0x486D3, offset: 0x9B1C6, size: 0x8, addend: 0x0, symName: __ZN5Eigen8internal47copy_using_evaluator_innervec_CompleteUnrollingINS0_31generic_dense_assignment_kernelINS0_9evaluatorINS_6MatrixIdLi2ELi2ELi0ELi2ELi2EEEEENS3_INS_7ProductINS4_IdLi2ELi1ELi0ELi2ELi1EEENS_9TransposeIS8_EELi1EEEEENS0_9assign_opIddEELi0EEELi2ELi4EE3runERSF_, symObjAddr: 0x7328, symBinAddr: 0x10001E78C, symSize: 0x34 }
  - { offsetInCU: 0x486F6, offset: 0x9B1E9, size: 0x8, addend: 0x0, symName: __ZN5Eigen8internal31generic_dense_assignment_kernelINS0_9evaluatorINS_6MatrixIdLi2ELi2ELi0ELi2ELi2EEEEENS2_INS_7ProductINS3_IdLi2ELi1ELi0ELi2ELi1EEENS_9TransposeIS7_EELi1EEEEENS0_9assign_opIddEELi0EE20rowIndexByOuterInnerEll, symObjAddr: 0x735C, symBinAddr: 0x10001E7C0, symSize: 0x18 }
  - { offsetInCU: 0x48728, offset: 0x9B21B, size: 0x8, addend: 0x0, symName: __ZN5Eigen8internal31generic_dense_assignment_kernelINS0_9evaluatorINS_6MatrixIdLi2ELi2ELi0ELi2ELi2EEEEENS2_INS_7ProductINS3_IdLi2ELi1ELi0ELi2ELi1EEENS_9TransposeIS7_EELi1EEEEENS0_9assign_opIddEELi0EE20colIndexByOuterInnerEll, symObjAddr: 0x7374, symBinAddr: 0x10001E7D8, symSize: 0x18 }
  - { offsetInCU: 0x4875A, offset: 0x9B24D, size: 0x8, addend: 0x0, symName: __ZN5Eigen8internal31generic_dense_assignment_kernelINS0_9evaluatorINS_6MatrixIdLi2ELi2ELi0ELi2ELi2EEEEENS2_INS_7ProductINS3_IdLi2ELi1ELi0ELi2ELi1EEENS_9TransposeIS7_EELi1EEEEENS0_9assign_opIddEELi0EE12assignPacketILi16ELi16E19__simd128_float64_tEEvll, symObjAddr: 0x738C, symBinAddr: 0x10001E7F0, symSize: 0x70 }
  - { offsetInCU: 0x487B9, offset: 0x9B2AC, size: 0x8, addend: 0x0, symName: __ZNK5Eigen8internal17product_evaluatorINS_7ProductINS_6MatrixIdLi2ELi1ELi0ELi2ELi1EEENS_9TransposeIS4_EELi1EEELi4ENS_10DenseShapeES8_ddE6packetILi16E19__simd128_float64_tEEKT0_ll, symObjAddr: 0x7458, symBinAddr: 0x10001E860, symSize: 0x48 }
  - { offsetInCU: 0x48827, offset: 0x9B31A, size: 0x8, addend: 0x0, symName: __ZN5Eigen8internal24etor_product_packet_implILi0ELi1ENS0_9evaluatorINS_6MatrixIdLi2ELi1ELi0ELi2ELi1EEEEENS2_INS_9TransposeIS4_EEEE19__simd128_float64_tLi16EE3runEllRKS5_RKS8_lRS9_, symObjAddr: 0x74A0, symBinAddr: 0x10001E8A8, symSize: 0x7C }
  - { offsetInCU: 0x48891, offset: 0x9B384, size: 0x8, addend: 0x0, symName: __ZNK5Eigen8internal15unary_evaluatorINS_9TransposeINS_6MatrixIdLi2ELi1ELi0ELi2ELi1EEEEENS0_10IndexBasedEdE5coeffEll, symObjAddr: 0x751C, symBinAddr: 0x10001E924, symSize: 0x34 }
  - { offsetInCU: 0x488D3, offset: 0x9B3C6, size: 0x8, addend: 0x0, symName: __ZN5Eigen8internal47copy_using_evaluator_innervec_CompleteUnrollingINS0_31generic_dense_assignment_kernelINS0_9evaluatorINS_6MatrixIdLi2ELi2ELi0ELi2ELi2EEEEENS3_INS_7ProductINS4_IdLi2ELi1ELi0ELi2ELi1EEENS_9TransposeIS8_EELi1EEEEENS0_9assign_opIddEELi0EEELi4ELi4EE3runERSF_, symObjAddr: 0x7550, symBinAddr: 0x10001E958, symSize: 0x10 }
  - { offsetInCU: 0x488F2, offset: 0x9B3E5, size: 0x8, addend: 0x0, symName: __ZN5Eigen8internal9evaluatorINS_7ProductINS_6MatrixIdLi2ELi1ELi0ELi2ELi1EEENS_9TransposeIS4_EELi1EEEED2Ev, symObjAddr: 0x7560, symBinAddr: 0x10001E968, symSize: 0x2C }
  - { offsetInCU: 0x4891C, offset: 0x9B40F, size: 0x8, addend: 0x0, symName: __ZN5Eigen8internal17product_evaluatorINS_7ProductINS_6MatrixIdLi2ELi1ELi0ELi2ELi1EEENS_9TransposeIS4_EELi1EEELi4ENS_10DenseShapeES8_ddED2Ev, symObjAddr: 0x758C, symBinAddr: 0x10001E994, symSize: 0x44 }
  - { offsetInCU: 0x48946, offset: 0x9B439, size: 0x8, addend: 0x0, symName: __ZN5Eigen7ProductINS_6MatrixIdLi2ELi1ELi0ELi2ELi1EEENS_9TransposeIS2_EELi1EEC1ERKS2_RKS4_, symObjAddr: 0x75D0, symBinAddr: 0x10001E9D8, symSize: 0x3C }
  - { offsetInCU: 0x4898A, offset: 0x9B47D, size: 0x8, addend: 0x0, symName: __ZN5Eigen7ProductINS_6MatrixIdLi2ELi1ELi0ELi2ELi1EEENS_9TransposeIS2_EELi1EEC2ERKS2_RKS4_, symObjAddr: 0x760C, symBinAddr: 0x10001EA14, symSize: 0xC4 }
  - { offsetInCU: 0x489D3, offset: 0x9B4C6, size: 0x8, addend: 0x0, symName: __ZN5Eigen11ProductImplINS_6MatrixIdLi2ELi1ELi0ELi2ELi1EEENS_9TransposeIS2_EELi1ENS_5DenseEEC2Ev, symObjAddr: 0x76D0, symBinAddr: 0x10001EAD8, symSize: 0x2C }
  - { offsetInCU: 0x48A02, offset: 0x9B4F5, size: 0x8, addend: 0x0, symName: __ZN5Eigen8internal18dense_product_baseINS_6MatrixIdLi2ELi1ELi0ELi2ELi1EEENS_9TransposeIS3_EELi1ELi4EEC2Ev, symObjAddr: 0x76FC, symBinAddr: 0x10001EB04, symSize: 0x2C }
  - { offsetInCU: 0x48A2C, offset: 0x9B51F, size: 0x8, addend: 0x0, symName: __ZN5Eigen10MatrixBaseINS_7ProductINS_6MatrixIdLi2ELi1ELi0ELi2ELi1EEENS_9TransposeIS3_EELi1EEEEC2Ev, symObjAddr: 0x7728, symBinAddr: 0x10001EB30, symSize: 0x2C }
  - { offsetInCU: 0x48A54, offset: 0x9B547, size: 0x8, addend: 0x0, symName: __ZN5Eigen9DenseBaseINS_7ProductINS_6MatrixIdLi2ELi1ELi0ELi2ELi1EEENS_9TransposeIS3_EELi1EEEEC2Ev, symObjAddr: 0x7754, symBinAddr: 0x10001EB5C, symSize: 0x14 }
  - { offsetInCU: 0x48A7C, offset: 0x9B56F, size: 0x8, addend: 0x0, symName: __ZN5Eigen8internal10AssignmentINS_6MatrixIdLi2ELi2ELi0ELi2ELi2EEES3_NS0_13add_assign_opIddEENS0_11Dense2DenseEvE3runERS3_RKS3_RKS5_, symObjAddr: 0x7768, symBinAddr: 0x10001EB70, symSize: 0x40 }
  - { offsetInCU: 0x48ABD, offset: 0x9B5B0, size: 0x8, addend: 0x0, symName: __ZN5Eigen8internal31generic_dense_assignment_kernelINS0_9evaluatorINS_6MatrixIdLi2ELi2ELi0ELi2ELi2EEEEES5_NS0_13add_assign_opIddEELi0EEC1ERS5_RKS5_RKS7_RS4_, symObjAddr: 0x79A8, symBinAddr: 0x10001ED3C, symSize: 0x4C }
  - { offsetInCU: 0x48B21, offset: 0x9B614, size: 0x8, addend: 0x0, symName: __ZN5Eigen8internal21dense_assignment_loopINS0_31generic_dense_assignment_kernelINS0_9evaluatorINS_6MatrixIdLi2ELi2ELi0ELi2ELi2EEEEES6_NS0_13add_assign_opIddEELi0EEELi2ELi2EE3runERS9_, symObjAddr: 0x79F4, symBinAddr: 0x10001ED88, symSize: 0x24 }
  - { offsetInCU: 0x48B44, offset: 0x9B637, size: 0x8, addend: 0x0, symName: __ZN5Eigen8internal31generic_dense_assignment_kernelINS0_9evaluatorINS_6MatrixIdLi2ELi2ELi0ELi2ELi2EEEEES5_NS0_13add_assign_opIddEELi0EEC2ERS5_RKS5_RKS7_RS4_, symObjAddr: 0x7A18, symBinAddr: 0x10001EDAC, symSize: 0x44 }
  - { offsetInCU: 0x48BA8, offset: 0x9B69B, size: 0x8, addend: 0x0, symName: __ZN5Eigen8internal47copy_using_evaluator_innervec_CompleteUnrollingINS0_31generic_dense_assignment_kernelINS0_9evaluatorINS_6MatrixIdLi2ELi2ELi0ELi2ELi2EEEEES6_NS0_13add_assign_opIddEELi0EEELi0ELi4EE3runERS9_, symObjAddr: 0x7A5C, symBinAddr: 0x10001EDF0, symSize: 0x34 }
  - { offsetInCU: 0x48BCB, offset: 0x9B6BE, size: 0x8, addend: 0x0, symName: __ZN5Eigen8internal31generic_dense_assignment_kernelINS0_9evaluatorINS_6MatrixIdLi2ELi2ELi0ELi2ELi2EEEEES5_NS0_13add_assign_opIddEELi0EE24assignPacketByOuterInnerILi16ELi16E19__simd128_float64_tEEvll, symObjAddr: 0x7A90, symBinAddr: 0x10001EE24, symSize: 0x60 }
  - { offsetInCU: 0x48C48, offset: 0x9B73B, size: 0x8, addend: 0x0, symName: __ZN5Eigen8internal47copy_using_evaluator_innervec_CompleteUnrollingINS0_31generic_dense_assignment_kernelINS0_9evaluatorINS_6MatrixIdLi2ELi2ELi0ELi2ELi2EEEEES6_NS0_13add_assign_opIddEELi0EEELi2ELi4EE3runERS9_, symObjAddr: 0x7AF0, symBinAddr: 0x10001EE84, symSize: 0x34 }
  - { offsetInCU: 0x48C6B, offset: 0x9B75E, size: 0x8, addend: 0x0, symName: __ZN5Eigen8internal31generic_dense_assignment_kernelINS0_9evaluatorINS_6MatrixIdLi2ELi2ELi0ELi2ELi2EEEEES5_NS0_13add_assign_opIddEELi0EE20rowIndexByOuterInnerEll, symObjAddr: 0x7B24, symBinAddr: 0x10001EEB8, symSize: 0x18 }
  - { offsetInCU: 0x48C9D, offset: 0x9B790, size: 0x8, addend: 0x0, symName: __ZN5Eigen8internal31generic_dense_assignment_kernelINS0_9evaluatorINS_6MatrixIdLi2ELi2ELi0ELi2ELi2EEEEES5_NS0_13add_assign_opIddEELi0EE20colIndexByOuterInnerEll, symObjAddr: 0x7B3C, symBinAddr: 0x10001EED0, symSize: 0x18 }
  - { offsetInCU: 0x48CCF, offset: 0x9B7C2, size: 0x8, addend: 0x0, symName: __ZN5Eigen8internal31generic_dense_assignment_kernelINS0_9evaluatorINS_6MatrixIdLi2ELi2ELi0ELi2ELi2EEEEES5_NS0_13add_assign_opIddEELi0EE12assignPacketILi16ELi16E19__simd128_float64_tEEvll, symObjAddr: 0x7B54, symBinAddr: 0x10001EEE8, symSize: 0x70 }
  - { offsetInCU: 0x48D2E, offset: 0x9B821, size: 0x8, addend: 0x0, symName: __ZNK5Eigen8internal13add_assign_opIddE12assignPacketILi16E19__simd128_float64_tEEvPdRKT0_, symObjAddr: 0x7BC4, symBinAddr: 0x10001EF58, symSize: 0x6C }
  - { offsetInCU: 0x48DC8, offset: 0x9B8BB, size: 0x8, addend: 0x0, symName: __ZN5Eigen8internal47copy_using_evaluator_innervec_CompleteUnrollingINS0_31generic_dense_assignment_kernelINS0_9evaluatorINS_6MatrixIdLi2ELi2ELi0ELi2ELi2EEEEES6_NS0_13add_assign_opIddEELi0EEELi4ELi4EE3runERS9_, symObjAddr: 0x7C70, symBinAddr: 0x10001F004, symSize: 0x10 }
  - { offsetInCU: 0x48DE7, offset: 0x9B8DA, size: 0x8, addend: 0x0, symName: __ZN5Eigen8internal13add_assign_opIddEC2Ev, symObjAddr: 0x7C80, symBinAddr: 0x10001F014, symSize: 0x14 }
  - { offsetInCU: 0x48E14, offset: 0x9B907, size: 0x8, addend: 0x0, symName: __ZN5Eigen6MatrixIdLi2ELi2ELi0ELi2ELi2EEC1IS1_EERKNS_9EigenBaseIT_EE, symObjAddr: 0x7C94, symBinAddr: 0x10001F028, symSize: 0x34 }
  - { offsetInCU: 0x48E54, offset: 0x9B947, size: 0x8, addend: 0x0, symName: __ZN5Eigen9JacobiSVDINS_6MatrixIdLi2ELi2ELi0ELi2ELi2EEELi2EEC1ERKS2_j, symObjAddr: 0x7CC8, symBinAddr: 0x10001F05C, symSize: 0x3C }
  - { offsetInCU: 0x48E9A, offset: 0x9B98D, size: 0x8, addend: 0x0, symName: __ZN5Eigen6MatrixIdLi2ELi2ELi0ELi2ELi2EEC2IS1_EERKNS_9EigenBaseIT_EE, symObjAddr: 0x7D04, symBinAddr: 0x10001F098, symSize: 0x40 }
  - { offsetInCU: 0x48EDA, offset: 0x9B9CD, size: 0x8, addend: 0x0, symName: __ZN5Eigen15PlainObjectBaseINS_6MatrixIdLi2ELi2ELi0ELi2ELi2EEEEC2ERKS3_, symObjAddr: 0x7D44, symBinAddr: 0x10001F0D8, symSize: 0x44 }
  - { offsetInCU: 0x48F11, offset: 0x9BA04, size: 0x8, addend: 0x0, symName: __ZN5Eigen9JacobiSVDINS_6MatrixIdLi2ELi2ELi0ELi2ELi2EEELi2EEC2ERKS2_j, symObjAddr: 0x7D88, symBinAddr: 0x10001F11C, symSize: 0x8C }
  - { offsetInCU: 0x48F57, offset: 0x9BA4A, size: 0x8, addend: 0x0, symName: __ZN5Eigen7SVDBaseINS_9JacobiSVDINS_6MatrixIdLi2ELi2ELi0ELi2ELi2EEELi2EEEEC2Ev, symObjAddr: 0x7E14, symBinAddr: 0x10001F1A8, symSize: 0xBC }
  - { offsetInCU: 0x48F7F, offset: 0x9BA72, size: 0x8, addend: 0x0, symName: __ZN5Eigen9JacobiSVDINS_6MatrixIdLi2ELi2ELi0ELi2ELi2EEELi2EE7computeERKS2_j, symObjAddr: 0x7ED0, symBinAddr: 0x10001F264, symSize: 0x7AC }
  - { offsetInCU: 0x491BA, offset: 0x9BCAD, size: 0x8, addend: 0x0, symName: __ZN5Eigen7SVDBaseINS_9JacobiSVDINS_6MatrixIdLi2ELi2ELi0ELi2ELi2EEELi2EEEED2Ev, symObjAddr: 0x867C, symBinAddr: 0x10001FA10, symSize: 0x2C }
  - { offsetInCU: 0x491E4, offset: 0x9BCD7, size: 0x8, addend: 0x0, symName: __ZN5Eigen10SolverBaseINS_7SVDBaseINS_9JacobiSVDINS_6MatrixIdLi2ELi2ELi0ELi2ELi2EEELi2EEEEEEC2Ev, symObjAddr: 0x86A8, symBinAddr: 0x10001FA3C, symSize: 0x14 }
  - { offsetInCU: 0x4920C, offset: 0x9BCFF, size: 0x8, addend: 0x0, symName: __ZN5Eigen7SVDBaseINS_9JacobiSVDINS_6MatrixIdLi2ELi2ELi0ELi2ELi2EEELi2EEEE25check_template_parametersEv, symObjAddr: 0x86E8, symBinAddr: 0x10001FA50, symSize: 0x4 }
  - { offsetInCU: 0x49220, offset: 0x9BD13, size: 0x8, addend: 0x0, symName: __ZN5Eigen10SolverBaseINS_7SVDBaseINS_9JacobiSVDINS_6MatrixIdLi2ELi2ELi0ELi2ELi2EEELi2EEEEEED2Ev, symObjAddr: 0x86EC, symBinAddr: 0x10001FA54, symSize: 0x14 }
  - { offsetInCU: 0x49248, offset: 0x9BD3B, size: 0x8, addend: 0x0, symName: __ZN5Eigen9JacobiSVDINS_6MatrixIdLi2ELi2ELi0ELi2ELi2EEELi2EE8allocateEllj, symObjAddr: 0x8730, symBinAddr: 0x10001FA68, symSize: 0x370 }
  - { offsetInCU: 0x4929B, offset: 0x9BD8E, size: 0x8, addend: 0x0, symName: __ZN5Eigen16GenericNumTraitsIdE7epsilonEv, symObjAddr: 0x8AA0, symBinAddr: 0x10001FDD8, symSize: 0x14 }
  - { offsetInCU: 0x492AF, offset: 0x9BDA2, size: 0x8, addend: 0x0, symName: __ZNSt3__114numeric_limitsIdE3minB8ue170006Ev, symObjAddr: 0x8AB4, symBinAddr: 0x10001FDEC, symSize: 0x14 }
  - { offsetInCU: 0x492C3, offset: 0x9BDB6, size: 0x8, addend: 0x0, symName: __ZNK5Eigen10MatrixBaseINS_6MatrixIdLi2ELi2ELi0ELi2ELi2EEEE8cwiseAbsEv, symObjAddr: 0x8AC8, symBinAddr: 0x10001FE00, symSize: 0x4C }
  - { offsetInCU: 0x492E7, offset: 0x9BDDA, size: 0x8, addend: 0x0, symName: __ZNK5Eigen9DenseBaseINS_12CwiseUnaryOpINS_8internal13scalar_abs_opIdEEKNS_6MatrixIdLi2ELi2ELi0ELi2ELi2EEEEEE8maxCoeffILi1EEEdv, symObjAddr: 0x8B14, symBinAddr: 0x10001FE4C, symSize: 0x40 }
  - { offsetInCU: 0x49319, offset: 0x9BE0C, size: 0x8, addend: 0x0, symName: __ZNK5Eigen10MatrixBaseINS_6MatrixIdLi2ELi2ELi0ELi2ELi2EEEEdvIdEEKNS_13CwiseBinaryOpINS_8internal18scalar_quotient_opIdNS6_18promote_scalar_argIdT_Xsr5Eigen8internal14has_ReturnTypeINS_20ScalarBinaryOpTraitsIdS9_NS7_IdS9_EEEEEE5valueEE4typeEEEKS2_KNS6_19plain_constant_typeIS2_SE_E4typeEEERKS9_, symObjAddr: 0x8B7C, symBinAddr: 0x10001FEB4, symSize: 0xA8 }
  - { offsetInCU: 0x49354, offset: 0x9BE47, size: 0x8, addend: 0x0, symName: __ZN5Eigen6MatrixIdLi2ELi2ELi0ELi2ELi2EEaSINS_13CwiseBinaryOpINS_8internal18scalar_quotient_opIddEEKS1_KNS_14CwiseNullaryOpINS4_18scalar_constant_opIdEES7_EEEEEERS1_RKNS_9DenseBaseIT_EE, symObjAddr: 0x8C24, symBinAddr: 0x10001FF5C, symSize: 0x2C }
  - { offsetInCU: 0x4938F, offset: 0x9BE82, size: 0x8, addend: 0x0, symName: __ZN5Eigen8internal22qr_preconditioner_implINS_6MatrixIdLi2ELi2ELi0ELi2ELi2EEELi2ELi0ELb0EE3runERNS_9JacobiSVDIS3_Li2EEERKS3_, symObjAddr: 0x8C50, symBinAddr: 0x10001FF88, symSize: 0x20 }
  - { offsetInCU: 0x493C7, offset: 0x9BEBA, size: 0x8, addend: 0x0, symName: __ZN5Eigen8internal22qr_preconditioner_implINS_6MatrixIdLi2ELi2ELi0ELi2ELi2EEELi2ELi1ELb0EE3runERNS_9JacobiSVDIS3_Li2EEERKS3_, symObjAddr: 0x8C70, symBinAddr: 0x10001FFA8, symSize: 0x20 }
  - { offsetInCU: 0x49404, offset: 0x9BEF7, size: 0x8, addend: 0x0, symName: __ZNK5Eigen9DenseBaseINS_6MatrixIdLi2ELi2ELi0ELi2ELi2EEEE5blockIllEEKNS3_18ConstFixedBlockXprIXsr8internal15get_fixed_valueIT_EE5valueEXsr8internal15get_fixed_valueIT0_EE5valueEE4TypeEllS6_S7_, symObjAddr: 0x8C90, symBinAddr: 0x10001FFC8, symSize: 0x94 }
  - { offsetInCU: 0x49472, offset: 0x9BF65, size: 0x8, addend: 0x0, symName: __ZNK5Eigen10MatrixBaseINS_5BlockIKNS_6MatrixIdLi2ELi2ELi0ELi2ELi2EEELin1ELin1ELb0EEEEdvIdEEKNS_13CwiseBinaryOpINS_8internal18scalar_quotient_opIdNS9_18promote_scalar_argIdT_Xsr5Eigen8internal14has_ReturnTypeINS_20ScalarBinaryOpTraitsIdSC_NSA_IdSC_EEEEEE5valueEE4typeEEEKS5_KNS9_19plain_constant_typeIS5_SH_E4typeEEERKSC_, symObjAddr: 0x8D24, symBinAddr: 0x10002005C, symSize: 0xA8 }
  - { offsetInCU: 0x494AD, offset: 0x9BFA0, size: 0x8, addend: 0x0, symName: __ZN5Eigen6MatrixIdLi2ELi2ELi0ELi2ELi2EEaSINS_13CwiseBinaryOpINS_8internal18scalar_quotient_opIddEEKNS_5BlockIKS1_Lin1ELin1ELb0EEEKNS_14CwiseNullaryOpINS4_18scalar_constant_opIdEEKNS0_IdLin1ELin1ELi0ELi2ELi2EEEEEEEEERS1_RKNS_9DenseBaseIT_EE, symObjAddr: 0x8DCC, symBinAddr: 0x100020104, symSize: 0x2C }
  - { offsetInCU: 0x494E8, offset: 0x9BFDB, size: 0x8, addend: 0x0, symName: __ZN5Eigen10MatrixBaseINS_6MatrixIdLi2ELi2ELi0ELi2ELi2EEEE11setIdentityEll, symObjAddr: 0x8DF8, symBinAddr: 0x100020130, symSize: 0x44 }
  - { offsetInCU: 0x4952E, offset: 0x9C021, size: 0x8, addend: 0x0, symName: __ZNK5Eigen10MatrixBaseINS_12CwiseUnaryOpINS_8internal13scalar_abs_opIdEEKNS_6MatrixIdLi2ELi2ELi0ELi2ELi2EEEEEE8diagonalEv, symObjAddr: 0x8E3C, symBinAddr: 0x100020174, symSize: 0x3C }
  - { offsetInCU: 0x49554, offset: 0x9C047, size: 0x8, addend: 0x0, symName: __ZNK5Eigen9DenseBaseINS_8DiagonalIKNS_12CwiseUnaryOpINS_8internal13scalar_abs_opIdEEKNS_6MatrixIdLi2ELi2ELi0ELi2ELi2EEEEELi0EEEE8maxCoeffEv, symObjAddr: 0x8E78, symBinAddr: 0x1000201B0, symSize: 0x24 }
  - { offsetInCU: 0x49577, offset: 0x9C06A, size: 0x8, addend: 0x0, symName: __Z3absB8ue170006d, symObjAddr: 0x8E9C, symBinAddr: 0x1000201D4, symSize: 0x18 }
  - { offsetInCU: 0x495A4, offset: 0x9C097, size: 0x8, addend: 0x0, symName: __ZNK5Eigen15PlainObjectBaseINS_6MatrixIdLi2ELi2ELi0ELi2ELi2EEEE5coeffEll, symObjAddr: 0x8EB4, symBinAddr: 0x1000201EC, symSize: 0x60 }
  - { offsetInCU: 0x495F3, offset: 0x9C0E6, size: 0x8, addend: 0x0, symName: __ZN5Eigen8internal37svd_precondition_2x2_block_to_be_realINS_6MatrixIdLi2ELi2ELi0ELi2ELi2EEELi2ELb0EE3runERS3_RNS_9JacobiSVDIS3_Li2EEEllRd, symObjAddr: 0x8F14, symBinAddr: 0x10002024C, symSize: 0x28 }
  - { offsetInCU: 0x4963E, offset: 0x9C131, size: 0x8, addend: 0x0, symName: __ZN5Eigen14JacobiRotationIdEC1Ev, symObjAddr: 0x8F3C, symBinAddr: 0x100020274, symSize: 0x2C }
  - { offsetInCU: 0x49678, offset: 0x9C16B, size: 0x8, addend: 0x0, symName: __ZN5Eigen10MatrixBaseINS_6MatrixIdLi2ELi2ELi0ELi2ELi2EEEE14applyOnTheLeftIdEEvllRKNS_14JacobiRotationIT_EE, symObjAddr: 0x925C, symBinAddr: 0x100020594, symSize: 0x64 }
  - { offsetInCU: 0x496F5, offset: 0x9C1E8, size: 0x8, addend: 0x0, symName: __ZN5Eigen10MatrixBaseINS_6MatrixIdLi2ELi2ELi0ELi2ELi2EEEE15applyOnTheRightIdEEvllRKNS_14JacobiRotationIT_EE, symObjAddr: 0x92C0, symBinAddr: 0x1000205F8, symSize: 0x74 }
  - { offsetInCU: 0x49772, offset: 0x9C265, size: 0x8, addend: 0x0, symName: __ZNK5Eigen14JacobiRotationIdE9transposeEv, symObjAddr: 0x9334, symBinAddr: 0x10002066C, symSize: 0x4C }
  - { offsetInCU: 0x49796, offset: 0x9C289, size: 0x8, addend: 0x0, symName: __ZNK5Eigen7SVDBaseINS_9JacobiSVDINS_6MatrixIdLi2ELi2ELi0ELi2ELi2EEELi2EEEE8computeVEv, symObjAddr: 0x9380, symBinAddr: 0x1000206B8, symSize: 0x44 }
  - { offsetInCU: 0x497BA, offset: 0x9C2AD, size: 0x8, addend: 0x0, symName: __ZN5Eigen15PlainObjectBaseINS_6MatrixIdLi2ELi1ELi0ELi2ELi1EEEE8coeffRefEl, symObjAddr: 0x93E8, symBinAddr: 0x100020720, symSize: 0x30 }
  - { offsetInCU: 0x497EC, offset: 0x9C2DF, size: 0x8, addend: 0x0, symName: __ZN5Eigen9DenseBaseINS_6MatrixIdLi2ELi2ELi0ELi2ELi2EEEE3colEl, symObjAddr: 0x9418, symBinAddr: 0x100020750, symSize: 0x3C }
  - { offsetInCU: 0x4981F, offset: 0x9C312, size: 0x8, addend: 0x0, symName: __ZNK5Eigen9DenseBaseINS_5BlockINS_6MatrixIdLi2ELi2ELi0ELi2ELi2EEELi2ELi1ELb1EEEEngEv, symObjAddr: 0x9454, symBinAddr: 0x10002078C, symSize: 0x4C }
  - { offsetInCU: 0x49843, offset: 0x9C336, size: 0x8, addend: 0x0, symName: __ZN5Eigen5BlockINS_6MatrixIdLi2ELi2ELi0ELi2ELi2EEELi2ELi1ELb1EEaSINS_12CwiseUnaryOpINS_8internal18scalar_opposite_opIdEEKS3_EEEERS3_RKNS_9DenseBaseIT_EE, symObjAddr: 0x94A0, symBinAddr: 0x1000207D8, symSize: 0x40 }
  - { offsetInCU: 0x4987E, offset: 0x9C371, size: 0x8, addend: 0x0, symName: __ZN5Eigen9DenseBaseINS_6MatrixIdLi2ELi1ELi0ELi2ELi1EEEEmLERKd, symObjAddr: 0x94E0, symBinAddr: 0x100020818, symSize: 0x8C }
  - { offsetInCU: 0x498B8, offset: 0x9C3AB, size: 0x8, addend: 0x0, symName: __ZN5Eigen9DenseBaseINS_6MatrixIdLi2ELi1ELi0ELi2ELi1EEEE4tailIlEENS3_22FixedSegmentReturnTypeIXsr8internal15get_fixed_valueIT_EE5valueEE4TypeES6_, symObjAddr: 0x956C, symBinAddr: 0x1000208A4, symSize: 0x84 }
  - { offsetInCU: 0x498F9, offset: 0x9C3EC, size: 0x8, addend: 0x0, symName: __ZNK5Eigen9DenseBaseINS_5BlockINS_6MatrixIdLi2ELi1ELi0ELi2ELi1EEELin1ELi1ELb0EEEE8maxCoeffIlEEdPT_, symObjAddr: 0x95F0, symBinAddr: 0x100020928, symSize: 0x2C }
  - { offsetInCU: 0x49935, offset: 0x9C428, size: 0x8, addend: 0x0, symName: __ZN5Eigen9DenseBaseINS_5BlockINS_6MatrixIdLi2ELi2ELi0ELi2ELi2EEELi2ELi1ELb1EEEE4swapIS4_EEvRKNS0_IT_EE, symObjAddr: 0x9658, symBinAddr: 0x100020990, symSize: 0xEC }
  - { offsetInCU: 0x49971, offset: 0x9C464, size: 0x8, addend: 0x0, symName: __ZN5Eigen15PlainObjectBaseINS_6MatrixIdLi2ELi1ELi0ELi2ELi1EEEE6resizeEl, symObjAddr: 0x9770, symBinAddr: 0x100020AA8, symSize: 0xA0 }
  - { offsetInCU: 0x499A4, offset: 0x9C497, size: 0x8, addend: 0x0, symName: __ZN5Eigen8internal22qr_preconditioner_implINS_6MatrixIdLi2ELi2ELi0ELi2ELi2EEELi2ELi0ELb0EE8allocateERKNS_9JacobiSVDIS3_Li2EEE, symObjAddr: 0x9810, symBinAddr: 0x100020B48, symSize: 0x14 }
  - { offsetInCU: 0x499D2, offset: 0x9C4C5, size: 0x8, addend: 0x0, symName: __ZN5Eigen8internal22qr_preconditioner_implINS_6MatrixIdLi2ELi2ELi0ELi2ELi2EEELi2ELi1ELb0EE8allocateERKNS_9JacobiSVDIS3_Li2EEE, symObjAddr: 0x9824, symBinAddr: 0x100020B5C, symSize: 0x14 }
  - { offsetInCU: 0x49A14, offset: 0x9C507, size: 0x8, addend: 0x0, symName: __ZNKSt3__16__lessIvvEclB8ue170006IllEEbRKT_RKT0_, symObjAddr: 0x988C, symBinAddr: 0x100020BC4, symSize: 0x34 }
  - { offsetInCU: 0x49A66, offset: 0x9C559, size: 0x8, addend: 0x0, symName: __ZNSt3__114numeric_limitsIdE7epsilonB8ue170006Ev, symObjAddr: 0x98C0, symBinAddr: 0x100020BF8, symSize: 0x14 }
  - { offsetInCU: 0x49A7A, offset: 0x9C56D, size: 0x8, addend: 0x0, symName: __ZNSt3__123__libcpp_numeric_limitsIdLb1EE7epsilonB8ue170006Ev, symObjAddr: 0x98D4, symBinAddr: 0x100020C0C, symSize: 0xC }
  - { offsetInCU: 0x49A8E, offset: 0x9C581, size: 0x8, addend: 0x0, symName: __ZNSt3__123__libcpp_numeric_limitsIdLb1EE3minB8ue170006Ev, symObjAddr: 0x98E0, symBinAddr: 0x100020C18, symSize: 0xC }
  - { offsetInCU: 0x49AA2, offset: 0x9C595, size: 0x8, addend: 0x0, symName: __ZN5Eigen8internal13scalar_abs_opIdEC1Ev, symObjAddr: 0x98EC, symBinAddr: 0x100020C24, symSize: 0x2C }
  - { offsetInCU: 0x49ACA, offset: 0x9C5BD, size: 0x8, addend: 0x0, symName: __ZN5Eigen12CwiseUnaryOpINS_8internal13scalar_abs_opIdEEKNS_6MatrixIdLi2ELi2ELi0ELi2ELi2EEEEC1ERS6_RKS3_, symObjAddr: 0x9918, symBinAddr: 0x100020C50, symSize: 0x3C }
  - { offsetInCU: 0x49B0E, offset: 0x9C601, size: 0x8, addend: 0x0, symName: __ZN5Eigen8internal13scalar_abs_opIdEC2Ev, symObjAddr: 0x9954, symBinAddr: 0x100020C8C, symSize: 0x14 }
  - { offsetInCU: 0x49B36, offset: 0x9C629, size: 0x8, addend: 0x0, symName: __ZN5Eigen12CwiseUnaryOpINS_8internal13scalar_abs_opIdEEKNS_6MatrixIdLi2ELi2ELi0ELi2ELi2EEEEC2ERS6_RKS3_, symObjAddr: 0x9968, symBinAddr: 0x100020CA0, symSize: 0x4C }
  - { offsetInCU: 0x49B7F, offset: 0x9C672, size: 0x8, addend: 0x0, symName: __ZN5Eigen16CwiseUnaryOpImplINS_8internal13scalar_abs_opIdEEKNS_6MatrixIdLi2ELi2ELi0ELi2ELi2EEENS_5DenseEEC2Ev, symObjAddr: 0x99B4, symBinAddr: 0x100020CEC, symSize: 0x2C }
  - { offsetInCU: 0x49BA9, offset: 0x9C69C, size: 0x8, addend: 0x0, symName: __ZN5Eigen8internal13scalar_abs_opIdEC1ERKS2_, symObjAddr: 0x99E0, symBinAddr: 0x100020D18, symSize: 0x34 }
  - { offsetInCU: 0x49BDB, offset: 0x9C6CE, size: 0x8, addend: 0x0, symName: __ZN5Eigen10MatrixBaseINS_12CwiseUnaryOpINS_8internal13scalar_abs_opIdEEKNS_6MatrixIdLi2ELi2ELi0ELi2ELi2EEEEEEC2Ev, symObjAddr: 0x9A14, symBinAddr: 0x100020D4C, symSize: 0x2C }
  - { offsetInCU: 0x49C03, offset: 0x9C6F6, size: 0x8, addend: 0x0, symName: __ZN5Eigen9DenseBaseINS_12CwiseUnaryOpINS_8internal13scalar_abs_opIdEEKNS_6MatrixIdLi2ELi2ELi0ELi2ELi2EEEEEEC2Ev, symObjAddr: 0x9A40, symBinAddr: 0x100020D78, symSize: 0x14 }
  - { offsetInCU: 0x49C2B, offset: 0x9C71E, size: 0x8, addend: 0x0, symName: __ZN5Eigen8internal13scalar_abs_opIdEC2ERKS2_, symObjAddr: 0x9A54, symBinAddr: 0x100020D8C, symSize: 0x18 }
  - { offsetInCU: 0x49C5D, offset: 0x9C750, size: 0x8, addend: 0x0, symName: __ZNK5Eigen9EigenBaseINS_12CwiseUnaryOpINS_8internal13scalar_abs_opIdEEKNS_6MatrixIdLi2ELi2ELi0ELi2ELi2EEEEEE7derivedEv, symObjAddr: 0x9A6C, symBinAddr: 0x100020DA4, symSize: 0x14 }
  - { offsetInCU: 0x49C81, offset: 0x9C774, size: 0x8, addend: 0x0, symName: __ZNK5Eigen9DenseBaseINS_12CwiseUnaryOpINS_8internal13scalar_abs_opIdEEKNS_6MatrixIdLi2ELi2ELi0ELi2ELi2EEEEEE5reduxINS2_13scalar_max_opIddLi1EEEEEdRKT_, symObjAddr: 0x9A80, symBinAddr: 0x100020DB8, symSize: 0x10C }
  - { offsetInCU: 0x49CDC, offset: 0x9C7CF, size: 0x8, addend: 0x0, symName: __ZN5Eigen8internal13scalar_max_opIddLi1EEC1Ev, symObjAddr: 0x9B8C, symBinAddr: 0x100020EC4, symSize: 0x2C }
  - { offsetInCU: 0x49D04, offset: 0x9C7F7, size: 0x8, addend: 0x0, symName: __ZNK5Eigen9EigenBaseINS_12CwiseUnaryOpINS_8internal13scalar_abs_opIdEEKNS_6MatrixIdLi2ELi2ELi0ELi2ELi2EEEEEE4rowsEv, symObjAddr: 0x9BB8, symBinAddr: 0x100020EF0, symSize: 0x28 }
  - { offsetInCU: 0x49D28, offset: 0x9C81B, size: 0x8, addend: 0x0, symName: __ZNK5Eigen9EigenBaseINS_12CwiseUnaryOpINS_8internal13scalar_abs_opIdEEKNS_6MatrixIdLi2ELi2ELi0ELi2ELi2EEEEEE4colsEv, symObjAddr: 0x9BE0, symBinAddr: 0x100020F18, symSize: 0x28 }
  - { offsetInCU: 0x49D4C, offset: 0x9C83F, size: 0x8, addend: 0x0, symName: __ZN5Eigen8internal15redux_evaluatorINS_12CwiseUnaryOpINS0_13scalar_abs_opIdEEKNS_6MatrixIdLi2ELi2ELi0ELi2ELi2EEEEEEC1ERKS8_, symObjAddr: 0x9C08, symBinAddr: 0x100020F40, symSize: 0x34 }
  - { offsetInCU: 0x49D83, offset: 0x9C876, size: 0x8, addend: 0x0, symName: __ZN5Eigen8internal10redux_implINS0_13scalar_max_opIddLi1EEENS0_15redux_evaluatorINS_12CwiseUnaryOpINS0_13scalar_abs_opIdEEKNS_6MatrixIdLi2ELi2ELi0ELi2ELi2EEEEEEELi3ELi2EE3runISB_EEdRKSC_RKS3_RKT_, symObjAddr: 0x9C3C, symBinAddr: 0x100020F74, symSize: 0xCC }
  - { offsetInCU: 0x49DEA, offset: 0x9C8DD, size: 0x8, addend: 0x0, symName: __ZN5Eigen8internal15redux_evaluatorINS_12CwiseUnaryOpINS0_13scalar_abs_opIdEEKNS_6MatrixIdLi2ELi2ELi0ELi2ELi2EEEEEED1Ev, symObjAddr: 0x9D08, symBinAddr: 0x100021040, symSize: 0x2C }
  - { offsetInCU: 0x49E15, offset: 0x9C908, size: 0x8, addend: 0x0, symName: __ZNK5Eigen12CwiseUnaryOpINS_8internal13scalar_abs_opIdEEKNS_6MatrixIdLi2ELi2ELi0ELi2ELi2EEEE4rowsEv, symObjAddr: 0x9D34, symBinAddr: 0x10002106C, symSize: 0x28 }
  - { offsetInCU: 0x49E39, offset: 0x9C92C, size: 0x8, addend: 0x0, symName: __ZNK5Eigen12CwiseUnaryOpINS_8internal13scalar_abs_opIdEEKNS_6MatrixIdLi2ELi2ELi0ELi2ELi2EEEE4colsEv, symObjAddr: 0x9D5C, symBinAddr: 0x100021094, symSize: 0x28 }
  - { offsetInCU: 0x49E5D, offset: 0x9C950, size: 0x8, addend: 0x0, symName: __ZN5Eigen8internal15redux_evaluatorINS_12CwiseUnaryOpINS0_13scalar_abs_opIdEEKNS_6MatrixIdLi2ELi2ELi0ELi2ELi2EEEEEEC2ERKS8_, symObjAddr: 0x9D84, symBinAddr: 0x1000210BC, symSize: 0x34 }
  - { offsetInCU: 0x49E94, offset: 0x9C987, size: 0x8, addend: 0x0, symName: __ZN5Eigen8internal9evaluatorINS_12CwiseUnaryOpINS0_13scalar_abs_opIdEEKNS_6MatrixIdLi2ELi2ELi0ELi2ELi2EEEEEEC2ERKS8_, symObjAddr: 0x9DB8, symBinAddr: 0x1000210F0, symSize: 0x34 }
  - { offsetInCU: 0x49ECA, offset: 0x9C9BD, size: 0x8, addend: 0x0, symName: __ZN5Eigen8internal15unary_evaluatorINS_12CwiseUnaryOpINS0_13scalar_abs_opIdEEKNS_6MatrixIdLi2ELi2ELi0ELi2ELi2EEEEENS0_10IndexBasedEdEC2ERKS8_, symObjAddr: 0x9DEC, symBinAddr: 0x100021124, symSize: 0x64 }
  - { offsetInCU: 0x49F01, offset: 0x9C9F4, size: 0x8, addend: 0x0, symName: __ZN5Eigen8internal14evaluator_baseINS_12CwiseUnaryOpINS0_13scalar_abs_opIdEEKNS_6MatrixIdLi2ELi2ELi0ELi2ELi2EEEEEEC2Ev, symObjAddr: 0x9E50, symBinAddr: 0x100021188, symSize: 0x14 }
  - { offsetInCU: 0x49F29, offset: 0x9CA1C, size: 0x8, addend: 0x0, symName: __ZN5Eigen8internal15unary_evaluatorINS_12CwiseUnaryOpINS0_13scalar_abs_opIdEEKNS_6MatrixIdLi2ELi2ELi0ELi2ELi2EEEEENS0_10IndexBasedEdE4DataC1ERKS8_, symObjAddr: 0x9E64, symBinAddr: 0x10002119C, symSize: 0x34 }
  - { offsetInCU: 0x49F60, offset: 0x9CA53, size: 0x8, addend: 0x0, symName: __ZN5Eigen8internal14evaluator_baseINS_12CwiseUnaryOpINS0_13scalar_abs_opIdEEKNS_6MatrixIdLi2ELi2ELi0ELi2ELi2EEEEEED2Ev, symObjAddr: 0x9E98, symBinAddr: 0x1000211D0, symSize: 0x14 }
  - { offsetInCU: 0x49F88, offset: 0x9CA7B, size: 0x8, addend: 0x0, symName: __ZN5Eigen8internal15unary_evaluatorINS_12CwiseUnaryOpINS0_13scalar_abs_opIdEEKNS_6MatrixIdLi2ELi2ELi0ELi2ELi2EEEEENS0_10IndexBasedEdE4DataC2ERKS8_, symObjAddr: 0x9EAC, symBinAddr: 0x1000211E4, symSize: 0x58 }
  - { offsetInCU: 0x49FBF, offset: 0x9CAB2, size: 0x8, addend: 0x0, symName: __ZNK5Eigen12CwiseUnaryOpINS_8internal13scalar_abs_opIdEEKNS_6MatrixIdLi2ELi2ELi0ELi2ELi2EEEE7functorEv, symObjAddr: 0x9F04, symBinAddr: 0x10002123C, symSize: 0x18 }
  - { offsetInCU: 0x49FE3, offset: 0x9CAD6, size: 0x8, addend: 0x0, symName: __ZNK5Eigen12CwiseUnaryOpINS_8internal13scalar_abs_opIdEEKNS_6MatrixIdLi2ELi2ELi0ELi2ELi2EEEE16nestedExpressionEv, symObjAddr: 0x9F1C, symBinAddr: 0x100021254, symSize: 0x18 }
  - { offsetInCU: 0x4A007, offset: 0x9CAFA, size: 0x8, addend: 0x0, symName: __ZN5Eigen8internal9evaluatorIKNS_6MatrixIdLi2ELi2ELi0ELi2ELi2EEEEC1ERS4_, symObjAddr: 0x9F34, symBinAddr: 0x10002126C, symSize: 0x34 }
  - { offsetInCU: 0x4A03D, offset: 0x9CB30, size: 0x8, addend: 0x0, symName: __ZN5Eigen8internal9evaluatorIKNS_6MatrixIdLi2ELi2ELi0ELi2ELi2EEEEC2ERS4_, symObjAddr: 0x9F68, symBinAddr: 0x1000212A0, symSize: 0x34 }
  - { offsetInCU: 0x4A073, offset: 0x9CB66, size: 0x8, addend: 0x0, symName: __ZNK5Eigen8internal13scalar_max_opIddLi1EE6preduxI19__simd128_float64_tEEdRKT_, symObjAddr: 0x9F9C, symBinAddr: 0x1000212D4, symSize: 0x28 }
  - { offsetInCU: 0x4A0AE, offset: 0x9CBA1, size: 0x8, addend: 0x0, symName: __ZN5Eigen8internal18redux_vec_unrollerINS0_13scalar_max_opIddLi1EEENS0_15redux_evaluatorINS_12CwiseUnaryOpINS0_13scalar_abs_opIdEEKNS_6MatrixIdLi2ELi2ELi0ELi2ELi2EEEEEEELi0ELi2EE3runI19__simd128_float64_tEET_RKSC_RKS3_, symObjAddr: 0x9FC4, symBinAddr: 0x1000212FC, symSize: 0x60 }
  - { offsetInCU: 0x4A0FC, offset: 0x9CBEF, size: 0x8, addend: 0x0, symName: __ZN5Eigen8internal12pminmax_implILi1EE3runIdPFdRKdS5_EEET_RKS8_SA_T0_, symObjAddr: 0xA1C8, symBinAddr: 0x100021500, symSize: 0x8C }
  - { offsetInCU: 0x4A16D, offset: 0x9CC60, size: 0x8, addend: 0x0, symName: __ZN5Eigen8internal10ptrue_implIdvE3runERKd, symObjAddr: 0xA374, symBinAddr: 0x1000216AC, symSize: 0x1C }
  - { offsetInCU: 0x4A199, offset: 0x9CC8C, size: 0x8, addend: 0x0, symName: __ZN5Eigen8internal10pzero_implIdvE3runERKd, symObjAddr: 0xA390, symBinAddr: 0x1000216C8, symSize: 0x14 }
  - { offsetInCU: 0x4A1B8, offset: 0x9CCAB, size: 0x8, addend: 0x0, symName: __ZN5Eigen8internal12pselect_implIdvE3runERKdS4_S4_, symObjAddr: 0xA3A4, symBinAddr: 0x1000216DC, symSize: 0x64 }
  - { offsetInCU: 0x4A203, offset: 0x9CCF6, size: 0x8, addend: 0x0, symName: __ZNKSt3__18equal_toIdEclB8ue170006ERKdS3_, symObjAddr: 0xA43C, symBinAddr: 0x100021774, symSize: 0x34 }
  - { offsetInCU: 0x4A245, offset: 0x9CD38, size: 0x8, addend: 0x0, symName: __ZNK5Eigen8internal13scalar_max_opIddLi1EE8packetOpI19__simd128_float64_tEET_RKS5_S7_, symObjAddr: 0xA470, symBinAddr: 0x1000217A8, symSize: 0x30 }
  - { offsetInCU: 0x4A28E, offset: 0x9CD81, size: 0x8, addend: 0x0, symName: __ZNK5Eigen8internal15redux_evaluatorINS_12CwiseUnaryOpINS0_13scalar_abs_opIdEEKNS_6MatrixIdLi2ELi2ELi0ELi2ELi2EEEEEE18packetByOuterInnerILi16E19__simd128_float64_tEET0_ll, symObjAddr: 0xA56C, symBinAddr: 0x1000218A4, symSize: 0x34 }
  - { offsetInCU: 0x4A2E3, offset: 0x9CDD6, size: 0x8, addend: 0x0, symName: __ZNK5Eigen8internal15unary_evaluatorINS_12CwiseUnaryOpINS0_13scalar_abs_opIdEEKNS_6MatrixIdLi2ELi2ELi0ELi2ELi2EEEEENS0_10IndexBasedEdE6packetILi16E19__simd128_float64_tEET0_ll, symObjAddr: 0xA5A0, symBinAddr: 0x1000218D8, symSize: 0x58 }
  - { offsetInCU: 0x4A338, offset: 0x9CE2B, size: 0x8, addend: 0x0, symName: __ZNK5Eigen8internal15unary_evaluatorINS_12CwiseUnaryOpINS0_13scalar_abs_opIdEEKNS_6MatrixIdLi2ELi2ELi0ELi2ELi2EEEEENS0_10IndexBasedEdE4Data4funcEv, symObjAddr: 0xA5F8, symBinAddr: 0x100021930, symSize: 0x14 }
  - { offsetInCU: 0x4A35C, offset: 0x9CE4F, size: 0x8, addend: 0x0, symName: __ZNK5Eigen8internal13scalar_abs_opIdE8packetOpI19__simd128_float64_tEEKT_RS6_, symObjAddr: 0xA60C, symBinAddr: 0x100021944, symSize: 0x28 }
  - { offsetInCU: 0x4A397, offset: 0x9CE8A, size: 0x8, addend: 0x0, symName: __ZN5Eigen8internal15redux_evaluatorINS_12CwiseUnaryOpINS0_13scalar_abs_opIdEEKNS_6MatrixIdLi2ELi2ELi0ELi2ELi2EEEEEED2Ev, symObjAddr: 0xA660, symBinAddr: 0x100021998, symSize: 0x2C }
  - { offsetInCU: 0x4A3C2, offset: 0x9CEB5, size: 0x8, addend: 0x0, symName: __ZN5Eigen8internal9evaluatorINS_12CwiseUnaryOpINS0_13scalar_abs_opIdEEKNS_6MatrixIdLi2ELi2ELi0ELi2ELi2EEEEEED2Ev, symObjAddr: 0xA68C, symBinAddr: 0x1000219C4, symSize: 0x2C }
  - { offsetInCU: 0x4A3EC, offset: 0x9CEDF, size: 0x8, addend: 0x0, symName: __ZN5Eigen8internal15unary_evaluatorINS_12CwiseUnaryOpINS0_13scalar_abs_opIdEEKNS_6MatrixIdLi2ELi2ELi0ELi2ELi2EEEEENS0_10IndexBasedEdED2Ev, symObjAddr: 0xA6B8, symBinAddr: 0x1000219F0, symSize: 0x34 }
  - { offsetInCU: 0x4A416, offset: 0x9CF09, size: 0x8, addend: 0x0, symName: __ZN5Eigen8internal15unary_evaluatorINS_12CwiseUnaryOpINS0_13scalar_abs_opIdEEKNS_6MatrixIdLi2ELi2ELi0ELi2ELi2EEEEENS0_10IndexBasedEdE4DataD1Ev, symObjAddr: 0xA6EC, symBinAddr: 0x100021A24, symSize: 0x2C }
  - { offsetInCU: 0x4A441, offset: 0x9CF34, size: 0x8, addend: 0x0, symName: __ZN5Eigen8internal15unary_evaluatorINS_12CwiseUnaryOpINS0_13scalar_abs_opIdEEKNS_6MatrixIdLi2ELi2ELi0ELi2ELi2EEEEENS0_10IndexBasedEdE4DataD2Ev, symObjAddr: 0xA718, symBinAddr: 0x100021A50, symSize: 0x30 }
  - { offsetInCU: 0x4A46C, offset: 0x9CF5F, size: 0x8, addend: 0x0, symName: __ZN5Eigen8internal9evaluatorIKNS_6MatrixIdLi2ELi2ELi0ELi2ELi2EEEED1Ev, symObjAddr: 0xA748, symBinAddr: 0x100021A80, symSize: 0x2C }
  - { offsetInCU: 0x4A496, offset: 0x9CF89, size: 0x8, addend: 0x0, symName: __ZN5Eigen8internal9evaluatorIKNS_6MatrixIdLi2ELi2ELi0ELi2ELi2EEEED2Ev, symObjAddr: 0xA774, symBinAddr: 0x100021AAC, symSize: 0x2C }
  - { offsetInCU: 0x4A4C0, offset: 0x9CFB3, size: 0x8, addend: 0x0, symName: __ZN5Eigen8internal13scalar_max_opIddLi1EEC2Ev, symObjAddr: 0xA7A0, symBinAddr: 0x100021AD8, symSize: 0x14 }
  - { offsetInCU: 0x4A4E7, offset: 0x9CFDA, size: 0x8, addend: 0x0, symName: __Z8isfiniteB8ue170006IdLi0EEbT_, symObjAddr: 0xA7E0, symBinAddr: 0x100021B18, symSize: 0x34 }
  - { offsetInCU: 0x4A525, offset: 0x9D018, size: 0x8, addend: 0x0, symName: __ZN5Eigen8internal18scalar_constant_opIdEC1ERKd, symObjAddr: 0xA814, symBinAddr: 0x100021B4C, symSize: 0x34 }
  - { offsetInCU: 0x4A55B, offset: 0x9D04E, size: 0x8, addend: 0x0, symName: __ZN5Eigen14CwiseNullaryOpINS_8internal18scalar_constant_opIdEEKNS_6MatrixIdLi2ELi2ELi0ELi2ELi2EEEEC1EllRKS3_, symObjAddr: 0xA848, symBinAddr: 0x100021B80, symSize: 0x44 }
  - { offsetInCU: 0x4A5AD, offset: 0x9D0A0, size: 0x8, addend: 0x0, symName: __ZN5Eigen8internal18scalar_quotient_opIddEC1Ev, symObjAddr: 0xA88C, symBinAddr: 0x100021BC4, symSize: 0x2C }
  - { offsetInCU: 0x4A5D5, offset: 0x9D0C8, size: 0x8, addend: 0x0, symName: __ZN5Eigen13CwiseBinaryOpINS_8internal18scalar_quotient_opIddEEKNS_6MatrixIdLi2ELi2ELi0ELi2ELi2EEEKNS_14CwiseNullaryOpINS1_18scalar_constant_opIdEES6_EEEC1ERS6_RSB_RKS3_, symObjAddr: 0xA8B8, symBinAddr: 0x100021BF0, symSize: 0x44 }
  - { offsetInCU: 0x4A627, offset: 0x9D11A, size: 0x8, addend: 0x0, symName: __ZN5Eigen8internal18scalar_constant_opIdEC2ERKd, symObjAddr: 0xA8FC, symBinAddr: 0x100021C34, symSize: 0x24 }
  - { offsetInCU: 0x4A65D, offset: 0x9D150, size: 0x8, addend: 0x0, symName: __ZN5Eigen14CwiseNullaryOpINS_8internal18scalar_constant_opIdEEKNS_6MatrixIdLi2ELi2ELi0ELi2ELi2EEEEC2EllRKS3_, symObjAddr: 0xA920, symBinAddr: 0x100021C58, symSize: 0x108 }
  - { offsetInCU: 0x4A6AF, offset: 0x9D1A2, size: 0x8, addend: 0x0, symName: __ZN5Eigen10MatrixBaseINS_14CwiseNullaryOpINS_8internal18scalar_constant_opIdEEKNS_6MatrixIdLi2ELi2ELi0ELi2ELi2EEEEEEC2Ev, symObjAddr: 0xAA28, symBinAddr: 0x100021D60, symSize: 0x2C }
  - { offsetInCU: 0x4A6D7, offset: 0x9D1CA, size: 0x8, addend: 0x0, symName: __ZN5Eigen8internal18scalar_constant_opIdEC1ERKS2_, symObjAddr: 0xAA88, symBinAddr: 0x100021D8C, symSize: 0x34 }
  - { offsetInCU: 0x4A70D, offset: 0x9D200, size: 0x8, addend: 0x0, symName: __ZN5Eigen9DenseBaseINS_14CwiseNullaryOpINS_8internal18scalar_constant_opIdEEKNS_6MatrixIdLi2ELi2ELi0ELi2ELi2EEEEEEC2Ev, symObjAddr: 0xAABC, symBinAddr: 0x100021DC0, symSize: 0x14 }
  - { offsetInCU: 0x4A735, offset: 0x9D228, size: 0x8, addend: 0x0, symName: __ZN5Eigen8internal18scalar_constant_opIdEC2ERKS2_, symObjAddr: 0xAB34, symBinAddr: 0x100021DD4, symSize: 0x24 }
  - { offsetInCU: 0x4A76B, offset: 0x9D25E, size: 0x8, addend: 0x0, symName: __ZN5Eigen8internal18scalar_quotient_opIddEC2Ev, symObjAddr: 0xAB58, symBinAddr: 0x100021DF8, symSize: 0x14 }
  - { offsetInCU: 0x4A793, offset: 0x9D286, size: 0x8, addend: 0x0, symName: __ZN5Eigen13CwiseBinaryOpINS_8internal18scalar_quotient_opIddEEKNS_6MatrixIdLi2ELi2ELi0ELi2ELi2EEEKNS_14CwiseNullaryOpINS1_18scalar_constant_opIdEES6_EEEC2ERS6_RSB_RKS3_, symObjAddr: 0xAB6C, symBinAddr: 0x100021E0C, symSize: 0xF8 }
  - { offsetInCU: 0x4A7EA, offset: 0x9D2DD, size: 0x8, addend: 0x0, symName: __ZN5Eigen17CwiseBinaryOpImplINS_8internal18scalar_quotient_opIddEEKNS_6MatrixIdLi2ELi2ELi0ELi2ELi2EEEKNS_14CwiseNullaryOpINS1_18scalar_constant_opIdEES6_EENS_5DenseEEC2Ev, symObjAddr: 0xAC64, symBinAddr: 0x100021F04, symSize: 0x2C }
  - { offsetInCU: 0x4A814, offset: 0x9D307, size: 0x8, addend: 0x0, symName: __ZN5Eigen14CwiseNullaryOpINS_8internal18scalar_constant_opIdEEKNS_6MatrixIdLi2ELi2ELi0ELi2ELi2EEEEC1ERKS7_, symObjAddr: 0xAC90, symBinAddr: 0x100021F30, symSize: 0x34 }
  - { offsetInCU: 0x4A847, offset: 0x9D33A, size: 0x8, addend: 0x0, symName: __ZN5Eigen8internal18scalar_quotient_opIddEC1ERKS2_, symObjAddr: 0xACC4, symBinAddr: 0x100021F64, symSize: 0x34 }
  - { offsetInCU: 0x4A87A, offset: 0x9D36D, size: 0x8, addend: 0x0, symName: __ZNK5Eigen14CwiseNullaryOpINS_8internal18scalar_constant_opIdEEKNS_6MatrixIdLi2ELi2ELi0ELi2ELi2EEEE4rowsEv, symObjAddr: 0xACF8, symBinAddr: 0x100021F98, symSize: 0x20 }
  - { offsetInCU: 0x4A89E, offset: 0x9D391, size: 0x8, addend: 0x0, symName: __ZNK5Eigen14CwiseNullaryOpINS_8internal18scalar_constant_opIdEEKNS_6MatrixIdLi2ELi2ELi0ELi2ELi2EEEE4colsEv, symObjAddr: 0xAD18, symBinAddr: 0x100021FB8, symSize: 0x20 }
  - { offsetInCU: 0x4A8C2, offset: 0x9D3B5, size: 0x8, addend: 0x0, symName: __ZN5Eigen10MatrixBaseINS_13CwiseBinaryOpINS_8internal18scalar_quotient_opIddEEKNS_6MatrixIdLi2ELi2ELi0ELi2ELi2EEEKNS_14CwiseNullaryOpINS2_18scalar_constant_opIdEES7_EEEEEC2Ev, symObjAddr: 0xAD38, symBinAddr: 0x100021FD8, symSize: 0x2C }
  - { offsetInCU: 0x4A8EA, offset: 0x9D3DD, size: 0x8, addend: 0x0, symName: __ZN5Eigen9DenseBaseINS_13CwiseBinaryOpINS_8internal18scalar_quotient_opIddEEKNS_6MatrixIdLi2ELi2ELi0ELi2ELi2EEEKNS_14CwiseNullaryOpINS2_18scalar_constant_opIdEES7_EEEEEC2Ev, symObjAddr: 0xAD64, symBinAddr: 0x100022004, symSize: 0x14 }
  - { offsetInCU: 0x4A912, offset: 0x9D405, size: 0x8, addend: 0x0, symName: __ZN5Eigen14CwiseNullaryOpINS_8internal18scalar_constant_opIdEEKNS_6MatrixIdLi2ELi2ELi0ELi2ELi2EEEEC2ERKS7_, symObjAddr: 0xAD78, symBinAddr: 0x100022018, symSize: 0x48 }
  - { offsetInCU: 0x4A945, offset: 0x9D438, size: 0x8, addend: 0x0, symName: __ZN5Eigen8internal18scalar_quotient_opIddEC2ERKS2_, symObjAddr: 0xADC0, symBinAddr: 0x100022060, symSize: 0x18 }
  - { offsetInCU: 0x4A978, offset: 0x9D46B, size: 0x8, addend: 0x0, symName: __ZN5Eigen15PlainObjectBaseINS_6MatrixIdLi2ELi2ELi0ELi2ELi2EEEE4_setINS_13CwiseBinaryOpINS_8internal18scalar_quotient_opIddEEKS2_KNS_14CwiseNullaryOpINS6_18scalar_constant_opIdEES9_EEEEEERS2_RKNS_9DenseBaseIT_EE, symObjAddr: 0xADE0, symBinAddr: 0x100022078, symSize: 0x4C }
  - { offsetInCU: 0x4A9B4, offset: 0x9D4A7, size: 0x8, addend: 0x0, symName: __ZNK5Eigen9EigenBaseINS_13CwiseBinaryOpINS_8internal18scalar_quotient_opIddEEKNS_6MatrixIdLi2ELi2ELi0ELi2ELi2EEEKNS_14CwiseNullaryOpINS2_18scalar_constant_opIdEES7_EEEEE7derivedEv, symObjAddr: 0xAE7C, symBinAddr: 0x100022114, symSize: 0x14 }
  - { offsetInCU: 0x4A9D8, offset: 0x9D4CB, size: 0x8, addend: 0x0, symName: __ZN5Eigen8internal10AssignmentINS_6MatrixIdLi2ELi2ELi0ELi2ELi2EEENS_13CwiseBinaryOpINS0_18scalar_quotient_opIddEEKS3_KNS_14CwiseNullaryOpINS0_18scalar_constant_opIdEES7_EEEENS0_9assign_opIddEENS0_11Dense2DenseEvE3runERS3_RKSD_RKSF_, symObjAddr: 0xAF04, symBinAddr: 0x10002219C, symSize: 0x40 }
  - { offsetInCU: 0x4AA19, offset: 0x9D50C, size: 0x8, addend: 0x0, symName: __ZN5Eigen8internal27checkTransposeAliasing_implINS_6MatrixIdLi2ELi2ELi0ELi2ELi2EEENS_13CwiseBinaryOpINS0_18scalar_quotient_opIddEEKS3_KNS_14CwiseNullaryOpINS0_18scalar_constant_opIdEES7_EEEELb0EE3runERS7_RKSD_, symObjAddr: 0xB07C, symBinAddr: 0x100022314, symSize: 0x14 }
  - { offsetInCU: 0x4AA43, offset: 0x9D536, size: 0x8, addend: 0x0, symName: __ZN5Eigen8internal9evaluatorINS_13CwiseBinaryOpINS0_18scalar_quotient_opIddEEKNS_6MatrixIdLi2ELi2ELi0ELi2ELi2EEEKNS_14CwiseNullaryOpINS0_18scalar_constant_opIdEES7_EEEEEC1ERKSD_, symObjAddr: 0xB090, symBinAddr: 0x100022328, symSize: 0x34 }
  - { offsetInCU: 0x4AA7A, offset: 0x9D56D, size: 0x8, addend: 0x0, symName: __ZN5Eigen8internal31generic_dense_assignment_kernelINS0_9evaluatorINS_6MatrixIdLi2ELi2ELi0ELi2ELi2EEEEENS2_INS_13CwiseBinaryOpINS0_18scalar_quotient_opIddEEKS4_KNS_14CwiseNullaryOpINS0_18scalar_constant_opIdEES9_EEEEEENS0_9assign_opIddEELi0EEC1ERS5_RKSG_RKSI_RS4_, symObjAddr: 0xB1BC, symBinAddr: 0x100022454, symSize: 0x4C }
  - { offsetInCU: 0x4AADE, offset: 0x9D5D1, size: 0x8, addend: 0x0, symName: __ZN5Eigen8internal21dense_assignment_loopINS0_31generic_dense_assignment_kernelINS0_9evaluatorINS_6MatrixIdLi2ELi2ELi0ELi2ELi2EEEEENS3_INS_13CwiseBinaryOpINS0_18scalar_quotient_opIddEEKS5_KNS_14CwiseNullaryOpINS0_18scalar_constant_opIdEESA_EEEEEENS0_9assign_opIddEELi0EEELi2ELi2EE3runERSK_, symObjAddr: 0xB208, symBinAddr: 0x1000224A0, symSize: 0x24 }
  - { offsetInCU: 0x4AB01, offset: 0x9D5F4, size: 0x8, addend: 0x0, symName: __ZN5Eigen8internal9evaluatorINS_13CwiseBinaryOpINS0_18scalar_quotient_opIddEEKNS_6MatrixIdLi2ELi2ELi0ELi2ELi2EEEKNS_14CwiseNullaryOpINS0_18scalar_constant_opIdEES7_EEEEED1Ev, symObjAddr: 0xB22C, symBinAddr: 0x1000224C4, symSize: 0x2C }
  - { offsetInCU: 0x4AB2C, offset: 0x9D61F, size: 0x8, addend: 0x0, symName: __ZN5Eigen8internal9evaluatorINS_13CwiseBinaryOpINS0_18scalar_quotient_opIddEEKNS_6MatrixIdLi2ELi2ELi0ELi2ELi2EEEKNS_14CwiseNullaryOpINS0_18scalar_constant_opIdEES7_EEEEEC2ERKSD_, symObjAddr: 0xB258, symBinAddr: 0x1000224F0, symSize: 0x34 }
  - { offsetInCU: 0x4AB63, offset: 0x9D656, size: 0x8, addend: 0x0, symName: __ZN5Eigen8internal16binary_evaluatorINS_13CwiseBinaryOpINS0_18scalar_quotient_opIddEEKNS_6MatrixIdLi2ELi2ELi0ELi2ELi2EEEKNS_14CwiseNullaryOpINS0_18scalar_constant_opIdEES7_EEEENS0_10IndexBasedESE_ddEC2ERKSD_, symObjAddr: 0xB28C, symBinAddr: 0x100022524, symSize: 0x64 }
  - { offsetInCU: 0x4AB9A, offset: 0x9D68D, size: 0x8, addend: 0x0, symName: __ZN5Eigen8internal14evaluator_baseINS_13CwiseBinaryOpINS0_18scalar_quotient_opIddEEKNS_6MatrixIdLi2ELi2ELi0ELi2ELi2EEEKNS_14CwiseNullaryOpINS0_18scalar_constant_opIdEES7_EEEEEC2Ev, symObjAddr: 0xB2F0, symBinAddr: 0x100022588, symSize: 0x14 }
  - { offsetInCU: 0x4ABC2, offset: 0x9D6B5, size: 0x8, addend: 0x0, symName: __ZN5Eigen8internal16binary_evaluatorINS_13CwiseBinaryOpINS0_18scalar_quotient_opIddEEKNS_6MatrixIdLi2ELi2ELi0ELi2ELi2EEEKNS_14CwiseNullaryOpINS0_18scalar_constant_opIdEES7_EEEENS0_10IndexBasedESE_ddE4DataC1ERKSD_, symObjAddr: 0xB304, symBinAddr: 0x10002259C, symSize: 0x34 }
  - { offsetInCU: 0x4ABF9, offset: 0x9D6EC, size: 0x8, addend: 0x0, symName: __ZN5Eigen8internal14evaluator_baseINS_13CwiseBinaryOpINS0_18scalar_quotient_opIddEEKNS_6MatrixIdLi2ELi2ELi0ELi2ELi2EEEKNS_14CwiseNullaryOpINS0_18scalar_constant_opIdEES7_EEEEED2Ev, symObjAddr: 0xB338, symBinAddr: 0x1000225D0, symSize: 0x14 }
  - { offsetInCU: 0x4AC21, offset: 0x9D714, size: 0x8, addend: 0x0, symName: __ZN5Eigen8internal16binary_evaluatorINS_13CwiseBinaryOpINS0_18scalar_quotient_opIddEEKNS_6MatrixIdLi2ELi2ELi0ELi2ELi2EEEKNS_14CwiseNullaryOpINS0_18scalar_constant_opIdEES7_EEEENS0_10IndexBasedESE_ddE4DataC2ERKSD_, symObjAddr: 0xB34C, symBinAddr: 0x1000225E4, symSize: 0xA8 }
  - { offsetInCU: 0x4AC58, offset: 0x9D74B, size: 0x8, addend: 0x0, symName: __ZNK5Eigen13CwiseBinaryOpINS_8internal18scalar_quotient_opIddEEKNS_6MatrixIdLi2ELi2ELi0ELi2ELi2EEEKNS_14CwiseNullaryOpINS1_18scalar_constant_opIdEES6_EEE7functorEv, symObjAddr: 0xB3F4, symBinAddr: 0x10002268C, symSize: 0x18 }
  - { offsetInCU: 0x4AC7C, offset: 0x9D76F, size: 0x8, addend: 0x0, symName: __ZNK5Eigen13CwiseBinaryOpINS_8internal18scalar_quotient_opIddEEKNS_6MatrixIdLi2ELi2ELi0ELi2ELi2EEEKNS_14CwiseNullaryOpINS1_18scalar_constant_opIdEES6_EEE3lhsEv, symObjAddr: 0xB40C, symBinAddr: 0x1000226A4, symSize: 0x18 }
  - { offsetInCU: 0x4ACA0, offset: 0x9D793, size: 0x8, addend: 0x0, symName: __ZNK5Eigen13CwiseBinaryOpINS_8internal18scalar_quotient_opIddEEKNS_6MatrixIdLi2ELi2ELi0ELi2ELi2EEEKNS_14CwiseNullaryOpINS1_18scalar_constant_opIdEES6_EEE3rhsEv, symObjAddr: 0xB424, symBinAddr: 0x1000226BC, symSize: 0x18 }
  - { offsetInCU: 0x4ACC4, offset: 0x9D7B7, size: 0x8, addend: 0x0, symName: __ZN5Eigen8internal9evaluatorIKNS_14CwiseNullaryOpINS0_18scalar_constant_opIdEEKNS_6MatrixIdLi2ELi2ELi0ELi2ELi2EEEEEEC1ERS9_, symObjAddr: 0xB43C, symBinAddr: 0x1000226D4, symSize: 0x34 }
  - { offsetInCU: 0x4ACFA, offset: 0x9D7ED, size: 0x8, addend: 0x0, symName: __ZN5Eigen8internal9evaluatorIKNS_14CwiseNullaryOpINS0_18scalar_constant_opIdEEKNS_6MatrixIdLi2ELi2ELi0ELi2ELi2EEEEEEC2ERS9_, symObjAddr: 0xB470, symBinAddr: 0x100022708, symSize: 0x34 }
  - { offsetInCU: 0x4AD30, offset: 0x9D823, size: 0x8, addend: 0x0, symName: __ZN5Eigen8internal9evaluatorINS_14CwiseNullaryOpINS0_18scalar_constant_opIdEEKNS_6MatrixIdLi2ELi2ELi0ELi2ELi2EEEEEEC2ERKS8_, symObjAddr: 0xB4A4, symBinAddr: 0x10002273C, symSize: 0x74 }
  - { offsetInCU: 0x4AD67, offset: 0x9D85A, size: 0x8, addend: 0x0, symName: __ZN5Eigen8internal14evaluator_baseINS_14CwiseNullaryOpINS0_18scalar_constant_opIdEEKNS_6MatrixIdLi2ELi2ELi0ELi2ELi2EEEEEEC2Ev, symObjAddr: 0xB518, symBinAddr: 0x1000227B0, symSize: 0x14 }
  - { offsetInCU: 0x4AD8F, offset: 0x9D882, size: 0x8, addend: 0x0, symName: __ZNK5Eigen14CwiseNullaryOpINS_8internal18scalar_constant_opIdEEKNS_6MatrixIdLi2ELi2ELi0ELi2ELi2EEEE7functorEv, symObjAddr: 0xB52C, symBinAddr: 0x1000227C4, symSize: 0x18 }
  - { offsetInCU: 0x4ADB3, offset: 0x9D8A6, size: 0x8, addend: 0x0, symName: __ZN5Eigen8internal14evaluator_baseINS_14CwiseNullaryOpINS0_18scalar_constant_opIdEEKNS_6MatrixIdLi2ELi2ELi0ELi2ELi2EEEEEED2Ev, symObjAddr: 0xB544, symBinAddr: 0x1000227DC, symSize: 0x14 }
  - { offsetInCU: 0x4ADDB, offset: 0x9D8CE, size: 0x8, addend: 0x0, symName: __ZNK5Eigen13CwiseBinaryOpINS_8internal18scalar_quotient_opIddEEKNS_6MatrixIdLi2ELi2ELi0ELi2ELi2EEEKNS_14CwiseNullaryOpINS1_18scalar_constant_opIdEES6_EEE4rowsEv, symObjAddr: 0xB558, symBinAddr: 0x1000227F0, symSize: 0x28 }
  - { offsetInCU: 0x4ADFF, offset: 0x9D8F2, size: 0x8, addend: 0x0, symName: __ZNK5Eigen13CwiseBinaryOpINS_8internal18scalar_quotient_opIddEEKNS_6MatrixIdLi2ELi2ELi0ELi2ELi2EEEKNS_14CwiseNullaryOpINS1_18scalar_constant_opIdEES6_EEE4colsEv, symObjAddr: 0xB580, symBinAddr: 0x100022818, symSize: 0x28 }
  - { offsetInCU: 0x4AE23, offset: 0x9D916, size: 0x8, addend: 0x0, symName: __ZN5Eigen8internal31generic_dense_assignment_kernelINS0_9evaluatorINS_6MatrixIdLi2ELi2ELi0ELi2ELi2EEEEENS2_INS_13CwiseBinaryOpINS0_18scalar_quotient_opIddEEKS4_KNS_14CwiseNullaryOpINS0_18scalar_constant_opIdEES9_EEEEEENS0_9assign_opIddEELi0EEC2ERS5_RKSG_RKSI_RS4_, symObjAddr: 0xB5A8, symBinAddr: 0x100022840, symSize: 0x44 }
  - { offsetInCU: 0x4AE87, offset: 0x9D97A, size: 0x8, addend: 0x0, symName: __ZN5Eigen8internal47copy_using_evaluator_innervec_CompleteUnrollingINS0_31generic_dense_assignment_kernelINS0_9evaluatorINS_6MatrixIdLi2ELi2ELi0ELi2ELi2EEEEENS3_INS_13CwiseBinaryOpINS0_18scalar_quotient_opIddEEKS5_KNS_14CwiseNullaryOpINS0_18scalar_constant_opIdEESA_EEEEEENS0_9assign_opIddEELi0EEELi0ELi4EE3runERSK_, symObjAddr: 0xB5EC, symBinAddr: 0x100022884, symSize: 0x34 }
  - { offsetInCU: 0x4AEAA, offset: 0x9D99D, size: 0x8, addend: 0x0, symName: __ZN5Eigen8internal31generic_dense_assignment_kernelINS0_9evaluatorINS_6MatrixIdLi2ELi2ELi0ELi2ELi2EEEEENS2_INS_13CwiseBinaryOpINS0_18scalar_quotient_opIddEEKS4_KNS_14CwiseNullaryOpINS0_18scalar_constant_opIdEES9_EEEEEENS0_9assign_opIddEELi0EE24assignPacketByOuterInnerILi16ELi16E19__simd128_float64_tEEvll, symObjAddr: 0xB620, symBinAddr: 0x1000228B8, symSize: 0x60 }
  - { offsetInCU: 0x4AF27, offset: 0x9DA1A, size: 0x8, addend: 0x0, symName: __ZN5Eigen8internal47copy_using_evaluator_innervec_CompleteUnrollingINS0_31generic_dense_assignment_kernelINS0_9evaluatorINS_6MatrixIdLi2ELi2ELi0ELi2ELi2EEEEENS3_INS_13CwiseBinaryOpINS0_18scalar_quotient_opIddEEKS5_KNS_14CwiseNullaryOpINS0_18scalar_constant_opIdEESA_EEEEEENS0_9assign_opIddEELi0EEELi2ELi4EE3runERSK_, symObjAddr: 0xB680, symBinAddr: 0x100022918, symSize: 0x34 }
  - { offsetInCU: 0x4AF4A, offset: 0x9DA3D, size: 0x8, addend: 0x0, symName: __ZN5Eigen8internal31generic_dense_assignment_kernelINS0_9evaluatorINS_6MatrixIdLi2ELi2ELi0ELi2ELi2EEEEENS2_INS_13CwiseBinaryOpINS0_18scalar_quotient_opIddEEKS4_KNS_14CwiseNullaryOpINS0_18scalar_constant_opIdEES9_EEEEEENS0_9assign_opIddEELi0EE20rowIndexByOuterInnerEll, symObjAddr: 0xB6B4, symBinAddr: 0x10002294C, symSize: 0x18 }
  - { offsetInCU: 0x4AF7C, offset: 0x9DA6F, size: 0x8, addend: 0x0, symName: __ZN5Eigen8internal31generic_dense_assignment_kernelINS0_9evaluatorINS_6MatrixIdLi2ELi2ELi0ELi2ELi2EEEEENS2_INS_13CwiseBinaryOpINS0_18scalar_quotient_opIddEEKS4_KNS_14CwiseNullaryOpINS0_18scalar_constant_opIdEES9_EEEEEENS0_9assign_opIddEELi0EE20colIndexByOuterInnerEll, symObjAddr: 0xB6CC, symBinAddr: 0x100022964, symSize: 0x18 }
  - { offsetInCU: 0x4AFAE, offset: 0x9DAA1, size: 0x8, addend: 0x0, symName: __ZN5Eigen8internal31generic_dense_assignment_kernelINS0_9evaluatorINS_6MatrixIdLi2ELi2ELi0ELi2ELi2EEEEENS2_INS_13CwiseBinaryOpINS0_18scalar_quotient_opIddEEKS4_KNS_14CwiseNullaryOpINS0_18scalar_constant_opIdEES9_EEEEEENS0_9assign_opIddEELi0EE12assignPacketILi16ELi16E19__simd128_float64_tEEvll, symObjAddr: 0xB6E4, symBinAddr: 0x10002297C, symSize: 0x70 }
  - { offsetInCU: 0x4B00D, offset: 0x9DB00, size: 0x8, addend: 0x0, symName: __ZNK5Eigen8internal16binary_evaluatorINS_13CwiseBinaryOpINS0_18scalar_quotient_opIddEEKNS_6MatrixIdLi2ELi2ELi0ELi2ELi2EEEKNS_14CwiseNullaryOpINS0_18scalar_constant_opIdEES7_EEEENS0_10IndexBasedESE_ddE6packetILi16E19__simd128_float64_tEET0_ll, symObjAddr: 0xB754, symBinAddr: 0x1000229EC, symSize: 0x7C }
  - { offsetInCU: 0x4B062, offset: 0x9DB55, size: 0x8, addend: 0x0, symName: __ZNK5Eigen8internal16binary_evaluatorINS_13CwiseBinaryOpINS0_18scalar_quotient_opIddEEKNS_6MatrixIdLi2ELi2ELi0ELi2ELi2EEEKNS_14CwiseNullaryOpINS0_18scalar_constant_opIdEES7_EEEENS0_10IndexBasedESE_ddE4Data4funcEv, symObjAddr: 0xB7D0, symBinAddr: 0x100022A68, symSize: 0x14 }
  - { offsetInCU: 0x4B086, offset: 0x9DB79, size: 0x8, addend: 0x0, symName: __ZNK5Eigen8internal18scalar_quotient_opIddE8packetOpI19__simd128_float64_tEEKT_RS6_S7_, symObjAddr: 0xB7E4, symBinAddr: 0x100022A7C, symSize: 0x30 }
  - { offsetInCU: 0x4B0DB, offset: 0x9DBCE, size: 0x8, addend: 0x0, symName: __ZNK5Eigen8internal9evaluatorINS_14CwiseNullaryOpINS0_18scalar_constant_opIdEEKNS_6MatrixIdLi2ELi2ELi0ELi2ELi2EEEEEE6packetILi16E19__simd128_float64_tlEET0_T1_SD_, symObjAddr: 0xB814, symBinAddr: 0x100022AAC, symSize: 0x3C }
  - { offsetInCU: 0x4B13E, offset: 0x9DC31, size: 0x8, addend: 0x0, symName: __ZNK5Eigen8internal15nullary_wrapperIdNS0_18scalar_constant_opIdEELb1ELb0ELb0EE8packetOpI19__simd128_float64_tlEET_RKS3_T0_SA_, symObjAddr: 0xB890, symBinAddr: 0x100022B28, symSize: 0x30 }
  - { offsetInCU: 0x4B199, offset: 0x9DC8C, size: 0x8, addend: 0x0, symName: __ZNK5Eigen8internal18scalar_constant_opIdE8packetOpI19__simd128_float64_tEEKT_v, symObjAddr: 0xB8C0, symBinAddr: 0x100022B58, symSize: 0x24 }
  - { offsetInCU: 0x4B1C6, offset: 0x9DCB9, size: 0x8, addend: 0x0, symName: __ZN5Eigen8internal47copy_using_evaluator_innervec_CompleteUnrollingINS0_31generic_dense_assignment_kernelINS0_9evaluatorINS_6MatrixIdLi2ELi2ELi0ELi2ELi2EEEEENS3_INS_13CwiseBinaryOpINS0_18scalar_quotient_opIddEEKS5_KNS_14CwiseNullaryOpINS0_18scalar_constant_opIdEESA_EEEEEENS0_9assign_opIddEELi0EEELi4ELi4EE3runERSK_, symObjAddr: 0xB8E4, symBinAddr: 0x100022B7C, symSize: 0x10 }
  - { offsetInCU: 0x4B1E5, offset: 0x9DCD8, size: 0x8, addend: 0x0, symName: __ZN5Eigen8internal9evaluatorINS_13CwiseBinaryOpINS0_18scalar_quotient_opIddEEKNS_6MatrixIdLi2ELi2ELi0ELi2ELi2EEEKNS_14CwiseNullaryOpINS0_18scalar_constant_opIdEES7_EEEEED2Ev, symObjAddr: 0xB8F4, symBinAddr: 0x100022B8C, symSize: 0x2C }
  - { offsetInCU: 0x4B210, offset: 0x9DD03, size: 0x8, addend: 0x0, symName: __ZN5Eigen8internal16binary_evaluatorINS_13CwiseBinaryOpINS0_18scalar_quotient_opIddEEKNS_6MatrixIdLi2ELi2ELi0ELi2ELi2EEEKNS_14CwiseNullaryOpINS0_18scalar_constant_opIdEES7_EEEENS0_10IndexBasedESE_ddED2Ev, symObjAddr: 0xB920, symBinAddr: 0x100022BB8, symSize: 0x34 }
  - { offsetInCU: 0x4B23A, offset: 0x9DD2D, size: 0x8, addend: 0x0, symName: __ZN5Eigen8internal16binary_evaluatorINS_13CwiseBinaryOpINS0_18scalar_quotient_opIddEEKNS_6MatrixIdLi2ELi2ELi0ELi2ELi2EEEKNS_14CwiseNullaryOpINS0_18scalar_constant_opIdEES7_EEEENS0_10IndexBasedESE_ddE4DataD1Ev, symObjAddr: 0xB954, symBinAddr: 0x100022BEC, symSize: 0x2C }
  - { offsetInCU: 0x4B265, offset: 0x9DD58, size: 0x8, addend: 0x0, symName: __ZN5Eigen8internal16binary_evaluatorINS_13CwiseBinaryOpINS0_18scalar_quotient_opIddEEKNS_6MatrixIdLi2ELi2ELi0ELi2ELi2EEEKNS_14CwiseNullaryOpINS0_18scalar_constant_opIdEES7_EEEENS0_10IndexBasedESE_ddE4DataD2Ev, symObjAddr: 0xB980, symBinAddr: 0x100022C18, symSize: 0x3C }
  - { offsetInCU: 0x4B290, offset: 0x9DD83, size: 0x8, addend: 0x0, symName: __ZN5Eigen8internal9evaluatorIKNS_14CwiseNullaryOpINS0_18scalar_constant_opIdEEKNS_6MatrixIdLi2ELi2ELi0ELi2ELi2EEEEEED1Ev, symObjAddr: 0xB9BC, symBinAddr: 0x100022C54, symSize: 0x2C }
  - { offsetInCU: 0x4B2BA, offset: 0x9DDAD, size: 0x8, addend: 0x0, symName: __ZN5Eigen8internal9evaluatorIKNS_14CwiseNullaryOpINS0_18scalar_constant_opIdEEKNS_6MatrixIdLi2ELi2ELi0ELi2ELi2EEEEEED2Ev, symObjAddr: 0xB9E8, symBinAddr: 0x100022C80, symSize: 0x2C }
  - { offsetInCU: 0x4B2E4, offset: 0x9DDD7, size: 0x8, addend: 0x0, symName: __ZN5Eigen8internal9evaluatorINS_14CwiseNullaryOpINS0_18scalar_constant_opIdEEKNS_6MatrixIdLi2ELi2ELi0ELi2ELi2EEEEEED2Ev, symObjAddr: 0xBA14, symBinAddr: 0x100022CAC, symSize: 0x2C }
  - { offsetInCU: 0x4B30E, offset: 0x9DE01, size: 0x8, addend: 0x0, symName: __ZN5Eigen5BlockIKNS_6MatrixIdLi2ELi2ELi0ELi2ELi2EEELin1ELin1ELb0EEC1ERS3_llll, symObjAddr: 0xBA58, symBinAddr: 0x100022CF0, symSize: 0x54 }
  - { offsetInCU: 0x4B37C, offset: 0x9DE6F, size: 0x8, addend: 0x0, symName: __ZN5Eigen5BlockIKNS_6MatrixIdLi2ELi2ELi0ELi2ELi2EEELin1ELin1ELb0EEC2ERS3_llll, symObjAddr: 0xBAAC, symBinAddr: 0x100022D44, symSize: 0x154 }
  - { offsetInCU: 0x4B3EA, offset: 0x9DEDD, size: 0x8, addend: 0x0, symName: __ZN5Eigen9BlockImplIKNS_6MatrixIdLi2ELi2ELi0ELi2ELi2EEELin1ELin1ELb0ENS_5DenseEEC2ERS3_llll, symObjAddr: 0xBC00, symBinAddr: 0x100022E98, symSize: 0x54 }
  - { offsetInCU: 0x4B458, offset: 0x9DF4B, size: 0x8, addend: 0x0, symName: __ZN5Eigen8internal15BlockImpl_denseIKNS_6MatrixIdLi2ELi2ELi0ELi2ELi2EEELin1ELin1ELb0ELb1EEC2ERS4_llll, symObjAddr: 0xBC54, symBinAddr: 0x100022EEC, symSize: 0xC4 }
  - { offsetInCU: 0x4B4CB, offset: 0x9DFBE, size: 0x8, addend: 0x0, symName: __ZNK5Eigen6MatrixIdLi2ELi2ELi0ELi2ELi2EE11innerStrideEv, symObjAddr: 0xBD18, symBinAddr: 0x100022FB0, symSize: 0x14 }
  - { offsetInCU: 0x4B4EF, offset: 0x9DFE2, size: 0x8, addend: 0x0, symName: __ZN5Eigen7MapBaseINS_5BlockIKNS_6MatrixIdLi2ELi2ELi0ELi2ELi2EEELin1ELin1ELb0EEELi0EEC2EPKdll, symObjAddr: 0xBD2C, symBinAddr: 0x100022FC4, symSize: 0x110 }
  - { offsetInCU: 0x4B541, offset: 0x9E034, size: 0x8, addend: 0x0, symName: __ZN5Eigen8internal19variable_if_dynamicIlLin1EEC1El, symObjAddr: 0xBE3C, symBinAddr: 0x1000230D4, symSize: 0x34 }
  - { offsetInCU: 0x4B577, offset: 0x9E06A, size: 0x8, addend: 0x0, symName: __ZN5Eigen8internal15BlockImpl_denseIKNS_6MatrixIdLi2ELi2ELi0ELi2ELi2EEELin1ELin1ELb0ELb1EE4initEv, symObjAddr: 0xBE70, symBinAddr: 0x100023108, symSize: 0x34 }
  - { offsetInCU: 0x4B59B, offset: 0x9E08E, size: 0x8, addend: 0x0, symName: __ZN5Eigen10MatrixBaseINS_5BlockIKNS_6MatrixIdLi2ELi2ELi0ELi2ELi2EEELin1ELin1ELb0EEEEC2Ev, symObjAddr: 0xBEA4, symBinAddr: 0x10002313C, symSize: 0x2C }
  - { offsetInCU: 0x4B5C3, offset: 0x9E0B6, size: 0x8, addend: 0x0, symName: __ZNK5Eigen7MapBaseINS_5BlockIKNS_6MatrixIdLi2ELi2ELi0ELi2ELi2EEELin1ELin1ELb0EEELi0EE11checkSanityIS5_EEvNS_8internal9enable_ifIXeqsr8internal6traitsIT_EE9AlignmentLi0EEPvE4typeE, symObjAddr: 0xBED0, symBinAddr: 0x100023168, symSize: 0x14 }
  - { offsetInCU: 0x4B5FA, offset: 0x9E0ED, size: 0x8, addend: 0x0, symName: __ZN5Eigen9DenseBaseINS_5BlockIKNS_6MatrixIdLi2ELi2ELi0ELi2ELi2EEELin1ELin1ELb0EEEEC2Ev, symObjAddr: 0xBEE4, symBinAddr: 0x10002317C, symSize: 0x14 }
  - { offsetInCU: 0x4B622, offset: 0x9E115, size: 0x8, addend: 0x0, symName: __ZN5Eigen8internal19variable_if_dynamicIlLin1EEC2El, symObjAddr: 0xBEF8, symBinAddr: 0x100023190, symSize: 0x20 }
  - { offsetInCU: 0x4B658, offset: 0x9E14B, size: 0x8, addend: 0x0, symName: __ZNK5Eigen9EigenBaseINS_5BlockIKNS_6MatrixIdLi2ELi2ELi0ELi2ELi2EEELin1ELin1ELb0EEEE7derivedEv, symObjAddr: 0xBF18, symBinAddr: 0x1000231B0, symSize: 0x14 }
  - { offsetInCU: 0x4B67C, offset: 0x9E16F, size: 0x8, addend: 0x0, symName: __ZNK5Eigen7MapBaseINS_5BlockIKNS_6MatrixIdLi2ELi2ELi0ELi2ELi2EEELin1ELin1ELb0EEELi0EE4rowsEv, symObjAddr: 0xBF2C, symBinAddr: 0x1000231C4, symSize: 0x38 }
  - { offsetInCU: 0x4B6A0, offset: 0x9E193, size: 0x8, addend: 0x0, symName: __ZNK5Eigen7MapBaseINS_5BlockIKNS_6MatrixIdLi2ELi2ELi0ELi2ELi2EEELin1ELin1ELb0EEELi0EE4colsEv, symObjAddr: 0xBF64, symBinAddr: 0x1000231FC, symSize: 0x28 }
  - { offsetInCU: 0x4B6C4, offset: 0x9E1B7, size: 0x8, addend: 0x0, symName: __ZN5Eigen14CwiseNullaryOpINS_8internal18scalar_constant_opIdEEKNS_6MatrixIdLin1ELin1ELi0ELi2ELi2EEEEC1EllRKS3_, symObjAddr: 0xBF8C, symBinAddr: 0x100023224, symSize: 0x44 }
  - { offsetInCU: 0x4B716, offset: 0x9E209, size: 0x8, addend: 0x0, symName: __ZN5Eigen13CwiseBinaryOpINS_8internal18scalar_quotient_opIddEEKNS_5BlockIKNS_6MatrixIdLi2ELi2ELi0ELi2ELi2EEELin1ELin1ELb0EEEKNS_14CwiseNullaryOpINS1_18scalar_constant_opIdEEKNS5_IdLin1ELin1ELi0ELi2ELi2EEEEEEC1ERS9_RSG_RKS3_, symObjAddr: 0xBFD0, symBinAddr: 0x100023268, symSize: 0x44 }
  - { offsetInCU: 0x4B768, offset: 0x9E25B, size: 0x8, addend: 0x0, symName: __ZNK5Eigen8internal19variable_if_dynamicIlLin1EE5valueEv, symObjAddr: 0xC014, symBinAddr: 0x1000232AC, symSize: 0x18 }
  - { offsetInCU: 0x4B78C, offset: 0x9E27F, size: 0x8, addend: 0x0, symName: __ZN5Eigen14CwiseNullaryOpINS_8internal18scalar_constant_opIdEEKNS_6MatrixIdLin1ELin1ELi0ELi2ELi2EEEEC2EllRKS3_, symObjAddr: 0xC02C, symBinAddr: 0x1000232C4, symSize: 0xDC }
  - { offsetInCU: 0x4B7DE, offset: 0x9E2D1, size: 0x8, addend: 0x0, symName: __ZN5Eigen10MatrixBaseINS_14CwiseNullaryOpINS_8internal18scalar_constant_opIdEEKNS_6MatrixIdLin1ELin1ELi0ELi2ELi2EEEEEEC2Ev, symObjAddr: 0xC108, symBinAddr: 0x1000233A0, symSize: 0x2C }
  - { offsetInCU: 0x4B806, offset: 0x9E2F9, size: 0x8, addend: 0x0, symName: __ZN5Eigen9DenseBaseINS_14CwiseNullaryOpINS_8internal18scalar_constant_opIdEEKNS_6MatrixIdLin1ELin1ELi0ELi2ELi2EEEEEEC2Ev, symObjAddr: 0xC134, symBinAddr: 0x1000233CC, symSize: 0x14 }
  - { offsetInCU: 0x4B82E, offset: 0x9E321, size: 0x8, addend: 0x0, symName: __ZN5Eigen13CwiseBinaryOpINS_8internal18scalar_quotient_opIddEEKNS_5BlockIKNS_6MatrixIdLi2ELi2ELi0ELi2ELi2EEELin1ELin1ELb0EEEKNS_14CwiseNullaryOpINS1_18scalar_constant_opIdEEKNS5_IdLin1ELin1ELi0ELi2ELi2EEEEEEC2ERS9_RSG_RKS3_, symObjAddr: 0xC148, symBinAddr: 0x1000233E0, symSize: 0xFC }
  - { offsetInCU: 0x4B885, offset: 0x9E378, size: 0x8, addend: 0x0, symName: __ZN5Eigen17CwiseBinaryOpImplINS_8internal18scalar_quotient_opIddEEKNS_5BlockIKNS_6MatrixIdLi2ELi2ELi0ELi2ELi2EEELin1ELin1ELb0EEEKNS_14CwiseNullaryOpINS1_18scalar_constant_opIdEEKNS5_IdLin1ELin1ELi0ELi2ELi2EEEEENS_5DenseEEC2Ev, symObjAddr: 0xC244, symBinAddr: 0x1000234DC, symSize: 0x2C }
  - { offsetInCU: 0x4B8AF, offset: 0x9E3A2, size: 0x8, addend: 0x0, symName: __ZN5Eigen14CwiseNullaryOpINS_8internal18scalar_constant_opIdEEKNS_6MatrixIdLin1ELin1ELi0ELi2ELi2EEEEC1ERKS7_, symObjAddr: 0xC270, symBinAddr: 0x100023508, symSize: 0x34 }
  - { offsetInCU: 0x4B8E2, offset: 0x9E3D5, size: 0x8, addend: 0x0, symName: __ZNK5Eigen14CwiseNullaryOpINS_8internal18scalar_constant_opIdEEKNS_6MatrixIdLin1ELin1ELi0ELi2ELi2EEEE4rowsEv, symObjAddr: 0xC2A4, symBinAddr: 0x10002353C, symSize: 0x24 }
  - { offsetInCU: 0x4B906, offset: 0x9E3F9, size: 0x8, addend: 0x0, symName: __ZNK5Eigen14CwiseNullaryOpINS_8internal18scalar_constant_opIdEEKNS_6MatrixIdLin1ELin1ELi0ELi2ELi2EEEE4colsEv, symObjAddr: 0xC2C8, symBinAddr: 0x100023560, symSize: 0x28 }
  - { offsetInCU: 0x4B92A, offset: 0x9E41D, size: 0x8, addend: 0x0, symName: __ZN5Eigen10MatrixBaseINS_13CwiseBinaryOpINS_8internal18scalar_quotient_opIddEEKNS_5BlockIKNS_6MatrixIdLi2ELi2ELi0ELi2ELi2EEELin1ELin1ELb0EEEKNS_14CwiseNullaryOpINS2_18scalar_constant_opIdEEKNS6_IdLin1ELin1ELi0ELi2ELi2EEEEEEEEC2Ev, symObjAddr: 0xC2F0, symBinAddr: 0x100023588, symSize: 0x2C }
  - { offsetInCU: 0x4B952, offset: 0x9E445, size: 0x8, addend: 0x0, symName: __ZN5Eigen9DenseBaseINS_13CwiseBinaryOpINS_8internal18scalar_quotient_opIddEEKNS_5BlockIKNS_6MatrixIdLi2ELi2ELi0ELi2ELi2EEELin1ELin1ELb0EEEKNS_14CwiseNullaryOpINS2_18scalar_constant_opIdEEKNS6_IdLin1ELin1ELi0ELi2ELi2EEEEEEEEC2Ev, symObjAddr: 0xC31C, symBinAddr: 0x1000235B4, symSize: 0x14 }
  - { offsetInCU: 0x4B97A, offset: 0x9E46D, size: 0x8, addend: 0x0, symName: __ZN5Eigen14CwiseNullaryOpINS_8internal18scalar_constant_opIdEEKNS_6MatrixIdLin1ELin1ELi0ELi2ELi2EEEEC2ERKS7_, symObjAddr: 0xC330, symBinAddr: 0x1000235C8, symSize: 0x48 }
  - { offsetInCU: 0x4B9AD, offset: 0x9E4A0, size: 0x8, addend: 0x0, symName: __ZN5Eigen15PlainObjectBaseINS_6MatrixIdLi2ELi2ELi0ELi2ELi2EEEE4_setINS_13CwiseBinaryOpINS_8internal18scalar_quotient_opIddEEKNS_5BlockIKS2_Lin1ELin1ELb0EEEKNS_14CwiseNullaryOpINS6_18scalar_constant_opIdEEKNS1_IdLin1ELin1ELi0ELi2ELi2EEEEEEEEERS2_RKNS_9DenseBaseIT_EE, symObjAddr: 0xC378, symBinAddr: 0x100023610, symSize: 0x4C }
  - { offsetInCU: 0x4B9E9, offset: 0x9E4DC, size: 0x8, addend: 0x0, symName: __ZNK5Eigen9EigenBaseINS_13CwiseBinaryOpINS_8internal18scalar_quotient_opIddEEKNS_5BlockIKNS_6MatrixIdLi2ELi2ELi0ELi2ELi2EEELin1ELin1ELb0EEEKNS_14CwiseNullaryOpINS2_18scalar_constant_opIdEEKNS6_IdLin1ELin1ELi0ELi2ELi2EEEEEEEE7derivedEv, symObjAddr: 0xC414, symBinAddr: 0x1000236AC, symSize: 0x14 }
  - { offsetInCU: 0x4BA0D, offset: 0x9E500, size: 0x8, addend: 0x0, symName: __ZN5Eigen8internal10AssignmentINS_6MatrixIdLi2ELi2ELi0ELi2ELi2EEENS_13CwiseBinaryOpINS0_18scalar_quotient_opIddEEKNS_5BlockIKS3_Lin1ELin1ELb0EEEKNS_14CwiseNullaryOpINS0_18scalar_constant_opIdEEKNS2_IdLin1ELin1ELi0ELi2ELi2EEEEEEENS0_9assign_opIddEENS0_11Dense2DenseEvE3runERS3_RKSI_RKSK_, symObjAddr: 0xC49C, symBinAddr: 0x100023734, symSize: 0x40 }
  - { offsetInCU: 0x4BA4E, offset: 0x9E541, size: 0x8, addend: 0x0, symName: __ZN5Eigen8internal27checkTransposeAliasing_implINS_6MatrixIdLi2ELi2ELi0ELi2ELi2EEENS_13CwiseBinaryOpINS0_18scalar_quotient_opIddEEKNS_5BlockIKS3_Lin1ELin1ELb0EEEKNS_14CwiseNullaryOpINS0_18scalar_constant_opIdEEKNS2_IdLin1ELin1ELi0ELi2ELi2EEEEEEELb0EE3runERS8_RKSI_, symObjAddr: 0xC614, symBinAddr: 0x1000238AC, symSize: 0x14 }
  - { offsetInCU: 0x4BA78, offset: 0x9E56B, size: 0x8, addend: 0x0, symName: __ZN5Eigen8internal9evaluatorINS_13CwiseBinaryOpINS0_18scalar_quotient_opIddEEKNS_5BlockIKNS_6MatrixIdLi2ELi2ELi0ELi2ELi2EEELin1ELin1ELb0EEEKNS_14CwiseNullaryOpINS0_18scalar_constant_opIdEEKNS6_IdLin1ELin1ELi0ELi2ELi2EEEEEEEEC1ERKSI_, symObjAddr: 0xC628, symBinAddr: 0x1000238C0, symSize: 0x34 }
  - { offsetInCU: 0x4BAAF, offset: 0x9E5A2, size: 0x8, addend: 0x0, symName: __ZN5Eigen8internal31generic_dense_assignment_kernelINS0_9evaluatorINS_6MatrixIdLi2ELi2ELi0ELi2ELi2EEEEENS2_INS_13CwiseBinaryOpINS0_18scalar_quotient_opIddEEKNS_5BlockIKS4_Lin1ELin1ELb0EEEKNS_14CwiseNullaryOpINS0_18scalar_constant_opIdEEKNS3_IdLin1ELin1ELi0ELi2ELi2EEEEEEEEENS0_9assign_opIddEELi0EEC1ERS5_RKSL_RKSN_RS4_, symObjAddr: 0xC754, symBinAddr: 0x1000239EC, symSize: 0x4C }
  - { offsetInCU: 0x4BB13, offset: 0x9E606, size: 0x8, addend: 0x0, symName: __ZN5Eigen8internal21dense_assignment_loopINS0_31generic_dense_assignment_kernelINS0_9evaluatorINS_6MatrixIdLi2ELi2ELi0ELi2ELi2EEEEENS3_INS_13CwiseBinaryOpINS0_18scalar_quotient_opIddEEKNS_5BlockIKS5_Lin1ELin1ELb0EEEKNS_14CwiseNullaryOpINS0_18scalar_constant_opIdEEKNS4_IdLin1ELin1ELi0ELi2ELi2EEEEEEEEENS0_9assign_opIddEELi0EEELi2ELi2EE3runERSP_, symObjAddr: 0xC7A0, symBinAddr: 0x100023A38, symSize: 0x24 }
  - { offsetInCU: 0x4BB36, offset: 0x9E629, size: 0x8, addend: 0x0, symName: __ZN5Eigen8internal9evaluatorINS_13CwiseBinaryOpINS0_18scalar_quotient_opIddEEKNS_5BlockIKNS_6MatrixIdLi2ELi2ELi0ELi2ELi2EEELin1ELin1ELb0EEEKNS_14CwiseNullaryOpINS0_18scalar_constant_opIdEEKNS6_IdLin1ELin1ELi0ELi2ELi2EEEEEEEED1Ev, symObjAddr: 0xC7C4, symBinAddr: 0x100023A5C, symSize: 0x2C }
  - { offsetInCU: 0x4BB61, offset: 0x9E654, size: 0x8, addend: 0x0, symName: __ZN5Eigen8internal9evaluatorINS_13CwiseBinaryOpINS0_18scalar_quotient_opIddEEKNS_5BlockIKNS_6MatrixIdLi2ELi2ELi0ELi2ELi2EEELin1ELin1ELb0EEEKNS_14CwiseNullaryOpINS0_18scalar_constant_opIdEEKNS6_IdLin1ELin1ELi0ELi2ELi2EEEEEEEEC2ERKSI_, symObjAddr: 0xC7F0, symBinAddr: 0x100023A88, symSize: 0x34 }
  - { offsetInCU: 0x4BB98, offset: 0x9E68B, size: 0x8, addend: 0x0, symName: __ZN5Eigen8internal16binary_evaluatorINS_13CwiseBinaryOpINS0_18scalar_quotient_opIddEEKNS_5BlockIKNS_6MatrixIdLi2ELi2ELi0ELi2ELi2EEELin1ELin1ELb0EEEKNS_14CwiseNullaryOpINS0_18scalar_constant_opIdEEKNS6_IdLin1ELin1ELi0ELi2ELi2EEEEEEENS0_10IndexBasedESJ_ddEC2ERKSI_, symObjAddr: 0xC824, symBinAddr: 0x100023ABC, symSize: 0x64 }
  - { offsetInCU: 0x4BBCF, offset: 0x9E6C2, size: 0x8, addend: 0x0, symName: __ZN5Eigen8internal14evaluator_baseINS_13CwiseBinaryOpINS0_18scalar_quotient_opIddEEKNS_5BlockIKNS_6MatrixIdLi2ELi2ELi0ELi2ELi2EEELin1ELin1ELb0EEEKNS_14CwiseNullaryOpINS0_18scalar_constant_opIdEEKNS6_IdLin1ELin1ELi0ELi2ELi2EEEEEEEEC2Ev, symObjAddr: 0xC888, symBinAddr: 0x100023B20, symSize: 0x14 }
  - { offsetInCU: 0x4BBF7, offset: 0x9E6EA, size: 0x8, addend: 0x0, symName: __ZN5Eigen8internal16binary_evaluatorINS_13CwiseBinaryOpINS0_18scalar_quotient_opIddEEKNS_5BlockIKNS_6MatrixIdLi2ELi2ELi0ELi2ELi2EEELin1ELin1ELb0EEEKNS_14CwiseNullaryOpINS0_18scalar_constant_opIdEEKNS6_IdLin1ELin1ELi0ELi2ELi2EEEEEEENS0_10IndexBasedESJ_ddE4DataC1ERKSI_, symObjAddr: 0xC89C, symBinAddr: 0x100023B34, symSize: 0x34 }
  - { offsetInCU: 0x4BC2E, offset: 0x9E721, size: 0x8, addend: 0x0, symName: __ZN5Eigen8internal14evaluator_baseINS_13CwiseBinaryOpINS0_18scalar_quotient_opIddEEKNS_5BlockIKNS_6MatrixIdLi2ELi2ELi0ELi2ELi2EEELin1ELin1ELb0EEEKNS_14CwiseNullaryOpINS0_18scalar_constant_opIdEEKNS6_IdLin1ELin1ELi0ELi2ELi2EEEEEEEED2Ev, symObjAddr: 0xC8D0, symBinAddr: 0x100023B68, symSize: 0x14 }
  - { offsetInCU: 0x4BC56, offset: 0x9E749, size: 0x8, addend: 0x0, symName: __ZN5Eigen8internal16binary_evaluatorINS_13CwiseBinaryOpINS0_18scalar_quotient_opIddEEKNS_5BlockIKNS_6MatrixIdLi2ELi2ELi0ELi2ELi2EEELin1ELin1ELb0EEEKNS_14CwiseNullaryOpINS0_18scalar_constant_opIdEEKNS6_IdLin1ELin1ELi0ELi2ELi2EEEEEEENS0_10IndexBasedESJ_ddE4DataC2ERKSI_, symObjAddr: 0xC8E4, symBinAddr: 0x100023B7C, symSize: 0xA8 }
  - { offsetInCU: 0x4BC8D, offset: 0x9E780, size: 0x8, addend: 0x0, symName: __ZNK5Eigen13CwiseBinaryOpINS_8internal18scalar_quotient_opIddEEKNS_5BlockIKNS_6MatrixIdLi2ELi2ELi0ELi2ELi2EEELin1ELin1ELb0EEEKNS_14CwiseNullaryOpINS1_18scalar_constant_opIdEEKNS5_IdLin1ELin1ELi0ELi2ELi2EEEEEE7functorEv, symObjAddr: 0xC98C, symBinAddr: 0x100023C24, symSize: 0x18 }
  - { offsetInCU: 0x4BCB1, offset: 0x9E7A4, size: 0x8, addend: 0x0, symName: __ZNK5Eigen13CwiseBinaryOpINS_8internal18scalar_quotient_opIddEEKNS_5BlockIKNS_6MatrixIdLi2ELi2ELi0ELi2ELi2EEELin1ELin1ELb0EEEKNS_14CwiseNullaryOpINS1_18scalar_constant_opIdEEKNS5_IdLin1ELin1ELi0ELi2ELi2EEEEEE3lhsEv, symObjAddr: 0xC9A4, symBinAddr: 0x100023C3C, symSize: 0x14 }
  - { offsetInCU: 0x4BCD5, offset: 0x9E7C8, size: 0x8, addend: 0x0, symName: __ZN5Eigen8internal9evaluatorIKNS_5BlockIKNS_6MatrixIdLi2ELi2ELi0ELi2ELi2EEELin1ELin1ELb0EEEEC1ERS7_, symObjAddr: 0xC9B8, symBinAddr: 0x100023C50, symSize: 0x34 }
  - { offsetInCU: 0x4BD0B, offset: 0x9E7FE, size: 0x8, addend: 0x0, symName: __ZNK5Eigen13CwiseBinaryOpINS_8internal18scalar_quotient_opIddEEKNS_5BlockIKNS_6MatrixIdLi2ELi2ELi0ELi2ELi2EEELin1ELin1ELb0EEEKNS_14CwiseNullaryOpINS1_18scalar_constant_opIdEEKNS5_IdLin1ELin1ELi0ELi2ELi2EEEEEE3rhsEv, symObjAddr: 0xC9EC, symBinAddr: 0x100023C84, symSize: 0x18 }
  - { offsetInCU: 0x4BD2F, offset: 0x9E822, size: 0x8, addend: 0x0, symName: __ZN5Eigen8internal9evaluatorIKNS_14CwiseNullaryOpINS0_18scalar_constant_opIdEEKNS_6MatrixIdLin1ELin1ELi0ELi2ELi2EEEEEEC1ERS9_, symObjAddr: 0xCA04, symBinAddr: 0x100023C9C, symSize: 0x34 }
  - { offsetInCU: 0x4BD65, offset: 0x9E858, size: 0x8, addend: 0x0, symName: __ZN5Eigen8internal9evaluatorIKNS_5BlockIKNS_6MatrixIdLi2ELi2ELi0ELi2ELi2EEELin1ELin1ELb0EEEED1Ev, symObjAddr: 0xCA38, symBinAddr: 0x100023CD0, symSize: 0x2C }
  - { offsetInCU: 0x4BD8F, offset: 0x9E882, size: 0x8, addend: 0x0, symName: __ZN5Eigen8internal9evaluatorIKNS_5BlockIKNS_6MatrixIdLi2ELi2ELi0ELi2ELi2EEELin1ELin1ELb0EEEEC2ERS7_, symObjAddr: 0xCA64, symBinAddr: 0x100023CFC, symSize: 0x34 }
  - { offsetInCU: 0x4BDC5, offset: 0x9E8B8, size: 0x8, addend: 0x0, symName: __ZN5Eigen8internal9evaluatorINS_5BlockIKNS_6MatrixIdLi2ELi2ELi0ELi2ELi2EEELin1ELin1ELb0EEEEC2ERKS6_, symObjAddr: 0xCA98, symBinAddr: 0x100023D30, symSize: 0x34 }
  - { offsetInCU: 0x4BDFC, offset: 0x9E8EF, size: 0x8, addend: 0x0, symName: __ZN5Eigen8internal15block_evaluatorIKNS_6MatrixIdLi2ELi2ELi0ELi2ELi2EEELin1ELin1ELb0ELb1EEC2ERKNS_5BlockIS4_Lin1ELin1ELb0EEE, symObjAddr: 0xCACC, symBinAddr: 0x100023D64, symSize: 0xDC }
  - { offsetInCU: 0x4BE33, offset: 0x9E926, size: 0x8, addend: 0x0, symName: __ZN5Eigen8internal17mapbase_evaluatorINS_5BlockIKNS_6MatrixIdLi2ELi2ELi0ELi2ELi2EEELin1ELin1ELb0EEENS3_IdLin1ELin1ELi0ELi2ELi2EEEEC2ERKS6_, symObjAddr: 0xCBA8, symBinAddr: 0x100023E40, symSize: 0xB4 }
  - { offsetInCU: 0x4BE6A, offset: 0x9E95D, size: 0x8, addend: 0x0, symName: __ZNK5Eigen7MapBaseINS_5BlockIKNS_6MatrixIdLi2ELi2ELi0ELi2ELi2EEELin1ELin1ELb0EEELi0EE4dataEv, symObjAddr: 0xCC5C, symBinAddr: 0x100023EF4, symSize: 0x18 }
  - { offsetInCU: 0x4BE8E, offset: 0x9E981, size: 0x8, addend: 0x0, symName: __ZN5Eigen8internal17mapbase_evaluatorINS_5BlockIKNS_6MatrixIdLi2ELi2ELi0ELi2ELi2EEELin1ELin1ELb0EEENS3_IdLin1ELin1ELi0ELi2ELi2EEEED2Ev, symObjAddr: 0xCC74, symBinAddr: 0x100023F0C, symSize: 0x2C }
  - { offsetInCU: 0x4BEB9, offset: 0x9E9AC, size: 0x8, addend: 0x0, symName: __ZN5Eigen8internal14evaluator_baseINS_5BlockIKNS_6MatrixIdLi2ELi2ELi0ELi2ELi2EEELin1ELin1ELb0EEEEC2Ev, symObjAddr: 0xCCA0, symBinAddr: 0x100023F38, symSize: 0x14 }
  - { offsetInCU: 0x4BEE1, offset: 0x9E9D4, size: 0x8, addend: 0x0, symName: __ZNK5Eigen8internal15BlockImpl_denseIKNS_6MatrixIdLi2ELi2ELi0ELi2ELi2EEELin1ELin1ELb0ELb1EE11innerStrideEv, symObjAddr: 0xCCB4, symBinAddr: 0x100023F4C, symSize: 0x28 }
  - { offsetInCU: 0x4BF05, offset: 0x9E9F8, size: 0x8, addend: 0x0, symName: __ZN5Eigen8internal19variable_if_dynamicIlLi1EEC1El, symObjAddr: 0xCCDC, symBinAddr: 0x100023F74, symSize: 0x34 }
  - { offsetInCU: 0x4BF3B, offset: 0x9EA2E, size: 0x8, addend: 0x0, symName: __ZNK5Eigen8internal15BlockImpl_denseIKNS_6MatrixIdLi2ELi2ELi0ELi2ELi2EEELin1ELin1ELb0ELb1EE11outerStrideEv, symObjAddr: 0xCD10, symBinAddr: 0x100023FA8, symSize: 0x28 }
  - { offsetInCU: 0x4BF5F, offset: 0x9EA52, size: 0x8, addend: 0x0, symName: __ZN5Eigen8internal14evaluator_baseINS_5BlockIKNS_6MatrixIdLi2ELi2ELi0ELi2ELi2EEELin1ELin1ELb0EEEED2Ev, symObjAddr: 0xCD38, symBinAddr: 0x100023FD0, symSize: 0x14 }
  - { offsetInCU: 0x4BF87, offset: 0x9EA7A, size: 0x8, addend: 0x0, symName: __ZN5Eigen8internal19variable_if_dynamicIlLi1EEC2El, symObjAddr: 0xCD4C, symBinAddr: 0x100023FE4, symSize: 0x64 }
  - { offsetInCU: 0x4BFBD, offset: 0x9EAB0, size: 0x8, addend: 0x0, symName: __ZN5Eigen8internal9evaluatorIKNS_14CwiseNullaryOpINS0_18scalar_constant_opIdEEKNS_6MatrixIdLin1ELin1ELi0ELi2ELi2EEEEEEC2ERS9_, symObjAddr: 0xCDB0, symBinAddr: 0x100024048, symSize: 0x34 }
  - { offsetInCU: 0x4BFF3, offset: 0x9EAE6, size: 0x8, addend: 0x0, symName: __ZN5Eigen8internal9evaluatorINS_14CwiseNullaryOpINS0_18scalar_constant_opIdEEKNS_6MatrixIdLin1ELin1ELi0ELi2ELi2EEEEEEC2ERKS8_, symObjAddr: 0xCDE4, symBinAddr: 0x10002407C, symSize: 0x74 }
  - { offsetInCU: 0x4C02A, offset: 0x9EB1D, size: 0x8, addend: 0x0, symName: __ZN5Eigen8internal14evaluator_baseINS_14CwiseNullaryOpINS0_18scalar_constant_opIdEEKNS_6MatrixIdLin1ELin1ELi0ELi2ELi2EEEEEEC2Ev, symObjAddr: 0xCE58, symBinAddr: 0x1000240F0, symSize: 0x14 }
  - { offsetInCU: 0x4C052, offset: 0x9EB45, size: 0x8, addend: 0x0, symName: __ZNK5Eigen14CwiseNullaryOpINS_8internal18scalar_constant_opIdEEKNS_6MatrixIdLin1ELin1ELi0ELi2ELi2EEEE7functorEv, symObjAddr: 0xCE6C, symBinAddr: 0x100024104, symSize: 0x18 }
  - { offsetInCU: 0x4C076, offset: 0x9EB69, size: 0x8, addend: 0x0, symName: __ZN5Eigen8internal14evaluator_baseINS_14CwiseNullaryOpINS0_18scalar_constant_opIdEEKNS_6MatrixIdLin1ELin1ELi0ELi2ELi2EEEEEED2Ev, symObjAddr: 0xCE84, symBinAddr: 0x10002411C, symSize: 0x14 }
  - { offsetInCU: 0x4C09E, offset: 0x9EB91, size: 0x8, addend: 0x0, symName: __ZN5Eigen8internal9evaluatorIKNS_5BlockIKNS_6MatrixIdLi2ELi2ELi0ELi2ELi2EEELin1ELin1ELb0EEEED2Ev, symObjAddr: 0xCE98, symBinAddr: 0x100024130, symSize: 0x2C }
  - { offsetInCU: 0x4C0C8, offset: 0x9EBBB, size: 0x8, addend: 0x0, symName: __ZN5Eigen8internal9evaluatorINS_5BlockIKNS_6MatrixIdLi2ELi2ELi0ELi2ELi2EEELin1ELin1ELb0EEEED2Ev, symObjAddr: 0xCEC4, symBinAddr: 0x10002415C, symSize: 0x2C }
  - { offsetInCU: 0x4C0F3, offset: 0x9EBE6, size: 0x8, addend: 0x0, symName: __ZN5Eigen8internal15block_evaluatorIKNS_6MatrixIdLi2ELi2ELi0ELi2ELi2EEELin1ELin1ELb0ELb1EED2Ev, symObjAddr: 0xCEF0, symBinAddr: 0x100024188, symSize: 0x2C }
  - { offsetInCU: 0x4C11E, offset: 0x9EC11, size: 0x8, addend: 0x0, symName: __ZNK5Eigen13CwiseBinaryOpINS_8internal18scalar_quotient_opIddEEKNS_5BlockIKNS_6MatrixIdLi2ELi2ELi0ELi2ELi2EEELin1ELin1ELb0EEEKNS_14CwiseNullaryOpINS1_18scalar_constant_opIdEEKNS5_IdLin1ELin1ELi0ELi2ELi2EEEEEE4rowsEv, symObjAddr: 0xCF1C, symBinAddr: 0x1000241B4, symSize: 0x28 }
  - { offsetInCU: 0x4C142, offset: 0x9EC35, size: 0x8, addend: 0x0, symName: __ZNK5Eigen13CwiseBinaryOpINS_8internal18scalar_quotient_opIddEEKNS_5BlockIKNS_6MatrixIdLi2ELi2ELi0ELi2ELi2EEELin1ELin1ELb0EEEKNS_14CwiseNullaryOpINS1_18scalar_constant_opIdEEKNS5_IdLin1ELin1ELi0ELi2ELi2EEEEEE4colsEv, symObjAddr: 0xCF44, symBinAddr: 0x1000241DC, symSize: 0x28 }
  - { offsetInCU: 0x4C166, offset: 0x9EC59, size: 0x8, addend: 0x0, symName: __ZN5Eigen8internal31generic_dense_assignment_kernelINS0_9evaluatorINS_6MatrixIdLi2ELi2ELi0ELi2ELi2EEEEENS2_INS_13CwiseBinaryOpINS0_18scalar_quotient_opIddEEKNS_5BlockIKS4_Lin1ELin1ELb0EEEKNS_14CwiseNullaryOpINS0_18scalar_constant_opIdEEKNS3_IdLin1ELin1ELi0ELi2ELi2EEEEEEEEENS0_9assign_opIddEELi0EEC2ERS5_RKSL_RKSN_RS4_, symObjAddr: 0xCF6C, symBinAddr: 0x100024204, symSize: 0x44 }
  - { offsetInCU: 0x4C1CA, offset: 0x9ECBD, size: 0x8, addend: 0x0, symName: __ZN5Eigen8internal47copy_using_evaluator_innervec_CompleteUnrollingINS0_31generic_dense_assignment_kernelINS0_9evaluatorINS_6MatrixIdLi2ELi2ELi0ELi2ELi2EEEEENS3_INS_13CwiseBinaryOpINS0_18scalar_quotient_opIddEEKNS_5BlockIKS5_Lin1ELin1ELb0EEEKNS_14CwiseNullaryOpINS0_18scalar_constant_opIdEEKNS4_IdLin1ELin1ELi0ELi2ELi2EEEEEEEEENS0_9assign_opIddEELi0EEELi0ELi4EE3runERSP_, symObjAddr: 0xCFB0, symBinAddr: 0x100024248, symSize: 0x34 }
  - { offsetInCU: 0x4C1ED, offset: 0x9ECE0, size: 0x8, addend: 0x0, symName: __ZN5Eigen8internal31generic_dense_assignment_kernelINS0_9evaluatorINS_6MatrixIdLi2ELi2ELi0ELi2ELi2EEEEENS2_INS_13CwiseBinaryOpINS0_18scalar_quotient_opIddEEKNS_5BlockIKS4_Lin1ELin1ELb0EEEKNS_14CwiseNullaryOpINS0_18scalar_constant_opIdEEKNS3_IdLin1ELin1ELi0ELi2ELi2EEEEEEEEENS0_9assign_opIddEELi0EE24assignPacketByOuterInnerILi16ELi0E19__simd128_float64_tEEvll, symObjAddr: 0xCFE4, symBinAddr: 0x10002427C, symSize: 0x60 }
  - { offsetInCU: 0x4C26A, offset: 0x9ED5D, size: 0x8, addend: 0x0, symName: __ZN5Eigen8internal47copy_using_evaluator_innervec_CompleteUnrollingINS0_31generic_dense_assignment_kernelINS0_9evaluatorINS_6MatrixIdLi2ELi2ELi0ELi2ELi2EEEEENS3_INS_13CwiseBinaryOpINS0_18scalar_quotient_opIddEEKNS_5BlockIKS5_Lin1ELin1ELb0EEEKNS_14CwiseNullaryOpINS0_18scalar_constant_opIdEEKNS4_IdLin1ELin1ELi0ELi2ELi2EEEEEEEEENS0_9assign_opIddEELi0EEELi2ELi4EE3runERSP_, symObjAddr: 0xD044, symBinAddr: 0x1000242DC, symSize: 0x34 }
  - { offsetInCU: 0x4C28D, offset: 0x9ED80, size: 0x8, addend: 0x0, symName: __ZN5Eigen8internal31generic_dense_assignment_kernelINS0_9evaluatorINS_6MatrixIdLi2ELi2ELi0ELi2ELi2EEEEENS2_INS_13CwiseBinaryOpINS0_18scalar_quotient_opIddEEKNS_5BlockIKS4_Lin1ELin1ELb0EEEKNS_14CwiseNullaryOpINS0_18scalar_constant_opIdEEKNS3_IdLin1ELin1ELi0ELi2ELi2EEEEEEEEENS0_9assign_opIddEELi0EE20rowIndexByOuterInnerEll, symObjAddr: 0xD078, symBinAddr: 0x100024310, symSize: 0x18 }
  - { offsetInCU: 0x4C2BF, offset: 0x9EDB2, size: 0x8, addend: 0x0, symName: __ZN5Eigen8internal31generic_dense_assignment_kernelINS0_9evaluatorINS_6MatrixIdLi2ELi2ELi0ELi2ELi2EEEEENS2_INS_13CwiseBinaryOpINS0_18scalar_quotient_opIddEEKNS_5BlockIKS4_Lin1ELin1ELb0EEEKNS_14CwiseNullaryOpINS0_18scalar_constant_opIdEEKNS3_IdLin1ELin1ELi0ELi2ELi2EEEEEEEEENS0_9assign_opIddEELi0EE20colIndexByOuterInnerEll, symObjAddr: 0xD090, symBinAddr: 0x100024328, symSize: 0x18 }
  - { offsetInCU: 0x4C2F1, offset: 0x9EDE4, size: 0x8, addend: 0x0, symName: __ZN5Eigen8internal31generic_dense_assignment_kernelINS0_9evaluatorINS_6MatrixIdLi2ELi2ELi0ELi2ELi2EEEEENS2_INS_13CwiseBinaryOpINS0_18scalar_quotient_opIddEEKNS_5BlockIKS4_Lin1ELin1ELb0EEEKNS_14CwiseNullaryOpINS0_18scalar_constant_opIdEEKNS3_IdLin1ELin1ELi0ELi2ELi2EEEEEEEEENS0_9assign_opIddEELi0EE12assignPacketILi16ELi0E19__simd128_float64_tEEvll, symObjAddr: 0xD0A8, symBinAddr: 0x100024340, symSize: 0x70 }
  - { offsetInCU: 0x4C350, offset: 0x9EE43, size: 0x8, addend: 0x0, symName: __ZNK5Eigen8internal16binary_evaluatorINS_13CwiseBinaryOpINS0_18scalar_quotient_opIddEEKNS_5BlockIKNS_6MatrixIdLi2ELi2ELi0ELi2ELi2EEELin1ELin1ELb0EEEKNS_14CwiseNullaryOpINS0_18scalar_constant_opIdEEKNS6_IdLin1ELin1ELi0ELi2ELi2EEEEEEENS0_10IndexBasedESJ_ddE6packetILi0E19__simd128_float64_tEET0_ll, symObjAddr: 0xD118, symBinAddr: 0x1000243B0, symSize: 0x7C }
  - { offsetInCU: 0x4C3A5, offset: 0x9EE98, size: 0x8, addend: 0x0, symName: __ZNK5Eigen8internal16binary_evaluatorINS_13CwiseBinaryOpINS0_18scalar_quotient_opIddEEKNS_5BlockIKNS_6MatrixIdLi2ELi2ELi0ELi2ELi2EEELin1ELin1ELb0EEEKNS_14CwiseNullaryOpINS0_18scalar_constant_opIdEEKNS6_IdLin1ELin1ELi0ELi2ELi2EEEEEEENS0_10IndexBasedESJ_ddE4Data4funcEv, symObjAddr: 0xD194, symBinAddr: 0x10002442C, symSize: 0x14 }
  - { offsetInCU: 0x4C3C9, offset: 0x9EEBC, size: 0x8, addend: 0x0, symName: __ZNK5Eigen8internal17mapbase_evaluatorINS_5BlockIKNS_6MatrixIdLi2ELi2ELi0ELi2ELi2EEELin1ELin1ELb0EEENS3_IdLin1ELin1ELi0ELi2ELi2EEEE6packetILi0E19__simd128_float64_tEET0_ll, symObjAddr: 0xD1A8, symBinAddr: 0x100024440, symSize: 0x8C }
  - { offsetInCU: 0x4C457, offset: 0x9EF4A, size: 0x8, addend: 0x0, symName: __ZNK5Eigen8internal9evaluatorINS_14CwiseNullaryOpINS0_18scalar_constant_opIdEEKNS_6MatrixIdLin1ELin1ELi0ELi2ELi2EEEEEE6packetILi0E19__simd128_float64_tlEET0_T1_SD_, symObjAddr: 0xD234, symBinAddr: 0x1000244CC, symSize: 0x3C }
  - { offsetInCU: 0x4C4B5, offset: 0x9EFA8, size: 0x8, addend: 0x0, symName: __ZNK5Eigen8internal17mapbase_evaluatorINS_5BlockIKNS_6MatrixIdLi2ELi2ELi0ELi2ELi2EEELin1ELin1ELb0EEENS3_IdLin1ELin1ELi0ELi2ELi2EEEE9rowStrideEv, symObjAddr: 0xD270, symBinAddr: 0x100024508, symSize: 0x30 }
  - { offsetInCU: 0x4C4D9, offset: 0x9EFCC, size: 0x8, addend: 0x0, symName: __ZNK5Eigen8internal17mapbase_evaluatorINS_5BlockIKNS_6MatrixIdLi2ELi2ELi0ELi2ELi2EEELin1ELin1ELb0EEENS3_IdLin1ELin1ELi0ELi2ELi2EEEE9colStrideEv, symObjAddr: 0xD2A0, symBinAddr: 0x100024538, symSize: 0x20 }
  - { offsetInCU: 0x4C4FD, offset: 0x9EFF0, size: 0x8, addend: 0x0, symName: __ZN5Eigen8internal19variable_if_dynamicIlLi1EE5valueEv, symObjAddr: 0xD2C0, symBinAddr: 0x100024558, symSize: 0x8 }
  - { offsetInCU: 0x4C511, offset: 0x9F004, size: 0x8, addend: 0x0, symName: __ZN5Eigen8internal47copy_using_evaluator_innervec_CompleteUnrollingINS0_31generic_dense_assignment_kernelINS0_9evaluatorINS_6MatrixIdLi2ELi2ELi0ELi2ELi2EEEEENS3_INS_13CwiseBinaryOpINS0_18scalar_quotient_opIddEEKNS_5BlockIKS5_Lin1ELin1ELb0EEEKNS_14CwiseNullaryOpINS0_18scalar_constant_opIdEEKNS4_IdLin1ELin1ELi0ELi2ELi2EEEEEEEEENS0_9assign_opIddEELi0EEELi4ELi4EE3runERSP_, symObjAddr: 0xD2F0, symBinAddr: 0x100024588, symSize: 0x10 }
  - { offsetInCU: 0x4C530, offset: 0x9F023, size: 0x8, addend: 0x0, symName: __ZN5Eigen8internal9evaluatorINS_13CwiseBinaryOpINS0_18scalar_quotient_opIddEEKNS_5BlockIKNS_6MatrixIdLi2ELi2ELi0ELi2ELi2EEELin1ELin1ELb0EEEKNS_14CwiseNullaryOpINS0_18scalar_constant_opIdEEKNS6_IdLin1ELin1ELi0ELi2ELi2EEEEEEEED2Ev, symObjAddr: 0xD300, symBinAddr: 0x100024598, symSize: 0x2C }
  - { offsetInCU: 0x4C55B, offset: 0x9F04E, size: 0x8, addend: 0x0, symName: __ZN5Eigen8internal16binary_evaluatorINS_13CwiseBinaryOpINS0_18scalar_quotient_opIddEEKNS_5BlockIKNS_6MatrixIdLi2ELi2ELi0ELi2ELi2EEELin1ELin1ELb0EEEKNS_14CwiseNullaryOpINS0_18scalar_constant_opIdEEKNS6_IdLin1ELin1ELi0ELi2ELi2EEEEEEENS0_10IndexBasedESJ_ddED2Ev, symObjAddr: 0xD32C, symBinAddr: 0x1000245C4, symSize: 0x34 }
  - { offsetInCU: 0x4C585, offset: 0x9F078, size: 0x8, addend: 0x0, symName: __ZN5Eigen8internal16binary_evaluatorINS_13CwiseBinaryOpINS0_18scalar_quotient_opIddEEKNS_5BlockIKNS_6MatrixIdLi2ELi2ELi0ELi2ELi2EEELin1ELin1ELb0EEEKNS_14CwiseNullaryOpINS0_18scalar_constant_opIdEEKNS6_IdLin1ELin1ELi0ELi2ELi2EEEEEEENS0_10IndexBasedESJ_ddE4DataD1Ev, symObjAddr: 0xD360, symBinAddr: 0x1000245F8, symSize: 0x2C }
  - { offsetInCU: 0x4C5B0, offset: 0x9F0A3, size: 0x8, addend: 0x0, symName: __ZN5Eigen8internal16binary_evaluatorINS_13CwiseBinaryOpINS0_18scalar_quotient_opIddEEKNS_5BlockIKNS_6MatrixIdLi2ELi2ELi0ELi2ELi2EEELin1ELin1ELb0EEEKNS_14CwiseNullaryOpINS0_18scalar_constant_opIdEEKNS6_IdLin1ELin1ELi0ELi2ELi2EEEEEEENS0_10IndexBasedESJ_ddE4DataD2Ev, symObjAddr: 0xD38C, symBinAddr: 0x100024624, symSize: 0x3C }
  - { offsetInCU: 0x4C5DB, offset: 0x9F0CE, size: 0x8, addend: 0x0, symName: __ZN5Eigen8internal9evaluatorIKNS_14CwiseNullaryOpINS0_18scalar_constant_opIdEEKNS_6MatrixIdLin1ELin1ELi0ELi2ELi2EEEEEED1Ev, symObjAddr: 0xD3C8, symBinAddr: 0x100024660, symSize: 0x2C }
  - { offsetInCU: 0x4C605, offset: 0x9F0F8, size: 0x8, addend: 0x0, symName: __ZN5Eigen8internal9evaluatorIKNS_14CwiseNullaryOpINS0_18scalar_constant_opIdEEKNS_6MatrixIdLin1ELin1ELi0ELi2ELi2EEEEEED2Ev, symObjAddr: 0xD3F4, symBinAddr: 0x10002468C, symSize: 0x2C }
  - { offsetInCU: 0x4C62F, offset: 0x9F122, size: 0x8, addend: 0x0, symName: __ZN5Eigen8internal9evaluatorINS_14CwiseNullaryOpINS0_18scalar_constant_opIdEEKNS_6MatrixIdLin1ELin1ELi0ELi2ELi2EEEEEED2Ev, symObjAddr: 0xD420, symBinAddr: 0x1000246B8, symSize: 0x2C }
  - { offsetInCU: 0x4C659, offset: 0x9F14C, size: 0x8, addend: 0x0, symName: __ZN5Eigen10MatrixBaseINS_6MatrixIdLi2ELi2ELi0ELi2ELi2EEEE11setIdentityEv, symObjAddr: 0xD44C, symBinAddr: 0x1000246E4, symSize: 0x28 }
  - { offsetInCU: 0x4C681, offset: 0x9F174, size: 0x8, addend: 0x0, symName: __ZN5Eigen8internal16setIdentity_implINS_6MatrixIdLi2ELi2ELi0ELi2ELi2EEELb0EE3runERS3_, symObjAddr: 0xD474, symBinAddr: 0x10002470C, symSize: 0x50 }
  - { offsetInCU: 0x4C6A4, offset: 0x9F197, size: 0x8, addend: 0x0, symName: __ZN5Eigen10MatrixBaseINS_6MatrixIdLi2ELi2ELi0ELi2ELi2EEEE8IdentityEll, symObjAddr: 0xD4C4, symBinAddr: 0x10002475C, symSize: 0x58 }
  - { offsetInCU: 0x4C6D8, offset: 0x9F1CB, size: 0x8, addend: 0x0, symName: __ZN5Eigen8DiagonalIKNS_12CwiseUnaryOpINS_8internal13scalar_abs_opIdEEKNS_6MatrixIdLi2ELi2ELi0ELi2ELi2EEEEELi0EEC1ERS9_l, symObjAddr: 0xE03C, symBinAddr: 0x1000247B4, symSize: 0x3C }
  - { offsetInCU: 0x4C71C, offset: 0x9F20F, size: 0x8, addend: 0x0, symName: __ZN5Eigen8DiagonalIKNS_12CwiseUnaryOpINS_8internal13scalar_abs_opIdEEKNS_6MatrixIdLi2ELi2ELi0ELi2ELi2EEEEELi0EEC2ERS9_l, symObjAddr: 0xE078, symBinAddr: 0x1000247F0, symSize: 0xDC }
  - { offsetInCU: 0x4C760, offset: 0x9F253, size: 0x8, addend: 0x0, symName: __ZN5Eigen10MatrixBaseINS_8DiagonalIKNS_12CwiseUnaryOpINS_8internal13scalar_abs_opIdEEKNS_6MatrixIdLi2ELi2ELi0ELi2ELi2EEEEELi0EEEEC2Ev, symObjAddr: 0xE154, symBinAddr: 0x1000248CC, symSize: 0x2C }
  - { offsetInCU: 0x4C788, offset: 0x9F27B, size: 0x8, addend: 0x0, symName: __ZN5Eigen12CwiseUnaryOpINS_8internal13scalar_abs_opIdEEKNS_6MatrixIdLi2ELi2ELi0ELi2ELi2EEEEC1ERKS7_, symObjAddr: 0xE180, symBinAddr: 0x1000248F8, symSize: 0x34 }
  - { offsetInCU: 0x4C7BB, offset: 0x9F2AE, size: 0x8, addend: 0x0, symName: __ZN5Eigen8internal24variable_if_dynamicindexIlLi0EEC1El, symObjAddr: 0xE1B4, symBinAddr: 0x10002492C, symSize: 0x34 }
  - { offsetInCU: 0x4C7F1, offset: 0x9F2E4, size: 0x8, addend: 0x0, symName: __ZN5Eigen9DenseBaseINS_8DiagonalIKNS_12CwiseUnaryOpINS_8internal13scalar_abs_opIdEEKNS_6MatrixIdLi2ELi2ELi0ELi2ELi2EEEEELi0EEEEC2Ev, symObjAddr: 0xE1E8, symBinAddr: 0x100024960, symSize: 0x14 }
  - { offsetInCU: 0x4C819, offset: 0x9F30C, size: 0x8, addend: 0x0, symName: __ZN5Eigen12CwiseUnaryOpINS_8internal13scalar_abs_opIdEEKNS_6MatrixIdLi2ELi2ELi0ELi2ELi2EEEEC2ERKS7_, symObjAddr: 0xE1FC, symBinAddr: 0x100024974, symSize: 0x48 }
  - { offsetInCU: 0x4C84C, offset: 0x9F33F, size: 0x8, addend: 0x0, symName: __ZN5Eigen8internal24variable_if_dynamicindexIlLi0EEC2El, symObjAddr: 0xE244, symBinAddr: 0x1000249BC, symSize: 0x64 }
  - { offsetInCU: 0x4C882, offset: 0x9F375, size: 0x8, addend: 0x0, symName: __ZNK5Eigen9DenseBaseINS_8DiagonalIKNS_12CwiseUnaryOpINS_8internal13scalar_abs_opIdEEKNS_6MatrixIdLi2ELi2ELi0ELi2ELi2EEEEELi0EEEE8maxCoeffILi0EEEdv, symObjAddr: 0xE2A8, symBinAddr: 0x100024A20, symSize: 0x40 }
  - { offsetInCU: 0x4C8B4, offset: 0x9F3A7, size: 0x8, addend: 0x0, symName: __ZNK5Eigen9EigenBaseINS_8DiagonalIKNS_12CwiseUnaryOpINS_8internal13scalar_abs_opIdEEKNS_6MatrixIdLi2ELi2ELi0ELi2ELi2EEEEELi0EEEE7derivedEv, symObjAddr: 0xE2E8, symBinAddr: 0x100024A60, symSize: 0x14 }
  - { offsetInCU: 0x4C8D8, offset: 0x9F3CB, size: 0x8, addend: 0x0, symName: __ZNK5Eigen9DenseBaseINS_8DiagonalIKNS_12CwiseUnaryOpINS_8internal13scalar_abs_opIdEEKNS_6MatrixIdLi2ELi2ELi0ELi2ELi2EEEEELi0EEEE5reduxINS3_13scalar_max_opIddLi0EEEEEdRKT_, symObjAddr: 0xE2FC, symBinAddr: 0x100024A74, symSize: 0x10C }
  - { offsetInCU: 0x4C933, offset: 0x9F426, size: 0x8, addend: 0x0, symName: __ZN5Eigen8internal13scalar_max_opIddLi0EEC1Ev, symObjAddr: 0xE408, symBinAddr: 0x100024B80, symSize: 0x2C }
  - { offsetInCU: 0x4C95B, offset: 0x9F44E, size: 0x8, addend: 0x0, symName: __ZNK5Eigen9EigenBaseINS_8DiagonalIKNS_12CwiseUnaryOpINS_8internal13scalar_abs_opIdEEKNS_6MatrixIdLi2ELi2ELi0ELi2ELi2EEEEELi0EEEE4rowsEv, symObjAddr: 0xE434, symBinAddr: 0x100024BAC, symSize: 0x38 }
  - { offsetInCU: 0x4C97F, offset: 0x9F472, size: 0x8, addend: 0x0, symName: __ZNK5Eigen9EigenBaseINS_8DiagonalIKNS_12CwiseUnaryOpINS_8internal13scalar_abs_opIdEEKNS_6MatrixIdLi2ELi2ELi0ELi2ELi2EEEEELi0EEEE4colsEv, symObjAddr: 0xE46C, symBinAddr: 0x100024BE4, symSize: 0x28 }
  - { offsetInCU: 0x4C9A3, offset: 0x9F496, size: 0x8, addend: 0x0, symName: __ZN5Eigen8internal15redux_evaluatorINS_8DiagonalIKNS_12CwiseUnaryOpINS0_13scalar_abs_opIdEEKNS_6MatrixIdLi2ELi2ELi0ELi2ELi2EEEEELi0EEEEC1ERKSB_, symObjAddr: 0xE494, symBinAddr: 0x100024C0C, symSize: 0x34 }
  - { offsetInCU: 0x4C9DA, offset: 0x9F4CD, size: 0x8, addend: 0x0, symName: __ZN5Eigen8internal10redux_implINS0_13scalar_max_opIddLi0EEENS0_15redux_evaluatorINS_8DiagonalIKNS_12CwiseUnaryOpINS0_13scalar_abs_opIdEEKNS_6MatrixIdLi2ELi2ELi0ELi2ELi2EEEEELi0EEEEELi0ELi2EE3runISE_EEdRKSF_RKS3_RKT_, symObjAddr: 0xE4C8, symBinAddr: 0x100024C40, symSize: 0x30 }
  - { offsetInCU: 0x4CA1D, offset: 0x9F510, size: 0x8, addend: 0x0, symName: __ZN5Eigen8internal15redux_evaluatorINS_8DiagonalIKNS_12CwiseUnaryOpINS0_13scalar_abs_opIdEEKNS_6MatrixIdLi2ELi2ELi0ELi2ELi2EEEEELi0EEEED1Ev, symObjAddr: 0xE4F8, symBinAddr: 0x100024C70, symSize: 0x2C }
  - { offsetInCU: 0x4CA48, offset: 0x9F53B, size: 0x8, addend: 0x0, symName: __ZNK5Eigen8DiagonalIKNS_12CwiseUnaryOpINS_8internal13scalar_abs_opIdEEKNS_6MatrixIdLi2ELi2ELi0ELi2ELi2EEEEELi0EE4rowsEv, symObjAddr: 0xE524, symBinAddr: 0x100024C9C, symSize: 0xFC }
  - { offsetInCU: 0x4CABC, offset: 0x9F5AF, size: 0x8, addend: 0x0, symName: __ZN5Eigen8internal24variable_if_dynamicindexIlLi0EE5valueEv, symObjAddr: 0xE620, symBinAddr: 0x100024D98, symSize: 0x8 }
  - { offsetInCU: 0x4CAD0, offset: 0x9F5C3, size: 0x8, addend: 0x0, symName: __ZNK5Eigen8DiagonalIKNS_12CwiseUnaryOpINS_8internal13scalar_abs_opIdEEKNS_6MatrixIdLi2ELi2ELi0ELi2ELi2EEEEELi0EE4colsEv, symObjAddr: 0xE628, symBinAddr: 0x100024DA0, symSize: 0x14 }
  - { offsetInCU: 0x4CAF4, offset: 0x9F5E7, size: 0x8, addend: 0x0, symName: __ZN5Eigen8internal15redux_evaluatorINS_8DiagonalIKNS_12CwiseUnaryOpINS0_13scalar_abs_opIdEEKNS_6MatrixIdLi2ELi2ELi0ELi2ELi2EEEEELi0EEEEC2ERKSB_, symObjAddr: 0xE63C, symBinAddr: 0x100024DB4, symSize: 0x34 }
  - { offsetInCU: 0x4CB2B, offset: 0x9F61E, size: 0x8, addend: 0x0, symName: __ZN5Eigen8internal9evaluatorINS_8DiagonalIKNS_12CwiseUnaryOpINS0_13scalar_abs_opIdEEKNS_6MatrixIdLi2ELi2ELi0ELi2ELi2EEEEELi0EEEEC2ERKSB_, symObjAddr: 0xE670, symBinAddr: 0x100024DE8, symSize: 0xBC }
  - { offsetInCU: 0x4CB62, offset: 0x9F655, size: 0x8, addend: 0x0, symName: __ZN5Eigen8internal14evaluator_baseINS_8DiagonalIKNS_12CwiseUnaryOpINS0_13scalar_abs_opIdEEKNS_6MatrixIdLi2ELi2ELi0ELi2ELi2EEEEELi0EEEEC2Ev, symObjAddr: 0xE72C, symBinAddr: 0x100024EA4, symSize: 0x14 }
  - { offsetInCU: 0x4CB8A, offset: 0x9F67D, size: 0x8, addend: 0x0, symName: __ZNK5Eigen8DiagonalIKNS_12CwiseUnaryOpINS_8internal13scalar_abs_opIdEEKNS_6MatrixIdLi2ELi2ELi0ELi2ELi2EEEEELi0EE16nestedExpressionEv, symObjAddr: 0xE740, symBinAddr: 0x100024EB8, symSize: 0x14 }
  - { offsetInCU: 0x4CBAE, offset: 0x9F6A1, size: 0x8, addend: 0x0, symName: __ZN5Eigen8internal9evaluatorIKNS_12CwiseUnaryOpINS0_13scalar_abs_opIdEEKNS_6MatrixIdLi2ELi2ELi0ELi2ELi2EEEEEEC1ERS9_, symObjAddr: 0xE754, symBinAddr: 0x100024ECC, symSize: 0x34 }
  - { offsetInCU: 0x4CBE4, offset: 0x9F6D7, size: 0x8, addend: 0x0, symName: __ZNK5Eigen8DiagonalIKNS_12CwiseUnaryOpINS_8internal13scalar_abs_opIdEEKNS_6MatrixIdLi2ELi2ELi0ELi2ELi2EEEEELi0EE5indexEv, symObjAddr: 0xE788, symBinAddr: 0x100024F00, symSize: 0x20 }
  - { offsetInCU: 0x4CC08, offset: 0x9F6FB, size: 0x8, addend: 0x0, symName: __ZN5Eigen8internal9evaluatorIKNS_12CwiseUnaryOpINS0_13scalar_abs_opIdEEKNS_6MatrixIdLi2ELi2ELi0ELi2ELi2EEEEEED1Ev, symObjAddr: 0xE7A8, symBinAddr: 0x100024F20, symSize: 0x2C }
  - { offsetInCU: 0x4CC32, offset: 0x9F725, size: 0x8, addend: 0x0, symName: __ZN5Eigen8internal14evaluator_baseINS_8DiagonalIKNS_12CwiseUnaryOpINS0_13scalar_abs_opIdEEKNS_6MatrixIdLi2ELi2ELi0ELi2ELi2EEEEELi0EEEED2Ev, symObjAddr: 0xE7D4, symBinAddr: 0x100024F4C, symSize: 0x14 }
  - { offsetInCU: 0x4CC5A, offset: 0x9F74D, size: 0x8, addend: 0x0, symName: __ZN5Eigen8internal9evaluatorIKNS_12CwiseUnaryOpINS0_13scalar_abs_opIdEEKNS_6MatrixIdLi2ELi2ELi0ELi2ELi2EEEEEEC2ERS9_, symObjAddr: 0xE7E8, symBinAddr: 0x100024F60, symSize: 0x34 }
  - { offsetInCU: 0x4CC90, offset: 0x9F783, size: 0x8, addend: 0x0, symName: __ZN5Eigen8internal9evaluatorIKNS_12CwiseUnaryOpINS0_13scalar_abs_opIdEEKNS_6MatrixIdLi2ELi2ELi0ELi2ELi2EEEEEED2Ev, symObjAddr: 0xE81C, symBinAddr: 0x100024F94, symSize: 0x2C }
  - { offsetInCU: 0x4CCBA, offset: 0x9F7AD, size: 0x8, addend: 0x0, symName: __ZN5Eigen8internal20redux_novec_unrollerINS0_13scalar_max_opIddLi0EEENS0_15redux_evaluatorINS_8DiagonalIKNS_12CwiseUnaryOpINS0_13scalar_abs_opIdEEKNS_6MatrixIdLi2ELi2ELi0ELi2ELi2EEEEELi0EEEEELi0ELi2EE3runERKSF_RKS3_, symObjAddr: 0xE848, symBinAddr: 0x100024FC0, symSize: 0x60 }
  - { offsetInCU: 0x4CCEA, offset: 0x9F7DD, size: 0x8, addend: 0x0, symName: __ZNK5Eigen8internal13scalar_max_opIddLi0EEclERKdS4_, symObjAddr: 0xE8A8, symBinAddr: 0x100025020, symSize: 0x30 }
  - { offsetInCU: 0x4CD2A, offset: 0x9F81D, size: 0x8, addend: 0x0, symName: __ZN5Eigen8internal20redux_novec_unrollerINS0_13scalar_max_opIddLi0EEENS0_15redux_evaluatorINS_8DiagonalIKNS_12CwiseUnaryOpINS0_13scalar_abs_opIdEEKNS_6MatrixIdLi2ELi2ELi0ELi2ELi2EEEEELi0EEEEELi0ELi1EE3runERKSF_RKS3_, symObjAddr: 0xE8D8, symBinAddr: 0x100025050, symSize: 0x30 }
  - { offsetInCU: 0x4CD56, offset: 0x9F849, size: 0x8, addend: 0x0, symName: __ZN5Eigen8internal20redux_novec_unrollerINS0_13scalar_max_opIddLi0EEENS0_15redux_evaluatorINS_8DiagonalIKNS_12CwiseUnaryOpINS0_13scalar_abs_opIdEEKNS_6MatrixIdLi2ELi2ELi0ELi2ELi2EEEEELi0EEEEELi1ELi1EE3runERKSF_RKS3_, symObjAddr: 0xE908, symBinAddr: 0x100025080, symSize: 0x30 }
  - { offsetInCU: 0x4CD82, offset: 0x9F875, size: 0x8, addend: 0x0, symName: __ZN5Eigen8internal12pminmax_implILi0EE3runIdPFdRKdS5_EEET_RKS8_SA_T0_, symObjAddr: 0xE96C, symBinAddr: 0x1000250E4, symSize: 0x34 }
  - { offsetInCU: 0x4CDD5, offset: 0x9F8C8, size: 0x8, addend: 0x0, symName: __ZNK5Eigen8internal15redux_evaluatorINS_8DiagonalIKNS_12CwiseUnaryOpINS0_13scalar_abs_opIdEEKNS_6MatrixIdLi2ELi2ELi0ELi2ELi2EEEEELi0EEEE17coeffByOuterInnerEll, symObjAddr: 0xE9A0, symBinAddr: 0x100025118, symSize: 0x34 }
  - { offsetInCU: 0x4CE17, offset: 0x9F90A, size: 0x8, addend: 0x0, symName: __ZNK5Eigen8internal9evaluatorINS_8DiagonalIKNS_12CwiseUnaryOpINS0_13scalar_abs_opIdEEKNS_6MatrixIdLi2ELi2ELi0ELi2ELi2EEEEELi0EEEE5coeffEll, symObjAddr: 0xE9D4, symBinAddr: 0x10002514C, symSize: 0x70 }
  - { offsetInCU: 0x4CE55, offset: 0x9F948, size: 0x8, addend: 0x0, symName: __ZNK5Eigen8internal15unary_evaluatorINS_12CwiseUnaryOpINS0_13scalar_abs_opIdEEKNS_6MatrixIdLi2ELi2ELi0ELi2ELi2EEEEENS0_10IndexBasedEdE5coeffEll, symObjAddr: 0xEA44, symBinAddr: 0x1000251BC, symSize: 0x54 }
  - { offsetInCU: 0x4CE97, offset: 0x9F98A, size: 0x8, addend: 0x0, symName: __ZNK5Eigen8internal9evaluatorINS_8DiagonalIKNS_12CwiseUnaryOpINS0_13scalar_abs_opIdEEKNS_6MatrixIdLi2ELi2ELi0ELi2ELi2EEEEELi0EEEE9rowOffsetEv, symObjAddr: 0xEA98, symBinAddr: 0x100025210, symSize: 0x54 }
  - { offsetInCU: 0x4CEBB, offset: 0x9F9AE, size: 0x8, addend: 0x0, symName: __ZNK5Eigen8internal9evaluatorINS_8DiagonalIKNS_12CwiseUnaryOpINS0_13scalar_abs_opIdEEKNS_6MatrixIdLi2ELi2ELi0ELi2ELi2EEEEELi0EEEE9colOffsetEv, symObjAddr: 0xEAEC, symBinAddr: 0x100025264, symSize: 0x4C }
  - { offsetInCU: 0x4CEDF, offset: 0x9F9D2, size: 0x8, addend: 0x0, symName: __ZNK5Eigen8internal13scalar_abs_opIdEclERKd, symObjAddr: 0xEB38, symBinAddr: 0x1000252B0, symSize: 0x34 }
  - { offsetInCU: 0x4CF38, offset: 0x9FA2B, size: 0x8, addend: 0x0, symName: __ZNK5Eigen8internal9evaluatorINS_15PlainObjectBaseINS_6MatrixIdLi2ELi2ELi0ELi2ELi2EEEEEE5coeffEll, symObjAddr: 0xEB6C, symBinAddr: 0x1000252E4, symSize: 0x5C }
  - { offsetInCU: 0x4CF78, offset: 0x9FA6B, size: 0x8, addend: 0x0, symName: __ZN5Eigen8internal15redux_evaluatorINS_8DiagonalIKNS_12CwiseUnaryOpINS0_13scalar_abs_opIdEEKNS_6MatrixIdLi2ELi2ELi0ELi2ELi2EEEEELi0EEEED2Ev, symObjAddr: 0xEBC8, symBinAddr: 0x100025340, symSize: 0x2C }
  - { offsetInCU: 0x4CFA3, offset: 0x9FA96, size: 0x8, addend: 0x0, symName: __ZN5Eigen8internal9evaluatorINS_8DiagonalIKNS_12CwiseUnaryOpINS0_13scalar_abs_opIdEEKNS_6MatrixIdLi2ELi2ELi0ELi2ELi2EEEEELi0EEEED2Ev, symObjAddr: 0xEBF4, symBinAddr: 0x10002536C, symSize: 0x34 }
  - { offsetInCU: 0x4CFCD, offset: 0x9FAC0, size: 0x8, addend: 0x0, symName: __ZN5Eigen8internal13scalar_max_opIddLi0EEC2Ev, symObjAddr: 0xEC28, symBinAddr: 0x1000253A0, symSize: 0x14 }
  - { offsetInCU: 0x4CFF5, offset: 0x9FAE8, size: 0x8, addend: 0x0, symName: __ZNKSt3__16__lessIvvEclB8ue170006IddEEbRKT_RKT0_, symObjAddr: 0xECBC, symBinAddr: 0x100025434, symSize: 0x34 }
  - { offsetInCU: 0x4D047, offset: 0x9FB3A, size: 0x8, addend: 0x0, symName: __ZN5Eigen14JacobiRotationIdEC2Ev, symObjAddr: 0xECF0, symBinAddr: 0x100025468, symSize: 0x14 }
  - { offsetInCU: 0x4D06F, offset: 0x9FB62, size: 0x8, addend: 0x0, symName: __ZN5Eigen9DenseBaseINS_6MatrixIdLi2ELi2ELi0ELi2ELi2EEEElsERKd, symObjAddr: 0xED04, symBinAddr: 0x10002547C, symSize: 0x40 }
  - { offsetInCU: 0x4D0A4, offset: 0x9FB97, size: 0x8, addend: 0x0, symName: __ZN5Eigen16CommaInitializerINS_6MatrixIdLi2ELi2ELi0ELi2ELi2EEEEcmERKd, symObjAddr: 0xED44, symBinAddr: 0x1000254BC, symSize: 0x1B8 }
  - { offsetInCU: 0x4D0D6, offset: 0x9FBC9, size: 0x8, addend: 0x0, symName: __ZN5Eigen16CommaInitializerINS_6MatrixIdLi2ELi2ELi0ELi2ELi2EEEED1Ev, symObjAddr: 0xEEFC, symBinAddr: 0x100025674, symSize: 0x2C }
  - { offsetInCU: 0x4D0FE, offset: 0x9FBF1, size: 0x8, addend: 0x0, symName: __ZN5Eigen14JacobiRotationIdE1sEv, symObjAddr: 0xEF28, symBinAddr: 0x1000256A0, symSize: 0x18 }
  - { offsetInCU: 0x4D122, offset: 0x9FC15, size: 0x8, addend: 0x0, symName: __ZN5Eigen14JacobiRotationIdE1cEv, symObjAddr: 0xEF40, symBinAddr: 0x1000256B8, symSize: 0x14 }
  - { offsetInCU: 0x4D146, offset: 0x9FC39, size: 0x8, addend: 0x0, symName: __ZN5Eigen14JacobiRotationIdE10makeJacobiINS_6MatrixIdLi2ELi2ELi0ELi2ELi2EEEEEbRKNS_10MatrixBaseIT_EEll, symObjAddr: 0xEF78, symBinAddr: 0x1000256F0, symSize: 0x94 }
  - { offsetInCU: 0x4D19F, offset: 0x9FC92, size: 0x8, addend: 0x0, symName: __ZN5Eigen14JacobiRotationIdEmlERKS1_, symObjAddr: 0xF00C, symBinAddr: 0x100025784, symSize: 0xE0 }
  - { offsetInCU: 0x4D1D1, offset: 0x9FCC4, size: 0x8, addend: 0x0, symName: __ZN5Eigen16CommaInitializerINS_6MatrixIdLi2ELi2ELi0ELi2ELi2EEEEC1ERS2_RKd, symObjAddr: 0xF0EC, symBinAddr: 0x100025864, symSize: 0x3C }
  - { offsetInCU: 0x4D215, offset: 0x9FD08, size: 0x8, addend: 0x0, symName: __ZN5Eigen16CommaInitializerINS_6MatrixIdLi2ELi2ELi0ELi2ELi2EEEEC2ERS2_RKd, symObjAddr: 0xF128, symBinAddr: 0x1000258A0, symSize: 0xF8 }
  - { offsetInCU: 0x4D259, offset: 0x9FD4C, size: 0x8, addend: 0x0, symName: __ZN5Eigen15PlainObjectBaseINS_6MatrixIdLi2ELi2ELi0ELi2ELi2EEEE8coeffRefEll, symObjAddr: 0xF220, symBinAddr: 0x100025998, symSize: 0x60 }
  - { offsetInCU: 0x4D299, offset: 0x9FD8C, size: 0x8, addend: 0x0, symName: __ZN5Eigen12DenseStorageIdLi4ELi2ELi2ELi0EE4dataEv, symObjAddr: 0xF280, symBinAddr: 0x1000259F8, symSize: 0x14 }
  - { offsetInCU: 0x4D2BD, offset: 0x9FDB0, size: 0x8, addend: 0x0, symName: __ZN5Eigen16CommaInitializerINS_6MatrixIdLi2ELi2ELi0ELi2ELi2EEEED2Ev, symObjAddr: 0xF294, symBinAddr: 0x100025A0C, symSize: 0x34 }
  - { offsetInCU: 0x4D2E5, offset: 0x9FDD8, size: 0x8, addend: 0x0, symName: __ZN5Eigen16CommaInitializerINS_6MatrixIdLi2ELi2ELi0ELi2ELi2EEEE8finishedEv, symObjAddr: 0xF2C8, symBinAddr: 0x100025A40, symSize: 0xE8 }
  - { offsetInCU: 0x4D309, offset: 0x9FDFC, size: 0x8, addend: 0x0, symName: __ZN5Eigen8internal9abs2_implIdE3runERKd, symObjAddr: 0xF3B0, symBinAddr: 0x100025B28, symSize: 0x24 }
  - { offsetInCU: 0x4D32C, offset: 0x9FE1F, size: 0x8, addend: 0x0, symName: __ZN5Eigen8internal17abs2_impl_defaultIdLb0EE3runERKd, symObjAddr: 0xF3D4, symBinAddr: 0x100025B4C, symSize: 0x24 }
  - { offsetInCU: 0x4D34F, offset: 0x9FE42, size: 0x8, addend: 0x0, symName: __ZN5Eigen14JacobiRotationIdE10makeJacobiERKdS3_S3_, symObjAddr: 0xF3F8, symBinAddr: 0x100025B70, symSize: 0x1F0 }
  - { offsetInCU: 0x4D411, offset: 0x9FF04, size: 0x8, addend: 0x0, symName: __ZNK5Eigen15DenseCoeffsBaseINS_6MatrixIdLi2ELi2ELi0ELi2ELi2EEELi0EE5coeffEll, symObjAddr: 0xF5E8, symBinAddr: 0x100025D60, symSize: 0x60 }
  - { offsetInCU: 0x4D451, offset: 0x9FF44, size: 0x8, addend: 0x0, symName: __ZN5Eigen8internal17conj_default_implIdLb0EE3runERKd, symObjAddr: 0xF66C, symBinAddr: 0x100025DE4, symSize: 0x18 }
  - { offsetInCU: 0x4D473, offset: 0x9FF66, size: 0x8, addend: 0x0, symName: __ZN5Eigen14JacobiRotationIdEC1ERKdS3_, symObjAddr: 0xF684, symBinAddr: 0x100025DFC, symSize: 0x3C }
  - { offsetInCU: 0x4D4B7, offset: 0x9FFAA, size: 0x8, addend: 0x0, symName: __ZN5Eigen14JacobiRotationIdEC2ERKdS3_, symObjAddr: 0xF6C0, symBinAddr: 0x100025E38, symSize: 0x34 }
  - { offsetInCU: 0x4D4FB, offset: 0x9FFEE, size: 0x8, addend: 0x0, symName: __ZN5Eigen9DenseBaseINS_6MatrixIdLi2ELi2ELi0ELi2ELi2EEEE3rowEl, symObjAddr: 0xF6F4, symBinAddr: 0x100025E6C, symSize: 0x3C }
  - { offsetInCU: 0x4D52E, offset: 0xA0021, size: 0x8, addend: 0x0, symName: __ZN5Eigen5BlockINS_6MatrixIdLi2ELi2ELi0ELi2ELi2EEELi1ELi2ELb0EEC1ERS2_l, symObjAddr: 0xF86C, symBinAddr: 0x100025FE4, symSize: 0x3C }
  - { offsetInCU: 0x4D572, offset: 0xA0065, size: 0x8, addend: 0x0, symName: __ZN5Eigen5BlockINS_6MatrixIdLi2ELi2ELi0ELi2ELi2EEELi1ELi2ELb0EEC2ERS2_l, symObjAddr: 0xF8A8, symBinAddr: 0x100026020, symSize: 0xCC }
  - { offsetInCU: 0x4D5B6, offset: 0xA00A9, size: 0x8, addend: 0x0, symName: __ZN5Eigen9BlockImplINS_6MatrixIdLi2ELi2ELi0ELi2ELi2EEELi1ELi2ELb0ENS_5DenseEEC2ERS2_l, symObjAddr: 0xF974, symBinAddr: 0x1000260EC, symSize: 0x3C }
  - { offsetInCU: 0x4D5FA, offset: 0xA00ED, size: 0x8, addend: 0x0, symName: __ZN5Eigen8internal15BlockImpl_denseINS_6MatrixIdLi2ELi2ELi0ELi2ELi2EEELi1ELi2ELb0ELb1EEC2ERS3_l, symObjAddr: 0xF9B0, symBinAddr: 0x100026128, symSize: 0xAC }
  - { offsetInCU: 0x4D640, offset: 0xA0133, size: 0x8, addend: 0x0, symName: __ZN5Eigen15PlainObjectBaseINS_6MatrixIdLi2ELi2ELi0ELi2ELi2EEEE4dataEv, symObjAddr: 0xFA5C, symBinAddr: 0x1000261D4, symSize: 0x24 }
  - { offsetInCU: 0x4D664, offset: 0xA0157, size: 0x8, addend: 0x0, symName: __ZN5Eigen7MapBaseINS_5BlockINS_6MatrixIdLi2ELi2ELi0ELi2ELi2EEELi1ELi2ELb0EEELi1EEC2EPdll, symObjAddr: 0xFA80, symBinAddr: 0x1000261F8, symSize: 0x44 }
  - { offsetInCU: 0x4D6B9, offset: 0xA01AC, size: 0x8, addend: 0x0, symName: __ZN5Eigen8internal15BlockImpl_denseINS_6MatrixIdLi2ELi2ELi0ELi2ELi2EEELi1ELi2ELb0ELb1EE4initEv, symObjAddr: 0xFAC4, symBinAddr: 0x10002623C, symSize: 0x34 }
  - { offsetInCU: 0x4D6DD, offset: 0xA01D0, size: 0x8, addend: 0x0, symName: __ZN5Eigen7MapBaseINS_5BlockINS_6MatrixIdLi2ELi2ELi0ELi2ELi2EEELi1ELi2ELb0EEELi0EEC2EPdll, symObjAddr: 0xFAF8, symBinAddr: 0x100026270, symSize: 0x13C }
  - { offsetInCU: 0x4D72F, offset: 0xA0222, size: 0x8, addend: 0x0, symName: __ZN5Eigen10MatrixBaseINS_5BlockINS_6MatrixIdLi2ELi2ELi0ELi2ELi2EEELi1ELi2ELb0EEEEC2Ev, symObjAddr: 0xFC34, symBinAddr: 0x1000263AC, symSize: 0x2C }
  - { offsetInCU: 0x4D757, offset: 0xA024A, size: 0x8, addend: 0x0, symName: __ZNK5Eigen7MapBaseINS_5BlockINS_6MatrixIdLi2ELi2ELi0ELi2ELi2EEELi1ELi2ELb0EEELi0EE11checkSanityIS4_EEvNS_8internal9enable_ifIXeqsr8internal6traitsIT_EE9AlignmentLi0EEPvE4typeE, symObjAddr: 0xFC60, symBinAddr: 0x1000263D8, symSize: 0x14 }
  - { offsetInCU: 0x4D78E, offset: 0xA0281, size: 0x8, addend: 0x0, symName: __ZN5Eigen9DenseBaseINS_5BlockINS_6MatrixIdLi2ELi2ELi0ELi2ELi2EEELi1ELi2ELb0EEEEC2Ev, symObjAddr: 0xFC74, symBinAddr: 0x1000263EC, symSize: 0x14 }
  - { offsetInCU: 0x4D7B6, offset: 0xA02A9, size: 0x8, addend: 0x0, symName: __ZNK5Eigen9EigenBaseINS_5BlockINS_6MatrixIdLi2ELi2ELi0ELi2ELi2EEELi1ELi2ELb0EEEE4sizeEv, symObjAddr: 0xFC88, symBinAddr: 0x100026400, symSize: 0x44 }
  - { offsetInCU: 0x4D7DA, offset: 0xA02CD, size: 0x8, addend: 0x0, symName: __ZN5Eigen9EigenBaseINS_5BlockINS_6MatrixIdLi2ELi2ELi0ELi2ELi2EEELi1ELi2ELb0EEEE7derivedEv, symObjAddr: 0xFCCC, symBinAddr: 0x100026444, symSize: 0x14 }
  - { offsetInCU: 0x4D7FE, offset: 0xA02F1, size: 0x8, addend: 0x0, symName: __ZNK5Eigen8internal15BlockImpl_denseINS_6MatrixIdLi2ELi2ELi0ELi2ELi2EEELi1ELi2ELb0ELb1EE11innerStrideEv, symObjAddr: 0xFCE0, symBinAddr: 0x100026458, symSize: 0x28 }
  - { offsetInCU: 0x4D822, offset: 0xA0315, size: 0x8, addend: 0x0, symName: __ZN5Eigen7MapBaseINS_5BlockINS_6MatrixIdLi2ELi2ELi0ELi2ELi2EEELi1ELi2ELb0EEELi1EE8coeffRefEl, symObjAddr: 0xFD08, symBinAddr: 0x100026480, symSize: 0x48 }
  - { offsetInCU: 0x4D855, offset: 0xA0348, size: 0x8, addend: 0x0, symName: __ZNK5Eigen14JacobiRotationIdE1cEv, symObjAddr: 0xFD50, symBinAddr: 0x1000264C8, symSize: 0x18 }
  - { offsetInCU: 0x4D879, offset: 0xA036C, size: 0x8, addend: 0x0, symName: __ZNK5Eigen14JacobiRotationIdE1sEv, symObjAddr: 0xFD68, symBinAddr: 0x1000264E0, symSize: 0x18 }
  - { offsetInCU: 0x4D89D, offset: 0xA0390, size: 0x8, addend: 0x0, symName: __ZN5Eigen8internal36apply_rotation_in_the_plane_selectorIddLi2ELi0ELb0EE3runEPdlS3_lldd, symObjAddr: 0xFD80, symBinAddr: 0x1000264F8, symSize: 0x118 }
  - { offsetInCU: 0x4D964, offset: 0xA0457, size: 0x8, addend: 0x0, symName: __ZNK5Eigen9EigenBaseINS_5BlockINS_6MatrixIdLi2ELi2ELi0ELi2ELi2EEELi1ELi2ELb0EEEE4rowsEv, symObjAddr: 0xFE98, symBinAddr: 0x100026610, symSize: 0x38 }
  - { offsetInCU: 0x4D988, offset: 0xA047B, size: 0x8, addend: 0x0, symName: __ZNK5Eigen9EigenBaseINS_5BlockINS_6MatrixIdLi2ELi2ELi0ELi2ELi2EEELi1ELi2ELb0EEEE4colsEv, symObjAddr: 0xFED0, symBinAddr: 0x100026648, symSize: 0x28 }
  - { offsetInCU: 0x4D9AC, offset: 0xA049F, size: 0x8, addend: 0x0, symName: __ZNK5Eigen9EigenBaseINS_5BlockINS_6MatrixIdLi2ELi2ELi0ELi2ELi2EEELi1ELi2ELb0EEEE7derivedEv, symObjAddr: 0xFEF8, symBinAddr: 0x100026670, symSize: 0x14 }
  - { offsetInCU: 0x4D9D0, offset: 0xA04C3, size: 0x8, addend: 0x0, symName: __ZNK5Eigen7MapBaseINS_5BlockINS_6MatrixIdLi2ELi2ELi0ELi2ELi2EEELi1ELi2ELb0EEELi0EE4rowsEv, symObjAddr: 0xFF0C, symBinAddr: 0x100026684, symSize: 0x20 }
  - { offsetInCU: 0x4D9F4, offset: 0xA04E7, size: 0x8, addend: 0x0, symName: __ZNK5Eigen7MapBaseINS_5BlockINS_6MatrixIdLi2ELi2ELi0ELi2ELi2EEELi1ELi2ELb0EEELi0EE4colsEv, symObjAddr: 0xFF2C, symBinAddr: 0x1000266A4, symSize: 0x20 }
  - { offsetInCU: 0x4DA18, offset: 0xA050B, size: 0x8, addend: 0x0, symName: __ZNK5Eigen15DenseCoeffsBaseINS_5BlockINS_6MatrixIdLi2ELi2ELi0ELi2ELi2EEELi1ELi2ELb0EEELi3EE11innerStrideEv, symObjAddr: 0xFF4C, symBinAddr: 0x1000266C4, symSize: 0x28 }
  - { offsetInCU: 0x4DA3C, offset: 0xA052F, size: 0x8, addend: 0x0, symName: __ZNK5Eigen9EigenBaseINS_5BlockINS_6MatrixIdLi2ELi2ELi0ELi2ELi2EEELi2ELi1ELb1EEEE4sizeEv, symObjAddr: 0x100B0, symBinAddr: 0x100026828, symSize: 0x44 }
  - { offsetInCU: 0x4DA60, offset: 0xA0553, size: 0x8, addend: 0x0, symName: __ZN5Eigen9EigenBaseINS_5BlockINS_6MatrixIdLi2ELi2ELi0ELi2ELi2EEELi2ELi1ELb1EEEE7derivedEv, symObjAddr: 0x100F4, symBinAddr: 0x10002686C, symSize: 0x14 }
  - { offsetInCU: 0x4DA84, offset: 0xA0577, size: 0x8, addend: 0x0, symName: __ZNK5Eigen8internal15BlockImpl_denseINS_6MatrixIdLi2ELi2ELi0ELi2ELi2EEELi2ELi1ELb1ELb1EE11innerStrideEv, symObjAddr: 0x10108, symBinAddr: 0x100026880, symSize: 0x28 }
  - { offsetInCU: 0x4DAA8, offset: 0xA059B, size: 0x8, addend: 0x0, symName: __ZN5Eigen7MapBaseINS_5BlockINS_6MatrixIdLi2ELi2ELi0ELi2ELi2EEELi2ELi1ELb1EEELi1EE8coeffRefEl, symObjAddr: 0x10130, symBinAddr: 0x1000268A8, symSize: 0x48 }
  - { offsetInCU: 0x4DADB, offset: 0xA05CE, size: 0x8, addend: 0x0, symName: __ZN5Eigen8internal36apply_rotation_in_the_plane_selectorIddLi2ELi16ELb0EE3runEPdlS3_lldd, symObjAddr: 0x10178, symBinAddr: 0x1000268F0, symSize: 0x118 }
